

Microchip MPLAB XC8 Assembler V2.30 build 20200825195618 
                                                                                               Wed Aug 04 09:49:51 2021

Microchip MPLAB XC8 C Compiler v2.30 (Free license) build 20200825195618 Og1 
     1                           	processor	16F877A
     2                           	pagewidth 120
     3                           	opt	flic
     4                           	psect	idataBANK3,global,class=CODE,delta=2,noexec
     5                           	psect	strings,global,class=STRING,delta=2,noexec
     6                           	psect	cinit,global,class=CODE,merge=1,delta=2
     7                           	psect	bssBANK0,global,class=BANK0,space=1,delta=1,noexec
     8                           	psect	dataBANK3,global,class=BANK3,space=1,delta=1,noexec
     9                           	psect	inittext,global,class=CODE,delta=2
    10                           	psect	clrtext,global,class=CODE,delta=2
    11                           	psect	cstackBANK1,global,class=BANK1,space=1,delta=1,noexec
    12                           	psect	cstackCOMMON,global,class=COMMON,space=1,delta=1,noexec
    13                           	psect	cstackBANK0,global,class=BANK0,space=1,delta=1,noexec
    14                           	psect	maintext,global,class=CODE,split=1,delta=2
    15                           	psect	text1,local,class=CODE,merge=1,delta=2
    16                           	psect	text2,local,class=CODE,merge=1,delta=2,group=1
    17                           	psect	text3,local,class=CODE,merge=1,delta=2,group=1
    18                           	psect	text4,local,class=CODE,merge=1,delta=2,group=1
    19                           	psect	text5,local,class=CODE,merge=1,delta=2
    20                           	psect	text6,local,class=CODE,merge=1,delta=2
    21                           	psect	text7,local,class=CODE,merge=1,delta=2
    22                           	psect	text8,local,class=CODE,merge=1,delta=2
    23                           	psect	text9,local,class=CODE,merge=1,delta=2
    24                           	psect	text10,local,class=CODE,merge=1,delta=2
    25                           	psect	text11,local,class=CODE,merge=1,delta=2
    26                           	psect	text12,local,class=CODE,merge=1,delta=2
    27                           	psect	text13,local,class=CODE,merge=1,delta=2
    28                           	psect	text14,local,class=CODE,merge=1,delta=2
    29                           	psect	intentry,global,class=CODE,delta=2
    30                           	psect	text15,local,class=CODE,merge=1,delta=2,group=1
    31                           	psect	text16,local,class=CODE,merge=1,delta=2,group=1
    32                           	psect	text17,local,class=CODE,merge=1,delta=2,group=1
    33                           	psect	text18,local,class=CODE,merge=1,delta=2,group=1
    34                           	psect	text19,local,class=CODE,merge=1,delta=2
    35                           	psect	config,global,abs,ovrld,class=CONFIG,space=4,delta=2,noexec
    36                           	dabs	1,0x7E,2
    37  0000                     
    38                           ; Version 2.30
    39                           ; Generated 26/08/2020 GMT
    40                           ; 
    41                           ; Copyright © 2020, Microchip Technology Inc. and its subsidiaries ("Microchip")
    42                           ; All rights reserved.
    43                           ; 
    44                           ; This software is developed by Microchip Technology Inc. and its subsidiaries ("Microch
      +                          ip").
    45                           ; 
    46                           ; Redistribution and use in source and binary forms, with or without modification, are
    47                           ; permitted provided that the following conditions are met:
    48                           ; 
    49                           ;     1. Redistributions of source code must retain the above copyright notice, this lis
      +                          t of
    50                           ;        conditions and the following disclaimer.
    51                           ; 
    52                           ;     2. Redistributions in binary form must reproduce the above copyright notice, this 
      +                          list
    53                           ;        of conditions and the following disclaimer in the documentation and/or other
    54                           ;        materials provided with the distribution. Publication is not required when
    55                           ;        this file is used in an embedded application.
    56                           ; 
    57                           ;     3. Microchip's name may not be used to endorse or promote products derived from th
      +                          is
    58                           ;        software without specific prior written permission.
    59                           ; 
    60                           ; THIS SOFTWARE IS PROVIDED BY MICROCHIP "AS IS" AND ANY EXPRESS OR IMPLIED WARRANTIES,
    61                           ; INCLUDING, BUT NOT LIMITED TO, THE IMPLIED WARRANTIES OF MERCHANTABILITY AND FITNESS F
      +                          OR
    62                           ; PURPOSE ARE DISCLAIMED.  IN NO EVENT SHALL MICROCHIP BE LIABLE FOR ANY DIRECT, INDIREC
      +                          T,
    63                           ; INCIDENTAL, SPECIAL, EXEMPLARY, OR CONSEQUENTIAL DAMAGES (INCLUDING BUT NOT LIMITED TO
    64                           ; PROCUREMENT OF SUBSTITUTE GOODS OR SERVICES; LOSS OF USE, DATA OR PROFITS; OR BUSINESS
    65                           ; INTERRUPTION) HOWSOEVER CAUSED AND ON ANY THEORY OF LIABILITY, WHETHER IN CONTRACT, ST
      +                          RICT
    66                           ; LIABILITY, OR TORT (INCLUDING NEGLIGENCE OR OTHERWISE) ARISING IN ANY WAY OUT OF THE U
      +                          SE OF
    67                           ; THIS SOFTWARE, EVEN IF ADVISED OF THE POSSIBILITY OF SUCH DAMAGE.
    68                           ; 
    69                           ; 
    70                           ; Code-generator required, PIC16F877A Definitions
    71                           ; 
    72                           ; SFR Addresses
    73  0000                     	;# 
    74  0001                     	;# 
    75  0002                     	;# 
    76  0003                     	;# 
    77  0004                     	;# 
    78  0005                     	;# 
    79  0006                     	;# 
    80  0007                     	;# 
    81  0008                     	;# 
    82  0009                     	;# 
    83  000A                     	;# 
    84  000B                     	;# 
    85  000C                     	;# 
    86  000D                     	;# 
    87  000E                     	;# 
    88  000E                     	;# 
    89  000F                     	;# 
    90  0010                     	;# 
    91  0011                     	;# 
    92  0012                     	;# 
    93  0013                     	;# 
    94  0014                     	;# 
    95  0015                     	;# 
    96  0015                     	;# 
    97  0016                     	;# 
    98  0017                     	;# 
    99  0018                     	;# 
   100  0019                     	;# 
   101  001A                     	;# 
   102  001B                     	;# 
   103  001B                     	;# 
   104  001C                     	;# 
   105  001D                     	;# 
   106  001E                     	;# 
   107  001F                     	;# 
   108  0081                     	;# 
   109  0085                     	;# 
   110  0086                     	;# 
   111  0087                     	;# 
   112  0088                     	;# 
   113  0089                     	;# 
   114  008C                     	;# 
   115  008D                     	;# 
   116  008E                     	;# 
   117  0091                     	;# 
   118  0092                     	;# 
   119  0093                     	;# 
   120  0094                     	;# 
   121  0098                     	;# 
   122  0099                     	;# 
   123  009C                     	;# 
   124  009D                     	;# 
   125  009E                     	;# 
   126  009F                     	;# 
   127  010C                     	;# 
   128  010D                     	;# 
   129  010E                     	;# 
   130  010F                     	;# 
   131  018C                     	;# 
   132  018D                     	;# 
   133  0000                     	;# 
   134  0001                     	;# 
   135  0002                     	;# 
   136  0003                     	;# 
   137  0004                     	;# 
   138  0005                     	;# 
   139  0006                     	;# 
   140  0007                     	;# 
   141  0008                     	;# 
   142  0009                     	;# 
   143  000A                     	;# 
   144  000B                     	;# 
   145  000C                     	;# 
   146  000D                     	;# 
   147  000E                     	;# 
   148  000E                     	;# 
   149  000F                     	;# 
   150  0010                     	;# 
   151  0011                     	;# 
   152  0012                     	;# 
   153  0013                     	;# 
   154  0014                     	;# 
   155  0015                     	;# 
   156  0015                     	;# 
   157  0016                     	;# 
   158  0017                     	;# 
   159  0018                     	;# 
   160  0019                     	;# 
   161  001A                     	;# 
   162  001B                     	;# 
   163  001B                     	;# 
   164  001C                     	;# 
   165  001D                     	;# 
   166  001E                     	;# 
   167  001F                     	;# 
   168  0081                     	;# 
   169  0085                     	;# 
   170  0086                     	;# 
   171  0087                     	;# 
   172  0088                     	;# 
   173  0089                     	;# 
   174  008C                     	;# 
   175  008D                     	;# 
   176  008E                     	;# 
   177  0091                     	;# 
   178  0092                     	;# 
   179  0093                     	;# 
   180  0094                     	;# 
   181  0098                     	;# 
   182  0099                     	;# 
   183  009C                     	;# 
   184  009D                     	;# 
   185  009E                     	;# 
   186  009F                     	;# 
   187  010C                     	;# 
   188  010D                     	;# 
   189  010E                     	;# 
   190  010F                     	;# 
   191  018C                     	;# 
   192  018D                     	;# 
   193  0000                     	;# 
   194  0001                     	;# 
   195  0002                     	;# 
   196  0003                     	;# 
   197  0004                     	;# 
   198  0005                     	;# 
   199  0006                     	;# 
   200  0007                     	;# 
   201  0008                     	;# 
   202  0009                     	;# 
   203  000A                     	;# 
   204  000B                     	;# 
   205  000C                     	;# 
   206  000D                     	;# 
   207  000E                     	;# 
   208  000E                     	;# 
   209  000F                     	;# 
   210  0010                     	;# 
   211  0011                     	;# 
   212  0012                     	;# 
   213  0013                     	;# 
   214  0014                     	;# 
   215  0015                     	;# 
   216  0015                     	;# 
   217  0016                     	;# 
   218  0017                     	;# 
   219  0018                     	;# 
   220  0019                     	;# 
   221  001A                     	;# 
   222  001B                     	;# 
   223  001B                     	;# 
   224  001C                     	;# 
   225  001D                     	;# 
   226  001E                     	;# 
   227  001F                     	;# 
   228  0081                     	;# 
   229  0085                     	;# 
   230  0086                     	;# 
   231  0087                     	;# 
   232  0088                     	;# 
   233  0089                     	;# 
   234  008C                     	;# 
   235  008D                     	;# 
   236  008E                     	;# 
   237  0091                     	;# 
   238  0092                     	;# 
   239  0093                     	;# 
   240  0094                     	;# 
   241  0098                     	;# 
   242  0099                     	;# 
   243  009C                     	;# 
   244  009D                     	;# 
   245  009E                     	;# 
   246  009F                     	;# 
   247  010C                     	;# 
   248  010D                     	;# 
   249  010E                     	;# 
   250  010F                     	;# 
   251  018C                     	;# 
   252  018D                     	;# 
   253  0000                     	;# 
   254  0001                     	;# 
   255  0002                     	;# 
   256  0003                     	;# 
   257  0004                     	;# 
   258  0005                     	;# 
   259  0006                     	;# 
   260  0007                     	;# 
   261  0008                     	;# 
   262  0009                     	;# 
   263  000A                     	;# 
   264  000B                     	;# 
   265  000C                     	;# 
   266  000D                     	;# 
   267  000E                     	;# 
   268  000E                     	;# 
   269  000F                     	;# 
   270  0010                     	;# 
   271  0011                     	;# 
   272  0012                     	;# 
   273  0013                     	;# 
   274  0014                     	;# 
   275  0015                     	;# 
   276  0015                     	;# 
   277  0016                     	;# 
   278  0017                     	;# 
   279  0018                     	;# 
   280  0019                     	;# 
   281  001A                     	;# 
   282  001B                     	;# 
   283  001B                     	;# 
   284  001C                     	;# 
   285  001D                     	;# 
   286  001E                     	;# 
   287  001F                     	;# 
   288  0081                     	;# 
   289  0085                     	;# 
   290  0086                     	;# 
   291  0087                     	;# 
   292  0088                     	;# 
   293  0089                     	;# 
   294  008C                     	;# 
   295  008D                     	;# 
   296  008E                     	;# 
   297  0091                     	;# 
   298  0092                     	;# 
   299  0093                     	;# 
   300  0094                     	;# 
   301  0098                     	;# 
   302  0099                     	;# 
   303  009C                     	;# 
   304  009D                     	;# 
   305  009E                     	;# 
   306  009F                     	;# 
   307  010C                     	;# 
   308  010D                     	;# 
   309  010E                     	;# 
   310  010F                     	;# 
   311  018C                     	;# 
   312  018D                     	;# 
   313                           
   314                           	psect	idataBANK3
   315  0B7F                     __pidataBANK3:
   316                           
   317                           ;initializer for ___cgram
   318  0B7F  340C               	retlw	12
   319  0B80  3412               	retlw	18
   320  0B81  3412               	retlw	18
   321  0B82  340C               	retlw	12
   322  0B83  3400               	retlw	0
   323  0B84  3400               	retlw	0
   324  0B85  3400               	retlw	0
   325  0B86  3400               	retlw	0
   326  0B87  3400               	retlw	0
   327  0B88  3404               	retlw	4
   328  0B89  340E               	retlw	14
   329  0B8A  341F               	retlw	31
   330  0B8B  340E               	retlw	14
   331  0B8C  3404               	retlw	4
   332  0B8D  3400               	retlw	0
   333  0B8E  3400               	retlw	0
   334  0B8F  3404               	retlw	4
   335  0B90  3404               	retlw	4
   336  0B91  3404               	retlw	4
   337  0B92  3404               	retlw	4
   338  0B93  341F               	retlw	31
   339  0B94  340E               	retlw	14
   340  0B95  3404               	retlw	4
   341  0B96  3400               	retlw	0
   342  0B97  340A               	retlw	10
   343  0B98  3415               	retlw	21
   344  0B99  3411               	retlw	17
   345  0B9A  340A               	retlw	10
   346  0B9B  3404               	retlw	4
   347  0B9C  3400               	retlw	0
   348  0B9D  3400               	retlw	0
   349  0B9E  3400               	retlw	0
   350  0B9F  340A               	retlw	10
   351  0BA0  341F               	retlw	31
   352  0BA1  341F               	retlw	31
   353  0BA2  340E               	retlw	14
   354  0BA3  3404               	retlw	4
   355  0BA4  3400               	retlw	0
   356  0BA5  3400               	retlw	0
   357  0BA6  3400               	retlw	0
   358  0BA7  3400               	retlw	0
   359  0BA8  3400               	retlw	0
   360  0BA9  3400               	retlw	0
   361  0BAA  3400               	retlw	0
   362  0BAB  3400               	retlw	0
   363  0BAC  3400               	retlw	0
   364  0BAD  3400               	retlw	0
   365  0BAE  3400               	retlw	0
   366  0BAF  3400               	retlw	0
   367  0BB0  3400               	retlw	0
   368  0BB1  3400               	retlw	0
   369  0BB2  3400               	retlw	0
   370  0BB3  3400               	retlw	0
   371  0BB4  3400               	retlw	0
   372  0BB5  3400               	retlw	0
   373  0BB6  3400               	retlw	0
   374  0BB7  3400               	retlw	0
   375  0BB8  3400               	retlw	0
   376  0BB9  3400               	retlw	0
   377  0BBA  3400               	retlw	0
   378  0BBB  3400               	retlw	0
   379  0BBC  3400               	retlw	0
   380  0BBD  3400               	retlw	0
   381  0BBE  3400               	retlw	0
   382  0006                     _PORTB	set	6
   383  0007                     _PORTCbits	set	7
   384  0008                     _PORTD	set	8
   385  0008                     _PORTDbits	set	8
   386  0013                     _SSPBUF	set	19
   387  0014                     _SSPCON	set	20
   388  002A                     _RA2	set	42
   389  0029                     _RA1	set	41
   390  002B                     _RA3	set	43
   391  0061                     _TMR2IF	set	97
   392  005F                     _GIE	set	95
   393  005E                     _PEIE	set	94
   394  0092                     _TMR2ON	set	146
   395  0095                     _TOUTPS2	set	149
   396  0094                     _TOUTPS1	set	148
   397  0093                     _TOUTPS0	set	147
   398  0091                     _T2CKPS1	set	145
   399  0090                     _T2CKPS0	set	144
   400  0086                     _TRISB	set	134
   401  0087                     _TRISC	set	135
   402  0085                     _TRISAbits	set	133
   403  0088                     _TRISD	set	136
   404  009F                     _ADCON1	set	159
   405  0094                     _SSPSTATbits	set	148
   406  0094                     _SSPSTAT	set	148
   407  0087                     _TRISCbits	set	135
   408  0088                     _TRISDbits	set	136
   409  0092                     _PR2	set	146
   410  0461                     _TMR2IE	set	1121
   411                           
   412                           	psect	strings
   413  0800                     __pstrings:
   414  0800                     stringtab:
   415  0800                     __stringtab:
   416  0800                     stringcode:	
   417                           ;	String table - string pointers are 1 byte each
   418                           
   419  0800                     stringdir:
   420  0800  3008               	movlw	high stringdir
   421  0801  008A               	movwf	10
   422  0802  0804               	movf	4,w
   423  0803  0A84               	incf	4,f
   424  0804  0782               	addwf	2,f
   425  0805                     __stringbase:
   426  0805  3400               	retlw	0
   427  0806                     __end_of__stringtab:
   428  0806                     STR_2:
   429  0806  3447               	retlw	71	;'G'
   430  0807  3469               	retlw	105	;'i'
   431  0808  3461               	retlw	97	;'a'
   432  0809  3420               	retlw	32	;' '
   433  080A  3474               	retlw	116	;'t'
   434  080B  3472               	retlw	114	;'r'
   435  080C  3469               	retlw	105	;'i'
   436  080D  3420               	retlw	32	;' '
   437  080E  3449               	retlw	73	;'I'
   438  080F  343D               	retlw	61	;'='
   439  0810  3420               	retlw	32	;' '
   440  0811  3400               	retlw	0
   441  0812                     STR_3:
   442  0812  3447               	retlw	71	;'G'
   443  0813  3469               	retlw	105	;'i'
   444  0814  3461               	retlw	97	;'a'
   445  0815  3420               	retlw	32	;' '
   446  0816  3474               	retlw	116	;'t'
   447  0817  3472               	retlw	114	;'r'
   448  0818  3469               	retlw	105	;'i'
   449  0819  3420               	retlw	32	;' '
   450  081A  3455               	retlw	85	;'U'
   451  081B  343D               	retlw	61	;'='
   452  081C  3420               	retlw	32	;' '
   453  081D  3400               	retlw	0
   454  081E                     STR_1:
   455  081E  3444               	retlw	68	;'D'
   456  081F  346F               	retlw	111	;'o'
   457  0820  3420               	retlw	32	;' '
   458  0821  3455               	retlw	85	;'U'
   459  0822  342F               	retlw	47	;'/'
   460  0823  3449               	retlw	73	;'I'
   461  0824  3420               	retlw	32	;' '
   462  0825  342E               	retlw	46	;'.'
   463  0826  342E               	retlw	46	;'.'
   464  0827  342E               	retlw	46	;'.'
   465  0828  3400               	retlw	0
   466                           
   467                           	psect	cinit
   468  0015                     start_initialization:	
   469                           ; #config settings
   470                           
   471  0015                     __initialization:
   472                           
   473                           ; Initialize objects allocated to BANK3
   474  0015  1783               	bsf	3,7	;select IRP bank2
   475  0016  30D0               	movlw	low (__pdataBANK3+64)
   476  0017  00FD               	movwf	btemp+-1
   477  0018  300B               	movlw	high __pidataBANK3
   478  0019  00FE               	movwf	btemp
   479  001A  307F               	movlw	low __pidataBANK3
   480  001B  00FF               	movwf	btemp+1
   481  001C  3090               	movlw	low __pdataBANK3
   482  001D  0084               	movwf	4
   483  001E  120A  158A  22D8  120A  118A  	fcall	init_ram0
   484                           
   485                           ; Clear objects allocated to BANK0
   486  0023  1383               	bcf	3,7	;select IRP bank0
   487  0024  303D               	movlw	low __pbssBANK0
   488  0025  0084               	movwf	4
   489  0026  3057               	movlw	low (__pbssBANK0+26)
   490  0027  120A  158A  22B4  120A  118A  	fcall	clear_ram0
   491  002C                     end_of_initialization:	
   492                           ;End of C runtime variable initialization code
   493                           
   494  002C                     __end_of__initialization:
   495  002C  0183               	clrf	3
   496  002D  120A  118A  2B91   	ljmp	_main	;jump to C main() function
   497                           
   498                           	psect	bssBANK0
   499  003D                     __pbssBANK0:
   500  003D                     LCDWriteInt@F912:
   501  003D                     	ds	5
   502  0042                     _Dienap:
   503  0042                     	ds	4
   504  0046                     _Dong:
   505  0046                     	ds	4
   506  004A                     main@F1098:
   507  004A                     	ds	3
   508  004D                     _count_s:
   509  004D                     	ds	2
   510  004F                     _count1:
   511  004F                     	ds	2
   512  0051                     _count:
   513  0051                     	ds	2
   514  0053                     _i:
   515  0053                     	ds	2
   516  0055                     _adc_ok:
   517  0055                     	ds	1
   518  0056                     _do_dienap:
   519  0056                     	ds	1
   520                           
   521                           	psect	dataBANK3
   522  0190                     __pdataBANK3:
   523  0190                     ___cgram:
   524  0190                     	ds	64
   525                           
   526                           	psect	inittext
   527  0AD4                     init_fetch0:	
   528                           ;	Called with low address in FSR and high address in W
   529                           
   530  0AD4  087E               	movf	btemp,w
   531  0AD5  008A               	movwf	10
   532  0AD6  087F               	movf	btemp+1,w
   533  0AD7  0082               	movwf	2
   534  0AD8                     init_ram0:	
   535                           ;Called with:
   536                           ;	high address of idata address in btemp 
   537                           ;	low address of idata address in btemp+1 
   538                           ;	low address of data in FSR
   539                           ;	high address + 1 of data in btemp-1
   540                           
   541  0AD8  120A  158A  22D4  120A  158A  	fcall	init_fetch0
   542  0ADD  0080               	movwf	0
   543  0ADE  0A84               	incf	4,f
   544  0ADF  0804               	movf	4,w
   545  0AE0  067D               	xorwf	btemp+-1,w
   546  0AE1  1903               	btfsc	3,2
   547  0AE2  3400               	retlw	0
   548  0AE3  0AFF               	incf	btemp+1,f
   549  0AE4  1903               	btfsc	3,2
   550  0AE5  0AFE               	incf	btemp,f
   551  0AE6  2AD8               	goto	init_ram0
   552                           
   553                           	psect	clrtext
   554  0AB4                     clear_ram0:	
   555                           ;	Called with FSR containing the base address, and
   556                           ;	W with the last address+1
   557                           
   558  0AB4  0064               	clrwdt	;clear the watchdog before getting into this loop
   559  0AB5                     clrloop0:
   560  0AB5  0180               	clrf	0	;clear RAM location pointed to by FSR
   561  0AB6  0A84               	incf	4,f	;increment pointer
   562  0AB7  0604               	xorwf	4,w	;XOR with final address
   563  0AB8  1903               	btfsc	3,2	;have we reached the end yet?
   564  0AB9  3400               	retlw	0	;all done for this memory range, return
   565  0ABA  0604               	xorwf	4,w	;XOR again to restore value
   566  0ABB  2AB5               	goto	clrloop0	;do the next byte
   567                           
   568                           	psect	cstackBANK1
   569  00A0                     __pcstackBANK1:
   570  00A0                     ??_InitADC:
   571  00A0                     ??_LCDBusyLoop:	
   572                           ; 1 bytes @ 0x0
   573                           
   574  00A0                     ??_timer2_initialize:	
   575                           ; 1 bytes @ 0x0
   576                           
   577  00A0                     ??_SPI_Initialize_Master:	
   578                           ; 1 bytes @ 0x0
   579                           
   580  00A0                     ??_SPI_Write:	
   581                           ; 1 bytes @ 0x0
   582                           
   583  00A0                     ??_SPI_Read:	
   584                           ; 1 bytes @ 0x0
   585                           
   586  00A0                     ?___lwmod:	
   587                           ; 1 bytes @ 0x0
   588                           
   589  00A0                     ?___fltol:	
   590                           ; 2 bytes @ 0x0
   591                           
   592  00A0                     SPI_Write@incoming:	
   593                           ; 4 bytes @ 0x0
   594                           
   595  00A0                     ___lwmod@divisor:	
   596                           ; 1 bytes @ 0x0
   597                           
   598  00A0                     ___fltol@f1:	
   599                           ; 2 bytes @ 0x0
   600                           
   601                           
   602                           ; 4 bytes @ 0x0
   603  00A0                     	ds	2
   604  00A2                     LCDBusyLoop@busy:
   605  00A2                     ___lwmod@dividend:	
   606                           ; 1 bytes @ 0x2
   607                           
   608                           
   609                           ; 2 bytes @ 0x2
   610  00A2                     	ds	1
   611  00A3                     LCDBusyLoop@temp:
   612                           
   613                           ; 1 bytes @ 0x3
   614  00A3                     	ds	1
   615  00A4                     ??___fltol:
   616  00A4                     ??___lwmod:	
   617                           ; 1 bytes @ 0x4
   618                           
   619  00A4                     LCDBusyLoop@status:	
   620                           ; 1 bytes @ 0x4
   621                           
   622                           
   623                           ; 1 bytes @ 0x4
   624  00A4                     	ds	1
   625  00A5                     ?_LCDByte:
   626  00A5                     LCDByte@isdata:	
   627                           ; 1 bytes @ 0x5
   628                           
   629  00A5                     ___lwmod@counter:	
   630                           ; 1 bytes @ 0x5
   631                           
   632                           
   633                           ; 1 bytes @ 0x5
   634  00A5                     	ds	1
   635  00A6                     ??_LCDByte:
   636  00A6                     ?___lwdiv:	
   637                           ; 1 bytes @ 0x6
   638                           
   639  00A6                     ___lwdiv@divisor:	
   640                           ; 2 bytes @ 0x6
   641                           
   642                           
   643                           ; 2 bytes @ 0x6
   644  00A6                     	ds	2
   645  00A8                     LCDByte@hn:
   646  00A8                     ___lwdiv@dividend:	
   647                           ; 1 bytes @ 0x8
   648                           
   649                           
   650                           ; 2 bytes @ 0x8
   651  00A8                     	ds	1
   652  00A9                     LCDByte@ln:
   653  00A9                     ___fltol@sign1:	
   654                           ; 1 bytes @ 0x9
   655                           
   656                           
   657                           ; 1 bytes @ 0x9
   658  00A9                     	ds	1
   659  00AA                     ??___lwdiv:
   660  00AA                     LCDByte@c:	
   661                           ; 1 bytes @ 0xA
   662                           
   663  00AA                     ___fltol@exp1:	
   664                           ; 1 bytes @ 0xA
   665                           
   666                           
   667                           ; 1 bytes @ 0xA
   668  00AA                     	ds	1
   669  00AB                     LCDByte@temp:
   670  00AB                     ___lwdiv@counter:	
   671                           ; 1 bytes @ 0xB
   672                           
   673                           
   674                           ; 1 bytes @ 0xB
   675  00AB                     	ds	1
   676  00AC                     ??_LCDInit:
   677  00AC                     ??_LCDWriteString:	
   678                           ; 1 bytes @ 0xC
   679                           
   680  00AC                     ?_LCDGotoXY:	
   681                           ; 1 bytes @ 0xC
   682                           
   683  00AC                     LCDGotoXY@y:	
   684                           ; 1 bytes @ 0xC
   685                           
   686  00AC                     ___lwdiv@quotient:	
   687                           ; 1 bytes @ 0xC
   688                           
   689                           
   690                           ; 2 bytes @ 0xC
   691  00AC                     	ds	1
   692  00AD                     ??_LCDGotoXY:
   693  00AD                     LCDWriteString@cc:	
   694                           ; 1 bytes @ 0xD
   695                           
   696                           
   697                           ; 1 bytes @ 0xD
   698  00AD                     	ds	1
   699  00AE                     LCDInit@style:
   700  00AE                     LCDWriteString@msg:	
   701                           ; 1 bytes @ 0xE
   702                           
   703                           
   704                           ; 1 bytes @ 0xE
   705  00AE                     	ds	1
   706  00AF                     LCDInit@__i:
   707  00AF                     LCDGotoXY@x:	
   708                           ; 1 bytes @ 0xF
   709                           
   710                           
   711                           ; 1 bytes @ 0xF
   712  00AF                     	ds	1
   713  00B0                     ?_main:
   714  00B0                     main@argc:	
   715                           ; 2 bytes @ 0x10
   716                           
   717                           
   718                           ; 2 bytes @ 0x10
   719  00B0                     	ds	2
   720  00B2                     main@argv:
   721                           
   722                           ; 2 bytes @ 0x12
   723  00B2                     	ds	2
   724  00B4                     ??_main:
   725                           
   726                           ; 1 bytes @ 0x14
   727  00B4                     	ds	3
   728  00B7                     main@Rx_data:
   729                           
   730                           ; 10 bytes @ 0x17
   731  00B7                     	ds	10
   732  00C1                     main@Tx_data:
   733                           
   734                           ; 10 bytes @ 0x21
   735  00C1                     	ds	10
   736  00CB                     _main$1025:
   737                           
   738                           ; 2 bytes @ 0x2B
   739  00CB                     	ds	2
   740  00CD                     main@i_spi:
   741                           
   742                           ; 1 bytes @ 0x2D
   743  00CD                     	ds	1
   744  00CE                     main@Digit:
   745                           
   746                           ; 3 bytes @ 0x2E
   747  00CE                     	ds	3
   748  00D1                     main@ADC_Value:
   749                           
   750                           ; 2 bytes @ 0x31
   751  00D1                     	ds	2
   752                           
   753                           	psect	cstackCOMMON
   754  0070                     __pcstackCOMMON:
   755  0070                     ?_LCDInit:
   756  0070                     ?_InitADC:	
   757                           ; 1 bytes @ 0x0
   758                           
   759  0070                     ?_LCDWriteString:	
   760                           ; 1 bytes @ 0x0
   761                           
   762  0070                     ?_LCDBusyLoop:	
   763                           ; 1 bytes @ 0x0
   764                           
   765  0070                     ?_timer2_initialize:	
   766                           ; 1 bytes @ 0x0
   767                           
   768  0070                     ?_Count_Up:	
   769                           ; 1 bytes @ 0x0
   770                           
   771  0070                     ?_SPI_Initialize_Master:	
   772                           ; 1 bytes @ 0x0
   773                           
   774  0070                     ?_SPI_Write:	
   775                           ; 1 bytes @ 0x0
   776                           
   777  0070                     ?_SPI_Read:	
   778                           ; 1 bytes @ 0x0
   779                           
   780  0070                     ?_ReadADC:	
   781                           ; 1 bytes @ 0x0
   782                           
   783  0070                     ?__Umul8_16:	
   784                           ; 2 bytes @ 0x0
   785                           
   786  0070                     ?___fldiv:	
   787                           ; 2 bytes @ 0x0
   788                           
   789  0070                     __Umul8_16@multiplicand:	
   790                           ; 4 bytes @ 0x0
   791                           
   792  0070                     ___fldiv@a:	
   793                           ; 1 bytes @ 0x0
   794                           
   795                           
   796                           ; 4 bytes @ 0x0
   797  0070                     	ds	2
   798  0072                     ??_ReadADC:
   799  0072                     ??__Umul8_16:	
   800                           ; 1 bytes @ 0x2
   801                           
   802                           
   803                           ; 1 bytes @ 0x2
   804  0072                     	ds	2
   805  0074                     ReadADC@Channel:
   806  0074                     __Umul8_16@product:	
   807                           ; 1 bytes @ 0x4
   808                           
   809  0074                     ___fldiv@b:	
   810                           ; 2 bytes @ 0x4
   811                           
   812                           
   813                           ; 4 bytes @ 0x4
   814  0074                     	ds	1
   815  0075                     ReadADC@ADC_value:
   816                           
   817                           ; 2 bytes @ 0x5
   818  0075                     	ds	1
   819  0076                     __Umul8_16@word_mpld:
   820                           
   821                           ; 2 bytes @ 0x6
   822  0076                     	ds	1
   823  0077                     ReadADC@i:
   824                           
   825                           ; 2 bytes @ 0x7
   826  0077                     	ds	1
   827  0078                     ??___fldiv:
   828  0078                     __Umul8_16@multiplier:	
   829                           ; 1 bytes @ 0x8
   830                           
   831                           
   832                           ; 1 bytes @ 0x8
   833  0078                     	ds	1
   834  0079                     ??___flmul:
   835  0079                     ?___xxtofl:	
   836                           ; 1 bytes @ 0x9
   837                           
   838  0079                     ___xxtofl@val:	
   839                           ; 4 bytes @ 0x9
   840                           
   841                           
   842                           ; 4 bytes @ 0x9
   843  0079                     	ds	5
   844                           
   845                           	psect	cstackBANK0
   846  0020                     __pcstackBANK0:
   847  0020                     ??___xxtofl:
   848  0020                     ?___flmul:	
   849                           ; 1 bytes @ 0x0
   850                           
   851  0020                     ___fldiv@rem:	
   852                           ; 4 bytes @ 0x0
   853                           
   854  0020                     ___flmul@b:	
   855                           ; 4 bytes @ 0x0
   856                           
   857                           
   858                           ; 4 bytes @ 0x0
   859  0020                     	ds	4
   860  0024                     ___fldiv@sign:
   861  0024                     ___xxtofl@sign:	
   862                           ; 1 bytes @ 0x4
   863                           
   864  0024                     ___flmul@a:	
   865                           ; 1 bytes @ 0x4
   866                           
   867                           
   868                           ; 4 bytes @ 0x4
   869  0024                     	ds	1
   870  0025                     ___xxtofl@exp:
   871  0025                     ___fldiv@new_exp:	
   872                           ; 1 bytes @ 0x5
   873                           
   874                           
   875                           ; 2 bytes @ 0x5
   876  0025                     	ds	1
   877  0026                     ___xxtofl@arg:
   878                           
   879                           ; 4 bytes @ 0x6
   880  0026                     	ds	1
   881  0027                     ___fldiv@grs:
   882                           
   883                           ; 4 bytes @ 0x7
   884  0027                     	ds	1
   885  0028                     ___flmul@sign:
   886                           
   887                           ; 1 bytes @ 0x8
   888  0028                     	ds	1
   889  0029                     ___flmul@grs:
   890                           
   891                           ; 4 bytes @ 0x9
   892  0029                     	ds	2
   893  002B                     ___fldiv@bexp:
   894                           
   895                           ; 1 bytes @ 0xB
   896  002B                     	ds	1
   897  002C                     ___fldiv@aexp:
   898                           
   899                           ; 1 bytes @ 0xC
   900  002C                     	ds	1
   901  002D                     ___flmul@aexp:
   902                           
   903                           ; 1 bytes @ 0xD
   904  002D                     	ds	1
   905  002E                     ___flmul@bexp:
   906                           
   907                           ; 1 bytes @ 0xE
   908  002E                     	ds	1
   909  002F                     ___flmul@prod:
   910                           
   911                           ; 4 bytes @ 0xF
   912  002F                     	ds	4
   913  0033                     ___flmul@temp:
   914                           
   915                           ; 2 bytes @ 0x13
   916  0033                     	ds	2
   917  0035                     ??_Count_Up:
   918                           
   919                           ; 1 bytes @ 0x15
   920  0035                     	ds	8
   921                           
   922                           	psect	maintext
   923  0391                     __pmaintext:	
   924 ;;
   925 ;;Main: autosize = 0, tempsize = 3, incstack = 0, save=0
   926 ;;
   927 ;; *************** function _main *****************
   928 ;; Defined at:
   929 ;;		line 102 in file "Master.c"
   930 ;; Parameters:    Size  Location     Type
   931 ;;  argc            2   16[BANK1 ] int 
   932 ;;  argv            2   18[BANK1 ] PTR PTR unsigned char 
   933 ;; Auto vars:     Size  Location     Type
   934 ;;  Tx_data        10   33[BANK1 ] unsigned char [10]
   935 ;;  Rx_data        10   23[BANK1 ] unsigned char [10]
   936 ;;  Digit           3   46[BANK1 ] unsigned char [3]
   937 ;;  ADC_Value       2   49[BANK1 ] unsigned int 
   938 ;;  i_spi           1   45[BANK1 ] unsigned char 
   939 ;; Return value:  Size  Location     Type
   940 ;;                  2   16[BANK1 ] int 
   941 ;; Registers used:
   942 ;;		wreg, fsr0l, fsr0h, status,2, status,0, pclath, cstack
   943 ;; Tracked objects:
   944 ;;		On entry : B00/0
   945 ;;		On exit  : 0/0
   946 ;;		Unchanged: 0/0
   947 ;; Data sizes:     COMMON   BANK0   BANK1   BANK3   BANK2
   948 ;;      Params:         0       0       4       0       0
   949 ;;      Locals:         0       0      28       0       0
   950 ;;      Temps:          0       0       3       0       0
   951 ;;      Totals:         0       0      35       0       0
   952 ;;Total ram usage:       35 bytes
   953 ;; Hardware stack levels required when called:    6
   954 ;; This function calls:
   955 ;;		_InitADC
   956 ;;		_LCDByte
   957 ;;		_LCDGotoXY
   958 ;;		_LCDInit
   959 ;;		_LCDWriteString
   960 ;;		_SPI_Initialize_Master
   961 ;;		_SPI_Read
   962 ;;		_SPI_Write
   963 ;;		___fltol
   964 ;;		___lwdiv
   965 ;;		___lwmod
   966 ;;		_timer2_initialize
   967 ;; This function is called by:
   968 ;;		Startup code after reset
   969 ;; This function uses a non-reentrant model
   970 ;;
   971                           
   972                           
   973                           ;psect for function _main
   974  0391                     _main:
   975  0391                     l2981:	
   976                           ;incstack = 0
   977                           ; Regs used in _main: [wreg-fsr0h+status,2+status,0+pclath+cstack]
   978                           
   979                           
   980                           ;Master.c: 103: ;Master.c: 104: ;Master.c: 105:       LCDGotoXY(1,0);;Master.c: 106:  LC
      +                          DWriteString("Gia tri I= ");
   981  0391  3000               	movlw	0
   982  0392  1683               	bsf	3,5	;RP0=1, select bank1
   983  0393  1303               	bcf	3,6	;RP1=0, select bank1
   984  0394  00CE               	movwf	main@Digit^(0+128)
   985  0395  3000               	movlw	0
   986  0396  00CF               	movwf	(main@Digit+1)^(0+128)
   987  0397  3000               	movlw	0
   988  0398  00D0               	movwf	(main@Digit+2)^(0+128)
   989  0399                     l2983:
   990  0399                     l2985:
   991                           
   992                           ;Master.c: 109:  (LCDByte(Digit[1]+0x30,1));
   993  0399  120A  158A  22C5  120A  118A  	fcall	_SPI_Initialize_Master
   994  039E                     l2987:
   995                           
   996                           ;Master.c: 110:  (LCDByte(Digit[0]+0x30,1));
   997  039E  3006               	movlw	6
   998  039F  1683               	bsf	3,5	;RP0=1, select bank1
   999  03A0  1303               	bcf	3,6	;RP1=0, select bank1
  1000  03A1  009F               	movwf	31	;volatile
  1001  03A2                     l2989:
  1002                           
  1003                           ;Master.c: 111: 
  1004  03A2  3000               	movlw	0
  1005  03A3  120A  158A  24AD  120A  118A  	fcall	_LCDInit
  1006  03A8                     l2991:
  1007                           
  1008                           ;Master.c: 112: 
  1009  03A8  120A  158A  22BC  120A  118A  	fcall	_InitADC
  1010  03AD                     l2993:
  1011                           
  1012                           ;Master.c: 113: 
  1013  03AD  120A  118A  27DE  120A  118A  	fcall	_timer2_initialize
  1014  03B2                     l2995:
  1015                           
  1016                           ;Master.c: 115:   Digit[2] = (ADC_Value/100);
  1017  03B2  1683               	bsf	3,5	;RP0=1, select bank1
  1018  03B3  1303               	bcf	3,6	;RP1=0, select bank1
  1019  03B4  01A5               	clrf	LCDByte@isdata^(0+128)
  1020  03B5  3001               	movlw	1
  1021  03B6  120A  158A  2405  120A  118A  	fcall	_LCDByte
  1022  03BB                     l2997:
  1023                           
  1024                           ;Master.c: 117:   Digit[0] = (ADC_Value%100)%10;
  1025  03BB  3019               	movlw	(low ((STR_1-__stringbase)| (0+32768)))& (0+255)
  1026  03BC  120A  158A  2514  120A  118A  	fcall	_LCDWriteString
  1027  03C1                     l2999:
  1028                           
  1029                           ;Master.c: 119:      LCDGotoXY(1,1);
  1030  03C1  3002               	movlw	2
  1031  03C2  1683               	bsf	3,5	;RP0=1, select bank1
  1032  03C3  1303               	bcf	3,6	;RP1=0, select bank1
  1033  03C4  00B6               	movwf	(??_main^(0+128)+2)
  1034  03C5  3004               	movlw	4
  1035  03C6  00B5               	movwf	(??_main^(0+128)+1)
  1036  03C7  30B9               	movlw	185
  1037  03C8  00B4               	movwf	??_main^(0+128)
  1038  03C9                     u3417:
  1039  03C9  0BB4               	decfsz	??_main^(0+128),f
  1040  03CA  2BC9               	goto	u3417
  1041  03CB  0BB5               	decfsz	(??_main^(0+128)+1),f
  1042  03CC  2BC9               	goto	u3417
  1043  03CD  0BB6               	decfsz	(??_main^(0+128)+2),f
  1044  03CE  2BC9               	goto	u3417
  1045  03CF  2BD0               	nop2
  1046  03D0                     l3001:
  1047                           
  1048                           ;Master.c: 120:  LCDWriteString("Gia tri U= ");
  1049  03D0  1683               	bsf	3,5	;RP0=1, select bank1
  1050  03D1  1303               	bcf	3,6	;RP1=0, select bank1
  1051  03D2  01A5               	clrf	LCDByte@isdata^(0+128)
  1052  03D3  3001               	movlw	1
  1053  03D4  120A  158A  2405  120A  118A  	fcall	_LCDByte
  1054  03D9                     l3003:
  1055                           
  1056                           ;Master.c: 122:  (LCDByte('.',1));
  1057  03D9  300A               	movlw	10
  1058  03DA  1683               	bsf	3,5	;RP0=1, select bank1
  1059  03DB  1303               	bcf	3,6	;RP1=0, select bank1
  1060  03DC  00B4               	movwf	??_main^(0+128)
  1061  03DD  0834               	movf	??_main^(0+128),w
  1062  03DE  00C1               	movwf	main@Tx_data^(0+128)
  1063  03DF                     l3005:
  1064                           
  1065                           ;Master.c: 123:  (LCDByte(Digit[1]+0x30,1));
  1066  03DF  300F               	movlw	15
  1067  03E0  00B4               	movwf	??_main^(0+128)
  1068  03E1  0834               	movf	??_main^(0+128),w
  1069  03E2  00C2               	movwf	(main@Tx_data^(0+128)+1)
  1070  03E3                     l3007:
  1071                           
  1072                           ;Master.c: 124:  (LCDByte(Digit[0]+0x30,1));
  1073  03E3  3015               	movlw	21
  1074  03E4  00B4               	movwf	??_main^(0+128)
  1075  03E5  0834               	movf	??_main^(0+128),w
  1076  03E6  00C3               	movwf	(main@Tx_data^(0+128)+2)
  1077  03E7                     l3009:
  1078                           
  1079                           ;Master.c: 125:      }
  1080  03E7  1283               	bcf	3,5	;RP0=0, select bank0
  1081  03E8  1303               	bcf	3,6	;RP1=0, select bank0
  1082  03E9  1388               	bcf	8,7	;volatile
  1083  03EA                     l3011:
  1084                           
  1085                           ;Master.c: 127:     return (0);
  1086  03EA  1283               	bcf	3,5	;RP0=0, select bank0
  1087  03EB  1303               	bcf	3,6	;RP1=0, select bank0
  1088  03EC  0855               	movf	_adc_ok,w
  1089  03ED  1903               	btfsc	3,2
  1090  03EE  2BF0               	goto	u3321
  1091  03EF  2BF1               	goto	u3320
  1092  03F0                     u3321:
  1093  03F0  2BEA               	goto	l3011
  1094  03F1                     u3320:
  1095  03F1                     l3013:
  1096  03F1  3000               	movlw	0
  1097  03F2  0250               	subwf	_count1+1,w
  1098  03F3  3032               	movlw	50
  1099  03F4  1903               	skipnz
  1100  03F5  024F               	subwf	_count1,w
  1101  03F6  1C03               	skipc
  1102  03F7  2BF9               	goto	u3331
  1103  03F8  2BFA               	goto	u3330
  1104  03F9                     u3331:
  1105  03F9  2BEA               	goto	l3011
  1106  03FA                     u3330:
  1107  03FA                     l3015:
  1108  03FA  01CF               	clrf	_count1
  1109  03FB  01D0               	clrf	_count1+1
  1110  03FC                     l3017:
  1111  03FC  1683               	bsf	3,5	;RP0=1, select bank1
  1112  03FD  1303               	bcf	3,6	;RP1=0, select bank1
  1113  03FE  084D               	movf	main@i_spi^(0+128),w
  1114  03FF  3EC1               	addlw	(low (main@Tx_data| 0))& (0+255)
  1115  0400  0084               	movwf	4
  1116  0401  1383               	bcf	3,7	;select IRP bank1
  1117  0402  0800               	movf	0,w
  1118  0403  120A  158A  22AC  120A  118A  	fcall	_SPI_Write
  1119  0408                     l3019:
  1120  0408  120A  118A  27F3  120A  118A  	fcall	_SPI_Read
  1121  040D  1683               	bsf	3,5	;RP0=1, select bank1
  1122  040E  1303               	bcf	3,6	;RP1=0, select bank1
  1123  040F  00B4               	movwf	??_main^(0+128)
  1124  0410  0834               	movf	??_main^(0+128),w
  1125  0411  00B7               	movwf	main@Rx_data^(0+128)
  1126  0412                     l3021:
  1127  0412  3001               	movlw	1
  1128  0413  00B4               	movwf	??_main^(0+128)
  1129  0414  0834               	movf	??_main^(0+128),w
  1130  0415  07CD               	addwf	main@i_spi^(0+128),f
  1131  0416                     l3023:
  1132  0416  3003               	movlw	3
  1133  0417  064D               	xorwf	main@i_spi^(0+128),w
  1134  0418  1D03               	btfss	3,2
  1135  0419  2C1B               	goto	u3341
  1136  041A  2C1C               	goto	u3340
  1137  041B                     u3341:
  1138  041B  2C1D               	goto	l3027
  1139  041C                     u3340:
  1140  041C                     l3025:
  1141  041C  01CD               	clrf	main@i_spi^(0+128)
  1142  041D                     l3027:
  1143  041D  1283               	bcf	3,5	;RP0=0, select bank0
  1144  041E  1303               	bcf	3,6	;RP1=0, select bank0
  1145  041F  0849               	movf	_Dong+3,w
  1146  0420  1683               	bsf	3,5	;RP0=1, select bank1
  1147  0421  1303               	bcf	3,6	;RP1=0, select bank1
  1148  0422  00A3               	movwf	(___fltol@f1+3)^(0+128)
  1149  0423  1283               	bcf	3,5	;RP0=0, select bank0
  1150  0424  1303               	bcf	3,6	;RP1=0, select bank0
  1151  0425  0848               	movf	_Dong+2,w
  1152  0426  1683               	bsf	3,5	;RP0=1, select bank1
  1153  0427  1303               	bcf	3,6	;RP1=0, select bank1
  1154  0428  00A2               	movwf	(___fltol@f1+2)^(0+128)
  1155  0429  1283               	bcf	3,5	;RP0=0, select bank0
  1156  042A  1303               	bcf	3,6	;RP1=0, select bank0
  1157  042B  0847               	movf	_Dong+1,w
  1158  042C  1683               	bsf	3,5	;RP0=1, select bank1
  1159  042D  1303               	bcf	3,6	;RP1=0, select bank1
  1160  042E  00A1               	movwf	(___fltol@f1+1)^(0+128)
  1161  042F  1283               	bcf	3,5	;RP0=0, select bank0
  1162  0430  1303               	bcf	3,6	;RP1=0, select bank0
  1163  0431  0846               	movf	_Dong,w
  1164  0432  1683               	bsf	3,5	;RP0=1, select bank1
  1165  0433  1303               	bcf	3,6	;RP1=0, select bank1
  1166  0434  00A0               	movwf	___fltol@f1^(0+128)
  1167  0435  120A  118A  2762  120A  118A  	fcall	___fltol
  1168  043A  1683               	bsf	3,5	;RP0=1, select bank1
  1169  043B  1303               	bcf	3,6	;RP1=0, select bank1
  1170  043C  0821               	movf	(?___fltol+1)^(0+128),w
  1171  043D  00D2               	movwf	(main@ADC_Value+1)^(0+128)
  1172  043E  0820               	movf	?___fltol^(0+128),w
  1173  043F  00D1               	movwf	main@ADC_Value^(0+128)
  1174  0440                     l3029:
  1175  0440  0837               	movf	main@Rx_data^(0+128),w
  1176  0441  00B4               	movwf	??_main^(0+128)
  1177  0442  0834               	movf	??_main^(0+128),w
  1178  0443  00D0               	movwf	(main@Digit^(0+128)+2)
  1179  0444                     l3031:
  1180  0444  300A               	movlw	10
  1181  0445  00A6               	movwf	___lwdiv@divisor^(0+128)
  1182  0446  3000               	movlw	0
  1183  0447  00A7               	movwf	(___lwdiv@divisor^(0+128)+1)
  1184  0448  0852               	movf	(main@ADC_Value+1)^(0+128),w
  1185  0449  00A3               	movwf	(___lwmod@dividend+1)^(0+128)
  1186  044A  0851               	movf	main@ADC_Value^(0+128),w
  1187  044B  00A2               	movwf	___lwmod@dividend^(0+128)
  1188  044C  3064               	movlw	100
  1189  044D  00A0               	movwf	___lwmod@divisor^(0+128)
  1190  044E  3000               	movlw	0
  1191  044F  00A1               	movwf	(___lwmod@divisor^(0+128)+1)
  1192  0450  120A  158A  2343  120A  118A  	fcall	___lwmod
  1193  0455  1683               	bsf	3,5	;RP0=1, select bank1
  1194  0456  1303               	bcf	3,6	;RP1=0, select bank1
  1195  0457  0821               	movf	(?___lwmod+1)^(0+128),w
  1196  0458  00A9               	movwf	(___lwdiv@dividend+1)^(0+128)
  1197  0459  0820               	movf	?___lwmod^(0+128),w
  1198  045A  00A8               	movwf	___lwdiv@dividend^(0+128)
  1199  045B  120A  158A  23BF  120A  118A  	fcall	___lwdiv
  1200  0460  1683               	bsf	3,5	;RP0=1, select bank1
  1201  0461  1303               	bcf	3,6	;RP1=0, select bank1
  1202  0462  0826               	movf	?___lwdiv^(0+128),w
  1203  0463  00B4               	movwf	??_main^(0+128)
  1204  0464  0834               	movf	??_main^(0+128),w
  1205  0465  00CF               	movwf	(main@Digit^(0+128)+1)
  1206  0466                     l3033:
  1207  0466  0852               	movf	(main@ADC_Value+1)^(0+128),w
  1208  0467  00A3               	movwf	(___lwmod@dividend+1)^(0+128)
  1209  0468  0851               	movf	main@ADC_Value^(0+128),w
  1210  0469  00A2               	movwf	___lwmod@dividend^(0+128)
  1211  046A  3064               	movlw	100
  1212  046B  00A0               	movwf	___lwmod@divisor^(0+128)
  1213  046C  3000               	movlw	0
  1214  046D  00A1               	movwf	(___lwmod@divisor^(0+128)+1)
  1215  046E  120A  158A  2343  120A  118A  	fcall	___lwmod
  1216  0473  1683               	bsf	3,5	;RP0=1, select bank1
  1217  0474  1303               	bcf	3,6	;RP1=0, select bank1
  1218  0475  0821               	movf	(?___lwmod+1)^(0+128),w
  1219  0476  00CC               	movwf	(_main$1025+1)^(0+128)
  1220  0477  0820               	movf	?___lwmod^(0+128),w
  1221  0478  00CB               	movwf	_main$1025^(0+128)
  1222  0479                     l3035:
  1223  0479  300A               	movlw	10
  1224  047A  00A0               	movwf	___lwmod@divisor^(0+128)
  1225  047B  3000               	movlw	0
  1226  047C  00A1               	movwf	(___lwmod@divisor^(0+128)+1)
  1227  047D  084C               	movf	(_main$1025+1)^(0+128),w
  1228  047E  00A3               	movwf	(___lwmod@dividend+1)^(0+128)
  1229  047F  084B               	movf	_main$1025^(0+128),w
  1230  0480  00A2               	movwf	___lwmod@dividend^(0+128)
  1231  0481  120A  158A  2343  120A  118A  	fcall	___lwmod
  1232  0486  1683               	bsf	3,5	;RP0=1, select bank1
  1233  0487  1303               	bcf	3,6	;RP1=0, select bank1
  1234  0488  0820               	movf	?___lwmod^(0+128),w
  1235  0489  00B4               	movwf	??_main^(0+128)
  1236  048A  0834               	movf	??_main^(0+128),w
  1237  048B  00CE               	movwf	main@Digit^(0+128)
  1238  048C                     l3037:
  1239  048C  01AC               	clrf	LCDGotoXY@y^(0+128)
  1240  048D  3001               	movlw	1
  1241  048E  120A  158A  230E  120A  118A  	fcall	_LCDGotoXY
  1242  0493                     l3039:
  1243  0493  3001               	movlw	(low ((STR_2-__stringbase)| (0+32768)))& (0+255)
  1244  0494  120A  158A  2514  120A  118A  	fcall	_LCDWriteString
  1245  0499                     l3041:
  1246  0499  1683               	bsf	3,5	;RP0=1, select bank1
  1247  049A  1303               	bcf	3,6	;RP1=0, select bank1
  1248  049B  01A5               	clrf	LCDByte@isdata^(0+128)
  1249  049C  0AA5               	incf	LCDByte@isdata^(0+128),f
  1250  049D  0850               	movf	(main@Digit^(0+128)+2),w
  1251  049E  3E30               	addlw	48
  1252  049F  120A  158A  2405  120A  118A  	fcall	_LCDByte
  1253  04A4                     l3043:
  1254  04A4  1683               	bsf	3,5	;RP0=1, select bank1
  1255  04A5  1303               	bcf	3,6	;RP1=0, select bank1
  1256  04A6  01A5               	clrf	LCDByte@isdata^(0+128)
  1257  04A7  0AA5               	incf	LCDByte@isdata^(0+128),f
  1258  04A8  302E               	movlw	46
  1259  04A9  120A  158A  2405  120A  118A  	fcall	_LCDByte
  1260  04AE                     l3045:
  1261  04AE  1683               	bsf	3,5	;RP0=1, select bank1
  1262  04AF  1303               	bcf	3,6	;RP1=0, select bank1
  1263  04B0  01A5               	clrf	LCDByte@isdata^(0+128)
  1264  04B1  0AA5               	incf	LCDByte@isdata^(0+128),f
  1265  04B2  084F               	movf	(main@Digit^(0+128)+1),w
  1266  04B3  3E30               	addlw	48
  1267  04B4  120A  158A  2405  120A  118A  	fcall	_LCDByte
  1268  04B9                     l3047:
  1269  04B9  1683               	bsf	3,5	;RP0=1, select bank1
  1270  04BA  1303               	bcf	3,6	;RP1=0, select bank1
  1271  04BB  01A5               	clrf	LCDByte@isdata^(0+128)
  1272  04BC  0AA5               	incf	LCDByte@isdata^(0+128),f
  1273  04BD  084E               	movf	main@Digit^(0+128),w
  1274  04BE  3E30               	addlw	48
  1275  04BF  120A  158A  2405  120A  118A  	fcall	_LCDByte
  1276  04C4                     l3049:
  1277  04C4  1283               	bcf	3,5	;RP0=0, select bank0
  1278  04C5  1303               	bcf	3,6	;RP1=0, select bank0
  1279  04C6  0845               	movf	_Dienap+3,w
  1280  04C7  1683               	bsf	3,5	;RP0=1, select bank1
  1281  04C8  1303               	bcf	3,6	;RP1=0, select bank1
  1282  04C9  00A3               	movwf	(___fltol@f1+3)^(0+128)
  1283  04CA  1283               	bcf	3,5	;RP0=0, select bank0
  1284  04CB  1303               	bcf	3,6	;RP1=0, select bank0
  1285  04CC  0844               	movf	_Dienap+2,w
  1286  04CD  1683               	bsf	3,5	;RP0=1, select bank1
  1287  04CE  1303               	bcf	3,6	;RP1=0, select bank1
  1288  04CF  00A2               	movwf	(___fltol@f1+2)^(0+128)
  1289  04D0  1283               	bcf	3,5	;RP0=0, select bank0
  1290  04D1  1303               	bcf	3,6	;RP1=0, select bank0
  1291  04D2  0843               	movf	_Dienap+1,w
  1292  04D3  1683               	bsf	3,5	;RP0=1, select bank1
  1293  04D4  1303               	bcf	3,6	;RP1=0, select bank1
  1294  04D5  00A1               	movwf	(___fltol@f1+1)^(0+128)
  1295  04D6  1283               	bcf	3,5	;RP0=0, select bank0
  1296  04D7  1303               	bcf	3,6	;RP1=0, select bank0
  1297  04D8  0842               	movf	_Dienap,w
  1298  04D9  1683               	bsf	3,5	;RP0=1, select bank1
  1299  04DA  1303               	bcf	3,6	;RP1=0, select bank1
  1300  04DB  00A0               	movwf	___fltol@f1^(0+128)
  1301  04DC  120A  118A  2762  120A  118A  	fcall	___fltol
  1302  04E1  1683               	bsf	3,5	;RP0=1, select bank1
  1303  04E2  1303               	bcf	3,6	;RP1=0, select bank1
  1304  04E3  0821               	movf	(?___fltol+1)^(0+128),w
  1305  04E4  00D2               	movwf	(main@ADC_Value+1)^(0+128)
  1306  04E5  0820               	movf	?___fltol^(0+128),w
  1307  04E6  00D1               	movwf	main@ADC_Value^(0+128)
  1308  04E7                     l3051:
  1309  04E7  3064               	movlw	100
  1310  04E8  00A6               	movwf	___lwdiv@divisor^(0+128)
  1311  04E9  3000               	movlw	0
  1312  04EA  00A7               	movwf	(___lwdiv@divisor^(0+128)+1)
  1313  04EB  0852               	movf	(main@ADC_Value+1)^(0+128),w
  1314  04EC  00A9               	movwf	(___lwdiv@dividend+1)^(0+128)
  1315  04ED  0851               	movf	main@ADC_Value^(0+128),w
  1316  04EE  00A8               	movwf	___lwdiv@dividend^(0+128)
  1317  04EF  120A  158A  23BF  120A  118A  	fcall	___lwdiv
  1318  04F4  1683               	bsf	3,5	;RP0=1, select bank1
  1319  04F5  1303               	bcf	3,6	;RP1=0, select bank1
  1320  04F6  0826               	movf	?___lwdiv^(0+128),w
  1321  04F7  00B4               	movwf	??_main^(0+128)
  1322  04F8  0834               	movf	??_main^(0+128),w
  1323  04F9  00D0               	movwf	(main@Digit^(0+128)+2)
  1324  04FA                     l3053:
  1325  04FA  300A               	movlw	10
  1326  04FB  00A6               	movwf	___lwdiv@divisor^(0+128)
  1327  04FC  3000               	movlw	0
  1328  04FD  00A7               	movwf	(___lwdiv@divisor^(0+128)+1)
  1329  04FE  0852               	movf	(main@ADC_Value+1)^(0+128),w
  1330  04FF  00A3               	movwf	(___lwmod@dividend+1)^(0+128)
  1331  0500  0851               	movf	main@ADC_Value^(0+128),w
  1332  0501  00A2               	movwf	___lwmod@dividend^(0+128)
  1333  0502  3064               	movlw	100
  1334  0503  00A0               	movwf	___lwmod@divisor^(0+128)
  1335  0504  3000               	movlw	0
  1336  0505  00A1               	movwf	(___lwmod@divisor^(0+128)+1)
  1337  0506  120A  158A  2343  120A  118A  	fcall	___lwmod
  1338  050B  1683               	bsf	3,5	;RP0=1, select bank1
  1339  050C  1303               	bcf	3,6	;RP1=0, select bank1
  1340  050D  0821               	movf	(?___lwmod+1)^(0+128),w
  1341  050E  00A9               	movwf	(___lwdiv@dividend+1)^(0+128)
  1342  050F  0820               	movf	?___lwmod^(0+128),w
  1343  0510  00A8               	movwf	___lwdiv@dividend^(0+128)
  1344  0511  120A  158A  23BF  120A  118A  	fcall	___lwdiv
  1345  0516  1683               	bsf	3,5	;RP0=1, select bank1
  1346  0517  1303               	bcf	3,6	;RP1=0, select bank1
  1347  0518  0826               	movf	?___lwdiv^(0+128),w
  1348  0519  00B4               	movwf	??_main^(0+128)
  1349  051A  0834               	movf	??_main^(0+128),w
  1350  051B  00CF               	movwf	(main@Digit^(0+128)+1)
  1351  051C                     l3055:
  1352  051C  0852               	movf	(main@ADC_Value+1)^(0+128),w
  1353  051D  00A3               	movwf	(___lwmod@dividend+1)^(0+128)
  1354  051E  0851               	movf	main@ADC_Value^(0+128),w
  1355  051F  00A2               	movwf	___lwmod@dividend^(0+128)
  1356  0520  3064               	movlw	100
  1357  0521  00A0               	movwf	___lwmod@divisor^(0+128)
  1358  0522  3000               	movlw	0
  1359  0523  00A1               	movwf	(___lwmod@divisor^(0+128)+1)
  1360  0524  120A  158A  2343  120A  118A  	fcall	___lwmod
  1361  0529  1683               	bsf	3,5	;RP0=1, select bank1
  1362  052A  1303               	bcf	3,6	;RP1=0, select bank1
  1363  052B  0821               	movf	(?___lwmod+1)^(0+128),w
  1364  052C  00CC               	movwf	(_main$1025+1)^(0+128)
  1365  052D  0820               	movf	?___lwmod^(0+128),w
  1366  052E  00CB               	movwf	_main$1025^(0+128)
  1367  052F                     l3057:
  1368  052F  300A               	movlw	10
  1369  0530  00A0               	movwf	___lwmod@divisor^(0+128)
  1370  0531  3000               	movlw	0
  1371  0532  00A1               	movwf	(___lwmod@divisor^(0+128)+1)
  1372  0533  084C               	movf	(_main$1025+1)^(0+128),w
  1373  0534  00A3               	movwf	(___lwmod@dividend+1)^(0+128)
  1374  0535  084B               	movf	_main$1025^(0+128),w
  1375  0536  00A2               	movwf	___lwmod@dividend^(0+128)
  1376  0537  120A  158A  2343  120A  118A  	fcall	___lwmod
  1377  053C  1683               	bsf	3,5	;RP0=1, select bank1
  1378  053D  1303               	bcf	3,6	;RP1=0, select bank1
  1379  053E  0820               	movf	?___lwmod^(0+128),w
  1380  053F  00B4               	movwf	??_main^(0+128)
  1381  0540  0834               	movf	??_main^(0+128),w
  1382  0541  00CE               	movwf	main@Digit^(0+128)
  1383  0542                     l3059:
  1384  0542  01AC               	clrf	LCDGotoXY@y^(0+128)
  1385  0543  0AAC               	incf	LCDGotoXY@y^(0+128),f
  1386  0544  3001               	movlw	1
  1387  0545  120A  158A  230E  120A  118A  	fcall	_LCDGotoXY
  1388  054A                     l3061:
  1389  054A  300D               	movlw	(low ((STR_3-__stringbase)| (0+32768)))& (0+255)
  1390  054B  120A  158A  2514  120A  118A  	fcall	_LCDWriteString
  1391  0550                     l3063:
  1392  0550  1683               	bsf	3,5	;RP0=1, select bank1
  1393  0551  1303               	bcf	3,6	;RP1=0, select bank1
  1394  0552  01A5               	clrf	LCDByte@isdata^(0+128)
  1395  0553  0AA5               	incf	LCDByte@isdata^(0+128),f
  1396  0554  0850               	movf	(main@Digit^(0+128)+2),w
  1397  0555  3E30               	addlw	48
  1398  0556  120A  158A  2405  120A  118A  	fcall	_LCDByte
  1399  055B                     l3065:
  1400  055B  1683               	bsf	3,5	;RP0=1, select bank1
  1401  055C  1303               	bcf	3,6	;RP1=0, select bank1
  1402  055D  01A5               	clrf	LCDByte@isdata^(0+128)
  1403  055E  0AA5               	incf	LCDByte@isdata^(0+128),f
  1404  055F  302E               	movlw	46
  1405  0560  120A  158A  2405  120A  118A  	fcall	_LCDByte
  1406  0565                     l3067:
  1407  0565  1683               	bsf	3,5	;RP0=1, select bank1
  1408  0566  1303               	bcf	3,6	;RP1=0, select bank1
  1409  0567  01A5               	clrf	LCDByte@isdata^(0+128)
  1410  0568  0AA5               	incf	LCDByte@isdata^(0+128),f
  1411  0569  084F               	movf	(main@Digit^(0+128)+1),w
  1412  056A  3E30               	addlw	48
  1413  056B  120A  158A  2405  120A  118A  	fcall	_LCDByte
  1414  0570                     l3069:
  1415  0570  1683               	bsf	3,5	;RP0=1, select bank1
  1416  0571  1303               	bcf	3,6	;RP1=0, select bank1
  1417  0572  01A5               	clrf	LCDByte@isdata^(0+128)
  1418  0573  0AA5               	incf	LCDByte@isdata^(0+128),f
  1419  0574  084E               	movf	main@Digit^(0+128),w
  1420  0575  3E30               	addlw	48
  1421  0576  120A  158A  2405  120A  118A  	fcall	_LCDByte
  1422  057B  2BEA               	goto	l3011
  1423  057C  120A  118A  2812   	ljmp	start
  1424  057F                     __end_of_main:
  1425                           
  1426                           	psect	text1
  1427  07DE                     __ptext1:	
  1428 ;; *************** function _timer2_initialize *****************
  1429 ;; Defined at:
  1430 ;;		line 39 in file "Master.c"
  1431 ;; Parameters:    Size  Location     Type
  1432 ;;		None
  1433 ;; Auto vars:     Size  Location     Type
  1434 ;;		None
  1435 ;; Return value:  Size  Location     Type
  1436 ;;                  1    wreg      void 
  1437 ;; Registers used:
  1438 ;;		wreg
  1439 ;; Tracked objects:
  1440 ;;		On entry : 0/0
  1441 ;;		On exit  : 0/0
  1442 ;;		Unchanged: 0/0
  1443 ;; Data sizes:     COMMON   BANK0   BANK1   BANK3   BANK2
  1444 ;;      Params:         0       0       0       0       0
  1445 ;;      Locals:         0       0       0       0       0
  1446 ;;      Temps:          0       0       0       0       0
  1447 ;;      Totals:         0       0       0       0       0
  1448 ;;Total ram usage:        0 bytes
  1449 ;; Hardware stack levels used:    1
  1450 ;; Hardware stack levels required when called:    3
  1451 ;; This function calls:
  1452 ;;		Nothing
  1453 ;; This function is called by:
  1454 ;;		_main
  1455 ;; This function uses a non-reentrant model
  1456 ;;
  1457                           
  1458                           
  1459                           ;psect for function _timer2_initialize
  1460  07DE                     _timer2_initialize:
  1461  07DE                     l2767:	
  1462                           ;incstack = 0
  1463                           ; Regs used in _timer2_initialize: [wreg]
  1464                           
  1465                           
  1466                           ;Master.c: 41: {
  1467  07DE  1283               	bcf	3,5	;RP0=0, select bank0
  1468  07DF  1303               	bcf	3,6	;RP1=0, select bank0
  1469  07E0  1412               	bsf	18,0	;volatile
  1470                           
  1471                           ;Master.c: 42:      TRISDbits.TRISD7=0;
  1472  07E1  1092               	bcf	18,1	;volatile
  1473  07E2                     l2769:
  1474                           
  1475                           ;Master.c: 43:      TRISCbits.TRISC5=0;
  1476  07E2  3064               	movlw	100
  1477  07E3  1683               	bsf	3,5	;RP0=1, select bank1
  1478  07E4  1303               	bcf	3,6	;RP1=0, select bank1
  1479  07E5  0092               	movwf	18	;volatile
  1480  07E6                     l2771:
  1481                           
  1482                           ;Master.c: 44:      SSPSTAT = 0b10000000;
  1483  07E6  1283               	bcf	3,5	;RP0=0, select bank0
  1484  07E7  1303               	bcf	3,6	;RP1=0, select bank0
  1485  07E8  1592               	bsf	18,3	;volatile
  1486  07E9                     l2773:
  1487                           
  1488                           ;Master.c: 45:      SSPCON = 0b00100000;
  1489  07E9  1612               	bsf	18,4	;volatile
  1490  07EA                     l2775:
  1491                           
  1492                           ;Master.c: 46:      TRISCbits.TRISC3=0;
  1493  07EA  1692               	bsf	18,5	;volatile
  1494  07EB                     l2777:
  1495                           
  1496                           ;Master.c: 47:      TRISCbits.TRISC4=1;
  1497  07EB  1692               	bsf	18,5	;volatile
  1498  07EC                     l2779:
  1499                           
  1500                           ;Master.c: 48: }
  1501  07EC  1512               	bsf	18,2	;volatile
  1502  07ED                     l2781:
  1503                           
  1504                           ;Master.c: 49: 
  1505  07ED  1683               	bsf	3,5	;RP0=1, select bank1
  1506  07EE  1303               	bcf	3,6	;RP1=0, select bank1
  1507  07EF  148C               	bsf	12,1	;volatile
  1508  07F0                     l2783:
  1509                           
  1510                           ;Master.c: 50: void SPI_Write(char incoming)
  1511  07F0  170B               	bsf	11,6	;volatile
  1512  07F1                     l2785:
  1513                           
  1514                           ;Master.c: 51: {
  1515  07F1  178B               	bsf	11,7	;volatile
  1516  07F2                     l75:
  1517  07F2  0008               	return
  1518  07F3                     __end_of_timer2_initialize:
  1519                           
  1520                           	psect	text2
  1521  0B43                     __ptext2:	
  1522 ;; *************** function ___lwmod *****************
  1523 ;; Defined at:
  1524 ;;		line 5 in file "C:\Program Files\Microchip\xc8\v2.30\pic\sources\c90\common\lwmod.c"
  1525 ;; Parameters:    Size  Location     Type
  1526 ;;  divisor         2    0[BANK1 ] unsigned int 
  1527 ;;  dividend        2    2[BANK1 ] unsigned int 
  1528 ;; Auto vars:     Size  Location     Type
  1529 ;;  counter         1    5[BANK1 ] unsigned char 
  1530 ;; Return value:  Size  Location     Type
  1531 ;;                  2    0[BANK1 ] unsigned int 
  1532 ;; Registers used:
  1533 ;;		wreg, status,2, status,0
  1534 ;; Tracked objects:
  1535 ;;		On entry : 0/0
  1536 ;;		On exit  : 0/0
  1537 ;;		Unchanged: 0/0
  1538 ;; Data sizes:     COMMON   BANK0   BANK1   BANK3   BANK2
  1539 ;;      Params:         0       0       4       0       0
  1540 ;;      Locals:         0       0       1       0       0
  1541 ;;      Temps:          0       0       1       0       0
  1542 ;;      Totals:         0       0       6       0       0
  1543 ;;Total ram usage:        6 bytes
  1544 ;; Hardware stack levels used:    1
  1545 ;; Hardware stack levels required when called:    3
  1546 ;; This function calls:
  1547 ;;		Nothing
  1548 ;; This function is called by:
  1549 ;;		_main
  1550 ;; This function uses a non-reentrant model
  1551 ;;
  1552                           
  1553                           
  1554                           ;psect for function ___lwmod
  1555  0B43                     ___lwmod:
  1556  0B43                     l2959:	
  1557                           ;incstack = 0
  1558                           ; Regs used in ___lwmod: [wreg+status,2+status,0]
  1559                           
  1560  0B43  1683               	bsf	3,5	;RP0=1, select bank1
  1561  0B44  1303               	bcf	3,6	;RP1=0, select bank1
  1562  0B45  0820               	movf	___lwmod@divisor^(0+128),w
  1563  0B46  0421               	iorwf	(___lwmod@divisor+1)^(0+128),w
  1564  0B47  1903               	btfsc	3,2
  1565  0B48  2B4A               	goto	u3261
  1566  0B49  2B4B               	goto	u3260
  1567  0B4A                     u3261:
  1568  0B4A  2B7A               	goto	l2977
  1569  0B4B                     u3260:
  1570  0B4B                     l2961:
  1571  0B4B  01A5               	clrf	___lwmod@counter^(0+128)
  1572  0B4C  0AA5               	incf	___lwmod@counter^(0+128),f
  1573  0B4D  2B59               	goto	l2967
  1574  0B4E                     l2963:
  1575  0B4E  3001               	movlw	1
  1576  0B4F                     u3275:
  1577  0B4F  1003               	clrc
  1578  0B50  0DA0               	rlf	___lwmod@divisor^(0+128),f
  1579  0B51  0DA1               	rlf	(___lwmod@divisor+1)^(0+128),f
  1580  0B52  3EFF               	addlw	-1
  1581  0B53  1D03               	skipz
  1582  0B54  2B4F               	goto	u3275
  1583  0B55                     l2965:
  1584  0B55  3001               	movlw	1
  1585  0B56  00A4               	movwf	??___lwmod^(0+128)
  1586  0B57  0824               	movf	??___lwmod^(0+128),w
  1587  0B58  07A5               	addwf	___lwmod@counter^(0+128),f
  1588  0B59                     l2967:
  1589  0B59  1FA1               	btfss	(___lwmod@divisor+1)^(0+128),7
  1590  0B5A  2B5C               	goto	u3281
  1591  0B5B  2B5D               	goto	u3280
  1592  0B5C                     u3281:
  1593  0B5C  2B4E               	goto	l2963
  1594  0B5D                     u3280:
  1595  0B5D                     l2969:
  1596  0B5D  0821               	movf	(___lwmod@divisor+1)^(0+128),w
  1597  0B5E  0223               	subwf	(___lwmod@dividend+1)^(0+128),w
  1598  0B5F  1D03               	skipz
  1599  0B60  2B63               	goto	u3295
  1600  0B61  0820               	movf	___lwmod@divisor^(0+128),w
  1601  0B62  0222               	subwf	___lwmod@dividend^(0+128),w
  1602  0B63                     u3295:
  1603  0B63  1C03               	skipc
  1604  0B64  2B66               	goto	u3291
  1605  0B65  2B67               	goto	u3290
  1606  0B66                     u3291:
  1607  0B66  2B6D               	goto	l2973
  1608  0B67                     u3290:
  1609  0B67                     l2971:
  1610  0B67  0820               	movf	___lwmod@divisor^(0+128),w
  1611  0B68  02A2               	subwf	___lwmod@dividend^(0+128),f
  1612  0B69  0821               	movf	(___lwmod@divisor+1)^(0+128),w
  1613  0B6A  1C03               	skipc
  1614  0B6B  03A3               	decf	(___lwmod@dividend+1)^(0+128),f
  1615  0B6C  02A3               	subwf	(___lwmod@dividend+1)^(0+128),f
  1616  0B6D                     l2973:
  1617  0B6D  3001               	movlw	1
  1618  0B6E                     u3305:
  1619  0B6E  1003               	clrc
  1620  0B6F  0CA1               	rrf	(___lwmod@divisor+1)^(0+128),f
  1621  0B70  0CA0               	rrf	___lwmod@divisor^(0+128),f
  1622  0B71  3EFF               	addlw	-1
  1623  0B72  1D03               	skipz
  1624  0B73  2B6E               	goto	u3305
  1625  0B74                     l2975:
  1626  0B74  3001               	movlw	1
  1627  0B75  02A5               	subwf	___lwmod@counter^(0+128),f
  1628  0B76  1D03               	btfss	3,2
  1629  0B77  2B79               	goto	u3311
  1630  0B78  2B7A               	goto	u3310
  1631  0B79                     u3311:
  1632  0B79  2B5D               	goto	l2969
  1633  0B7A                     u3310:
  1634  0B7A                     l2977:
  1635  0B7A  0823               	movf	(___lwmod@dividend+1)^(0+128),w
  1636  0B7B  00A1               	movwf	(?___lwmod+1)^(0+128)
  1637  0B7C  0822               	movf	___lwmod@dividend^(0+128),w
  1638  0B7D  00A0               	movwf	?___lwmod^(0+128)
  1639  0B7E                     l581:
  1640  0B7E  0008               	return
  1641  0B7F                     __end_of___lwmod:
  1642                           
  1643                           	psect	text3
  1644  0BBF                     __ptext3:	
  1645 ;; *************** function ___lwdiv *****************
  1646 ;; Defined at:
  1647 ;;		line 5 in file "C:\Program Files\Microchip\xc8\v2.30\pic\sources\c90\common\lwdiv.c"
  1648 ;; Parameters:    Size  Location     Type
  1649 ;;  divisor         2    6[BANK1 ] unsigned int 
  1650 ;;  dividend        2    8[BANK1 ] unsigned int 
  1651 ;; Auto vars:     Size  Location     Type
  1652 ;;  quotient        2   12[BANK1 ] unsigned int 
  1653 ;;  counter         1   11[BANK1 ] unsigned char 
  1654 ;; Return value:  Size  Location     Type
  1655 ;;                  2    6[BANK1 ] unsigned int 
  1656 ;; Registers used:
  1657 ;;		wreg, status,2, status,0
  1658 ;; Tracked objects:
  1659 ;;		On entry : 0/0
  1660 ;;		On exit  : 0/0
  1661 ;;		Unchanged: 0/0
  1662 ;; Data sizes:     COMMON   BANK0   BANK1   BANK3   BANK2
  1663 ;;      Params:         0       0       4       0       0
  1664 ;;      Locals:         0       0       3       0       0
  1665 ;;      Temps:          0       0       1       0       0
  1666 ;;      Totals:         0       0       8       0       0
  1667 ;;Total ram usage:        8 bytes
  1668 ;; Hardware stack levels used:    1
  1669 ;; Hardware stack levels required when called:    3
  1670 ;; This function calls:
  1671 ;;		Nothing
  1672 ;; This function is called by:
  1673 ;;		_main
  1674 ;; This function uses a non-reentrant model
  1675 ;;
  1676                           
  1677                           
  1678                           ;psect for function ___lwdiv
  1679  0BBF                     ___lwdiv:
  1680  0BBF                     l2933:	
  1681                           ;incstack = 0
  1682                           ; Regs used in ___lwdiv: [wreg+status,2+status,0]
  1683                           
  1684  0BBF  1683               	bsf	3,5	;RP0=1, select bank1
  1685  0BC0  1303               	bcf	3,6	;RP1=0, select bank1
  1686  0BC1  01AC               	clrf	___lwdiv@quotient^(0+128)
  1687  0BC2  01AD               	clrf	(___lwdiv@quotient+1)^(0+128)
  1688  0BC3                     l2935:
  1689  0BC3  0826               	movf	___lwdiv@divisor^(0+128),w
  1690  0BC4  0427               	iorwf	(___lwdiv@divisor+1)^(0+128),w
  1691  0BC5  1903               	btfsc	3,2
  1692  0BC6  2BC8               	goto	u3191
  1693  0BC7  2BC9               	goto	u3190
  1694  0BC8                     u3191:
  1695  0BC8  2C00               	goto	l2955
  1696  0BC9                     u3190:
  1697  0BC9                     l2937:
  1698  0BC9  01AB               	clrf	___lwdiv@counter^(0+128)
  1699  0BCA  0AAB               	incf	___lwdiv@counter^(0+128),f
  1700  0BCB  2BD7               	goto	l2943
  1701  0BCC                     l2939:
  1702  0BCC  3001               	movlw	1
  1703  0BCD                     u3205:
  1704  0BCD  1003               	clrc
  1705  0BCE  0DA6               	rlf	___lwdiv@divisor^(0+128),f
  1706  0BCF  0DA7               	rlf	(___lwdiv@divisor+1)^(0+128),f
  1707  0BD0  3EFF               	addlw	-1
  1708  0BD1  1D03               	skipz
  1709  0BD2  2BCD               	goto	u3205
  1710  0BD3                     l2941:
  1711  0BD3  3001               	movlw	1
  1712  0BD4  00AA               	movwf	??___lwdiv^(0+128)
  1713  0BD5  082A               	movf	??___lwdiv^(0+128),w
  1714  0BD6  07AB               	addwf	___lwdiv@counter^(0+128),f
  1715  0BD7                     l2943:
  1716  0BD7  1FA7               	btfss	(___lwdiv@divisor+1)^(0+128),7
  1717  0BD8  2BDA               	goto	u3211
  1718  0BD9  2BDB               	goto	u3210
  1719  0BDA                     u3211:
  1720  0BDA  2BCC               	goto	l2939
  1721  0BDB                     u3210:
  1722  0BDB                     l2945:
  1723  0BDB  3001               	movlw	1
  1724  0BDC                     u3225:
  1725  0BDC  1003               	clrc
  1726  0BDD  0DAC               	rlf	___lwdiv@quotient^(0+128),f
  1727  0BDE  0DAD               	rlf	(___lwdiv@quotient+1)^(0+128),f
  1728  0BDF  3EFF               	addlw	-1
  1729  0BE0  1D03               	skipz
  1730  0BE1  2BDC               	goto	u3225
  1731  0BE2  0827               	movf	(___lwdiv@divisor+1)^(0+128),w
  1732  0BE3  0229               	subwf	(___lwdiv@dividend+1)^(0+128),w
  1733  0BE4  1D03               	skipz
  1734  0BE5  2BE8               	goto	u3235
  1735  0BE6  0826               	movf	___lwdiv@divisor^(0+128),w
  1736  0BE7  0228               	subwf	___lwdiv@dividend^(0+128),w
  1737  0BE8                     u3235:
  1738  0BE8  1C03               	skipc
  1739  0BE9  2BEB               	goto	u3231
  1740  0BEA  2BEC               	goto	u3230
  1741  0BEB                     u3231:
  1742  0BEB  2BF3               	goto	l2951
  1743  0BEC                     u3230:
  1744  0BEC                     l2947:
  1745  0BEC  0826               	movf	___lwdiv@divisor^(0+128),w
  1746  0BED  02A8               	subwf	___lwdiv@dividend^(0+128),f
  1747  0BEE  0827               	movf	(___lwdiv@divisor+1)^(0+128),w
  1748  0BEF  1C03               	skipc
  1749  0BF0  03A9               	decf	(___lwdiv@dividend+1)^(0+128),f
  1750  0BF1  02A9               	subwf	(___lwdiv@dividend+1)^(0+128),f
  1751  0BF2                     l2949:
  1752  0BF2  142C               	bsf	___lwdiv@quotient^(0+128),0
  1753  0BF3                     l2951:
  1754  0BF3  3001               	movlw	1
  1755  0BF4                     u3245:
  1756  0BF4  1003               	clrc
  1757  0BF5  0CA7               	rrf	(___lwdiv@divisor+1)^(0+128),f
  1758  0BF6  0CA6               	rrf	___lwdiv@divisor^(0+128),f
  1759  0BF7  3EFF               	addlw	-1
  1760  0BF8  1D03               	skipz
  1761  0BF9  2BF4               	goto	u3245
  1762  0BFA                     l2953:
  1763  0BFA  3001               	movlw	1
  1764  0BFB  02AB               	subwf	___lwdiv@counter^(0+128),f
  1765  0BFC  1D03               	btfss	3,2
  1766  0BFD  2BFF               	goto	u3251
  1767  0BFE  2C00               	goto	u3250
  1768  0BFF                     u3251:
  1769  0BFF  2BDB               	goto	l2945
  1770  0C00                     u3250:
  1771  0C00                     l2955:
  1772  0C00  082D               	movf	(___lwdiv@quotient+1)^(0+128),w
  1773  0C01  00A7               	movwf	(?___lwdiv+1)^(0+128)
  1774  0C02  082C               	movf	___lwdiv@quotient^(0+128),w
  1775  0C03  00A6               	movwf	?___lwdiv^(0+128)
  1776  0C04                     l571:
  1777  0C04  0008               	return
  1778  0C05                     __end_of___lwdiv:
  1779                           
  1780                           	psect	text4
  1781  0762                     __ptext4:	
  1782 ;; *************** function ___fltol *****************
  1783 ;; Defined at:
  1784 ;;		line 43 in file "C:\Program Files\Microchip\xc8\v2.30\pic\sources\c90\common\fltol.c"
  1785 ;; Parameters:    Size  Location     Type
  1786 ;;  f1              4    0[BANK1 ] unsigned int 
  1787 ;; Auto vars:     Size  Location     Type
  1788 ;;  exp1            1   10[BANK1 ] unsigned char 
  1789 ;;  sign1           1    9[BANK1 ] unsigned char 
  1790 ;; Return value:  Size  Location     Type
  1791 ;;                  4    0[BANK1 ] long 
  1792 ;; Registers used:
  1793 ;;		wreg, status,2, status,0
  1794 ;; Tracked objects:
  1795 ;;		On entry : 0/0
  1796 ;;		On exit  : 0/0
  1797 ;;		Unchanged: 0/0
  1798 ;; Data sizes:     COMMON   BANK0   BANK1   BANK3   BANK2
  1799 ;;      Params:         0       0       4       0       0
  1800 ;;      Locals:         0       0       2       0       0
  1801 ;;      Temps:          0       0       5       0       0
  1802 ;;      Totals:         0       0      11       0       0
  1803 ;;Total ram usage:       11 bytes
  1804 ;; Hardware stack levels used:    1
  1805 ;; Hardware stack levels required when called:    3
  1806 ;; This function calls:
  1807 ;;		Nothing
  1808 ;; This function is called by:
  1809 ;;		_main
  1810 ;; This function uses a non-reentrant model
  1811 ;;
  1812                           
  1813                           
  1814                           ;psect for function ___fltol
  1815  0762                     ___fltol:
  1816  0762                     l2897:	
  1817                           ;incstack = 0
  1818                           ; Regs used in ___fltol: [wreg+status,2+status,0]
  1819                           
  1820  0762  1003               	clrc
  1821  0763  1683               	bsf	3,5	;RP0=1, select bank1
  1822  0764  1303               	bcf	3,6	;RP1=0, select bank1
  1823  0765  0D22               	rlf	(___fltol@f1+2)^(0+128),w
  1824  0766  0D23               	rlf	(___fltol@f1+3)^(0+128),w
  1825  0767  00A4               	movwf	??___fltol^(0+128)
  1826  0768  0824               	movf	??___fltol^(0+128),w
  1827  0769  00AA               	movwf	___fltol@exp1^(0+128)
  1828  076A  082A               	movf	___fltol@exp1^(0+128),w
  1829  076B  1D03               	btfss	3,2
  1830  076C  2F6E               	goto	u3091
  1831  076D  2F6F               	goto	u3090
  1832  076E                     u3091:
  1833  076E  2F78               	goto	l2903
  1834  076F                     u3090:
  1835  076F                     l2899:
  1836  076F  3000               	movlw	0
  1837  0770  00A3               	movwf	(?___fltol+3)^(0+128)
  1838  0771  3000               	movlw	0
  1839  0772  00A2               	movwf	(?___fltol+2)^(0+128)
  1840  0773  3000               	movlw	0
  1841  0774  00A1               	movwf	(?___fltol+1)^(0+128)
  1842  0775  3000               	movlw	0
  1843  0776  00A0               	movwf	?___fltol^(0+128)
  1844  0777  2FDD               	goto	l485
  1845  0778                     l2903:
  1846  0778  0820               	movf	___fltol@f1^(0+128),w
  1847  0779  00A4               	movwf	??___fltol^(0+128)
  1848  077A  0821               	movf	(___fltol@f1+1)^(0+128),w
  1849  077B  00A5               	movwf	(??___fltol^(0+128)+1)
  1850  077C  0822               	movf	(___fltol@f1+2)^(0+128),w
  1851  077D  00A6               	movwf	(??___fltol^(0+128)+2)
  1852  077E  0823               	movf	(___fltol@f1+3)^(0+128),w
  1853  077F  00A7               	movwf	(??___fltol^(0+128)+3)
  1854  0780  301F               	movlw	31
  1855  0781                     u3105:
  1856  0781  1003               	clrc
  1857  0782  0CA7               	rrf	(??___fltol^(0+128)+3),f
  1858  0783  0CA6               	rrf	(??___fltol^(0+128)+2),f
  1859  0784  0CA5               	rrf	(??___fltol^(0+128)+1),f
  1860  0785  0CA4               	rrf	??___fltol^(0+128),f
  1861  0786                     u3100:
  1862  0786  3EFF               	addlw	-1
  1863  0787  1D03               	skipz
  1864  0788  2F81               	goto	u3105
  1865  0789  0824               	movf	??___fltol^(0+128),w
  1866  078A  00A8               	movwf	(??___fltol+4)^(0+128)
  1867  078B  0828               	movf	(??___fltol+4)^(0+128),w
  1868  078C  00A9               	movwf	___fltol@sign1^(0+128)
  1869  078D                     l2905:
  1870  078D  17A2               	bsf	(___fltol@f1^(0+128)+2),7
  1871  078E                     l2907:
  1872  078E  30FF               	movlw	255
  1873  078F  05A0               	andwf	___fltol@f1^(0+128),f
  1874  0790  30FF               	movlw	255
  1875  0791  05A1               	andwf	(___fltol@f1+1)^(0+128),f
  1876  0792  30FF               	movlw	255
  1877  0793  05A2               	andwf	(___fltol@f1+2)^(0+128),f
  1878  0794  3000               	movlw	0
  1879  0795  05A3               	andwf	(___fltol@f1+3)^(0+128),f
  1880  0796                     l2909:
  1881  0796  3096               	movlw	150
  1882  0797  02AA               	subwf	___fltol@exp1^(0+128),f
  1883  0798                     l2911:
  1884  0798  1FAA               	btfss	___fltol@exp1^(0+128),7
  1885  0799  2F9B               	goto	u3111
  1886  079A  2F9C               	goto	u3110
  1887  079B                     u3111:
  1888  079B  2FB6               	goto	l2921
  1889  079C                     u3110:
  1890  079C                     l2913:
  1891  079C  082A               	movf	___fltol@exp1^(0+128),w
  1892  079D  3A80               	xorlw	128
  1893  079E  3E97               	addlw	151
  1894  079F  1803               	skipnc
  1895  07A0  2FA2               	goto	u3121
  1896  07A1  2FA3               	goto	u3120
  1897  07A2                     u3121:
  1898  07A2  2FA4               	goto	l2919
  1899  07A3                     u3120:
  1900  07A3  2F6F               	goto	l2899
  1901  07A4                     l2919:
  1902  07A4  3001               	movlw	1
  1903  07A5                     u3135:
  1904  07A5  1003               	clrc
  1905  07A6  0CA3               	rrf	(___fltol@f1+3)^(0+128),f
  1906  07A7  0CA2               	rrf	(___fltol@f1+2)^(0+128),f
  1907  07A8  0CA1               	rrf	(___fltol@f1+1)^(0+128),f
  1908  07A9  0CA0               	rrf	___fltol@f1^(0+128),f
  1909  07AA  3EFF               	addlw	-1
  1910  07AB  1D03               	skipz
  1911  07AC  2FA5               	goto	u3135
  1912  07AD  3001               	movlw	1
  1913  07AE  00A4               	movwf	??___fltol^(0+128)
  1914  07AF  0824               	movf	??___fltol^(0+128),w
  1915  07B0  07AA               	addwf	___fltol@exp1^(0+128),f
  1916  07B1  1D03               	btfss	3,2
  1917  07B2  2FB4               	goto	u3141
  1918  07B3  2FB5               	goto	u3140
  1919  07B4                     u3141:
  1920  07B4  2FA4               	goto	l2919
  1921  07B5                     u3140:
  1922  07B5  2FCD               	goto	l2929
  1923  07B6                     l2921:
  1924  07B6  3020               	movlw	32
  1925  07B7  022A               	subwf	___fltol@exp1^(0+128),w
  1926  07B8  1C03               	skipc
  1927  07B9  2FBB               	goto	u3151
  1928  07BA  2FBC               	goto	u3150
  1929  07BB                     u3151:
  1930  07BB  2FC8               	goto	l492
  1931  07BC                     u3150:
  1932  07BC  2F6F               	goto	l2899
  1933  07BD                     l2927:
  1934  07BD  3001               	movlw	1
  1935  07BE  00A4               	movwf	??___fltol^(0+128)
  1936  07BF                     u3165:
  1937  07BF  1003               	clrc
  1938  07C0  0DA0               	rlf	___fltol@f1^(0+128),f
  1939  07C1  0DA1               	rlf	(___fltol@f1+1)^(0+128),f
  1940  07C2  0DA2               	rlf	(___fltol@f1+2)^(0+128),f
  1941  07C3  0DA3               	rlf	(___fltol@f1+3)^(0+128),f
  1942  07C4  0BA4               	decfsz	??___fltol^(0+128),f
  1943  07C5  2FBF               	goto	u3165
  1944  07C6  3001               	movlw	1
  1945  07C7  02AA               	subwf	___fltol@exp1^(0+128),f
  1946  07C8                     l492:
  1947  07C8  082A               	movf	___fltol@exp1^(0+128),w
  1948  07C9  1D03               	btfss	3,2
  1949  07CA  2FCC               	goto	u3171
  1950  07CB  2FCD               	goto	u3170
  1951  07CC                     u3171:
  1952  07CC  2FBD               	goto	l2927
  1953  07CD                     u3170:
  1954  07CD                     l2929:
  1955  07CD  0829               	movf	___fltol@sign1^(0+128),w
  1956  07CE  1903               	btfsc	3,2
  1957  07CF  2FD1               	goto	u3181
  1958  07D0  2FD2               	goto	u3180
  1959  07D1                     u3181:
  1960  07D1  2FDD               	goto	l495
  1961  07D2                     u3180:
  1962  07D2                     l2931:
  1963  07D2  09A0               	comf	___fltol@f1^(0+128),f
  1964  07D3  09A1               	comf	(___fltol@f1+1)^(0+128),f
  1965  07D4  09A2               	comf	(___fltol@f1+2)^(0+128),f
  1966  07D5  09A3               	comf	(___fltol@f1+3)^(0+128),f
  1967  07D6  0AA0               	incf	___fltol@f1^(0+128),f
  1968  07D7  1903               	skipnz
  1969  07D8  0AA1               	incf	(___fltol@f1+1)^(0+128),f
  1970  07D9  1903               	skipnz
  1971  07DA  0AA2               	incf	(___fltol@f1+2)^(0+128),f
  1972  07DB  1903               	skipnz
  1973  07DC  0AA3               	incf	(___fltol@f1+3)^(0+128),f
  1974  07DD                     l495:
  1975  07DD                     l485:
  1976  07DD  0008               	return
  1977  07DE                     __end_of___fltol:
  1978                           
  1979                           	psect	text5
  1980  0AAC                     __ptext5:	
  1981 ;; *************** function _SPI_Write *****************
  1982 ;; Defined at:
  1983 ;;		line 89 in file "Master.c"
  1984 ;; Parameters:    Size  Location     Type
  1985 ;;  incoming        1    wreg     unsigned char 
  1986 ;; Auto vars:     Size  Location     Type
  1987 ;;  incoming        1    0[BANK1 ] unsigned char 
  1988 ;; Return value:  Size  Location     Type
  1989 ;;                  1    wreg      void 
  1990 ;; Registers used:
  1991 ;;		wreg
  1992 ;; Tracked objects:
  1993 ;;		On entry : 0/0
  1994 ;;		On exit  : 0/0
  1995 ;;		Unchanged: 0/0
  1996 ;; Data sizes:     COMMON   BANK0   BANK1   BANK3   BANK2
  1997 ;;      Params:         0       0       0       0       0
  1998 ;;      Locals:         0       0       1       0       0
  1999 ;;      Temps:          0       0       0       0       0
  2000 ;;      Totals:         0       0       1       0       0
  2001 ;;Total ram usage:        1 bytes
  2002 ;; Hardware stack levels used:    1
  2003 ;; Hardware stack levels required when called:    3
  2004 ;; This function calls:
  2005 ;;		Nothing
  2006 ;; This function is called by:
  2007 ;;		_main
  2008 ;; This function uses a non-reentrant model
  2009 ;;
  2010                           
  2011                           
  2012                           ;psect for function _SPI_Write
  2013  0AAC                     _SPI_Write:
  2014                           
  2015                           ;incstack = 0
  2016                           ; Regs used in _SPI_Write: [wreg]
  2017                           ;SPI_Write@incoming stored from wreg
  2018  0AAC  1683               	bsf	3,5	;RP0=1, select bank1
  2019  0AAD  1303               	bcf	3,6	;RP1=0, select bank1
  2020  0AAE  00A0               	movwf	SPI_Write@incoming^(0+128)
  2021  0AAF                     l2795:
  2022                           
  2023                           ;Master.c: 89: ;Master.c: 90:         if(adc_ok&&count1>=50);Master.c: 92:          coun
      +                          t1=0;
  2024  0AAF  0820               	movf	SPI_Write@incoming^(0+128),w
  2025  0AB0  1283               	bcf	3,5	;RP0=0, select bank0
  2026  0AB1  1303               	bcf	3,6	;RP1=0, select bank0
  2027  0AB2  0093               	movwf	19	;volatile
  2028  0AB3                     l90:
  2029  0AB3  0008               	return
  2030  0AB4                     __end_of_SPI_Write:
  2031                           
  2032                           	psect	text6
  2033  07F3                     __ptext6:	
  2034 ;; *************** function _SPI_Read *****************
  2035 ;; Defined at:
  2036 ;;		line 96 in file "Master.c"
  2037 ;; Parameters:    Size  Location     Type
  2038 ;;		None
  2039 ;; Auto vars:     Size  Location     Type
  2040 ;;		None
  2041 ;; Return value:  Size  Location     Type
  2042 ;;                  1    wreg      unsigned char 
  2043 ;; Registers used:
  2044 ;;		wreg
  2045 ;; Tracked objects:
  2046 ;;		On entry : 0/0
  2047 ;;		On exit  : 0/0
  2048 ;;		Unchanged: 0/0
  2049 ;; Data sizes:     COMMON   BANK0   BANK1   BANK3   BANK2
  2050 ;;      Params:         0       0       0       0       0
  2051 ;;      Locals:         0       0       0       0       0
  2052 ;;      Temps:          0       0       0       0       0
  2053 ;;      Totals:         0       0       0       0       0
  2054 ;;Total ram usage:        0 bytes
  2055 ;; Hardware stack levels used:    1
  2056 ;; Hardware stack levels required when called:    3
  2057 ;; This function calls:
  2058 ;;		Nothing
  2059 ;; This function is called by:
  2060 ;;		_main
  2061 ;; This function uses a non-reentrant model
  2062 ;;
  2063                           
  2064                           
  2065                           ;psect for function _SPI_Read
  2066  07F3                     _SPI_Read:
  2067  07F3                     l2797:	
  2068                           ;incstack = 0
  2069                           ; Regs used in _SPI_Read: [wreg]
  2070                           
  2071  07F3                     l93:	
  2072                           ;Master.c: 98:          ADC_Value=(unsigned int)Dong;
  2073                           
  2074  07F3  1683               	bsf	3,5	;RP0=1, select bank1
  2075  07F4  1303               	bcf	3,6	;RP1=0, select bank1
  2076  07F5  1C14               	btfss	20,0	;volatile
  2077  07F6  2FF8               	goto	u3021
  2078  07F7  2FF9               	goto	u3020
  2079  07F8                     u3021:
  2080  07F8  2FF3               	goto	l93
  2081  07F9                     u3020:
  2082  07F9                     l2799:
  2083                           
  2084                           ;Master.c: 99: 
  2085  07F9  1283               	bcf	3,5	;RP0=0, select bank0
  2086  07FA  1303               	bcf	3,6	;RP1=0, select bank0
  2087  07FB  0813               	movf	19,w	;volatile
  2088  07FC                     l96:
  2089  07FC  0008               	return
  2090  07FD                     __end_of_SPI_Read:
  2091                           
  2092                           	psect	text7
  2093  0AC5                     __ptext7:	
  2094 ;; *************** function _SPI_Initialize_Master *****************
  2095 ;; Defined at:
  2096 ;;		line 79 in file "Master.c"
  2097 ;; Parameters:    Size  Location     Type
  2098 ;;		None
  2099 ;; Auto vars:     Size  Location     Type
  2100 ;;		None
  2101 ;; Return value:  Size  Location     Type
  2102 ;;                  1    wreg      void 
  2103 ;; Registers used:
  2104 ;;		wreg
  2105 ;; Tracked objects:
  2106 ;;		On entry : 0/0
  2107 ;;		On exit  : 0/0
  2108 ;;		Unchanged: 0/0
  2109 ;; Data sizes:     COMMON   BANK0   BANK1   BANK3   BANK2
  2110 ;;      Params:         0       0       0       0       0
  2111 ;;      Locals:         0       0       0       0       0
  2112 ;;      Temps:          0       0       0       0       0
  2113 ;;      Totals:         0       0       0       0       0
  2114 ;;Total ram usage:        0 bytes
  2115 ;; Hardware stack levels used:    1
  2116 ;; Hardware stack levels required when called:    3
  2117 ;; This function calls:
  2118 ;;		Nothing
  2119 ;; This function is called by:
  2120 ;;		_main
  2121 ;; This function uses a non-reentrant model
  2122 ;;
  2123                           
  2124                           
  2125                           ;psect for function _SPI_Initialize_Master
  2126  0AC5                     _SPI_Initialize_Master:
  2127  0AC5                     l2787:	
  2128                           ;incstack = 0
  2129                           ; Regs used in _SPI_Initialize_Master: [wreg]
  2130                           
  2131                           
  2132                           ;Master.c: 81:     (LCDByte(0b00000001,0));
  2133  0AC5  1683               	bsf	3,5	;RP0=1, select bank1
  2134  0AC6  1303               	bcf	3,6	;RP1=0, select bank1
  2135  0AC7  1388               	bcf	8,7	;volatile
  2136                           
  2137                           ;Master.c: 82: 
  2138  0AC8  1287               	bcf	7,5	;volatile
  2139  0AC9                     l2789:
  2140                           
  2141                           ;Master.c: 83:     Tx_data[0]=0x0A;
  2142  0AC9  3080               	movlw	128
  2143  0ACA  0094               	movwf	20	;volatile
  2144                           
  2145                           ;Master.c: 84:     Tx_data[1]=0x0F;
  2146  0ACB  3020               	movlw	32
  2147  0ACC  1283               	bcf	3,5	;RP0=0, select bank0
  2148  0ACD  1303               	bcf	3,6	;RP1=0, select bank0
  2149  0ACE  0094               	movwf	20	;volatile
  2150  0ACF                     l2791:
  2151                           
  2152                           ;Master.c: 85:     Tx_data[2]=0x15;
  2153  0ACF  1683               	bsf	3,5	;RP0=1, select bank1
  2154  0AD0  1303               	bcf	3,6	;RP1=0, select bank1
  2155  0AD1  1187               	bcf	7,3	;volatile
  2156  0AD2                     l2793:
  2157                           
  2158                           ;Master.c: 86:     PORTDbits.RD7=0;
  2159  0AD2  1607               	bsf	7,4	;volatile
  2160  0AD3                     l87:
  2161  0AD3  0008               	return
  2162  0AD4                     __end_of_SPI_Initialize_Master:
  2163                           
  2164                           	psect	text8
  2165  0D14                     __ptext8:	
  2166 ;; *************** function _LCDWriteString *****************
  2167 ;; Defined at:
  2168 ;;		line 212 in file "lcd_hd44780_pic16.c"
  2169 ;; Parameters:    Size  Location     Type
  2170 ;;  msg             1    wreg     PTR const unsigned char 
  2171 ;;		 -> STR_3(12), STR_2(12), STR_1(11), 
  2172 ;; Auto vars:     Size  Location     Type
  2173 ;;  msg             1   14[BANK1 ] PTR const unsigned char 
  2174 ;;		 -> STR_3(12), STR_2(12), STR_1(11), 
  2175 ;;  cc              1   13[BANK1 ] char 
  2176 ;; Return value:  Size  Location     Type
  2177 ;;                  1    wreg      void 
  2178 ;; Registers used:
  2179 ;;		wreg, fsr0l, fsr0h, status,2, status,0, pclath, cstack
  2180 ;; Tracked objects:
  2181 ;;		On entry : 0/0
  2182 ;;		On exit  : 0/0
  2183 ;;		Unchanged: 0/0
  2184 ;; Data sizes:     COMMON   BANK0   BANK1   BANK3   BANK2
  2185 ;;      Params:         0       0       0       0       0
  2186 ;;      Locals:         0       0       2       0       0
  2187 ;;      Temps:          0       0       1       0       0
  2188 ;;      Totals:         0       0       3       0       0
  2189 ;;Total ram usage:        3 bytes
  2190 ;; Hardware stack levels used:    1
  2191 ;; Hardware stack levels required when called:    5
  2192 ;; This function calls:
  2193 ;;		_LCDByte
  2194 ;; This function is called by:
  2195 ;;		_main
  2196 ;; This function uses a non-reentrant model
  2197 ;;
  2198                           
  2199                           
  2200                           ;psect for function _LCDWriteString
  2201  0D14                     _LCDWriteString:
  2202                           
  2203                           ;incstack = 0
  2204                           ; Regs used in _LCDWriteString: [wreg-fsr0h+status,2+status,0+pclath+cstack]
  2205                           ;LCDWriteString@msg stored from wreg
  2206  0D14  1683               	bsf	3,5	;RP0=1, select bank1
  2207  0D15  1303               	bcf	3,6	;RP1=0, select bank1
  2208  0D16  00AE               	movwf	LCDWriteString@msg^(0+128)
  2209  0D17                     l2855:
  2210                           
  2211                           ;lcd_hd44780_pic16.c: 212: void LCDWriteString(const char *msg);lcd_hd44780_pic16.c: 213
      +                          : {;lcd_hd44780_pic16.c: 242:  while(*msg!='\0')
  2212  0D17  2D74               	goto	l2877
  2213  0D18                     l2857:
  2214                           
  2215                           ;lcd_hd44780_pic16.c: 243:  {;lcd_hd44780_pic16.c: 245:  if(*msg=='%')
  2216  0D18  082E               	movf	LCDWriteString@msg^(0+128),w
  2217  0D19  0084               	movwf	4
  2218  0D1A  120A  158A  2000  120A  158A  	fcall	stringdir
  2219  0D1F  3A25               	xorlw	37
  2220  0D20  1D03               	skipz
  2221  0D21  2D23               	goto	u3041
  2222  0D22  2D24               	goto	u3040
  2223  0D23                     u3041:
  2224  0D23  2D60               	goto	l2873
  2225  0D24                     u3040:
  2226  0D24                     l2859:
  2227                           
  2228                           ;lcd_hd44780_pic16.c: 246:  {;lcd_hd44780_pic16.c: 247:   msg++;
  2229  0D24  3001               	movlw	1
  2230  0D25  00AC               	movwf	??_LCDWriteString^(0+128)
  2231  0D26  082C               	movf	??_LCDWriteString^(0+128),w
  2232  0D27  07AE               	addwf	LCDWriteString@msg^(0+128),f
  2233  0D28                     l2861:
  2234                           
  2235                           ;lcd_hd44780_pic16.c: 248:   int8_t cc=*msg-'0';
  2236  0D28  082E               	movf	LCDWriteString@msg^(0+128),w
  2237  0D29  0084               	movwf	4
  2238  0D2A  120A  158A  2000  120A  158A  	fcall	stringdir
  2239  0D2F  3ED0               	addlw	-48
  2240  0D30  00AC               	movwf	??_LCDWriteString^(0+128)
  2241  0D31  082C               	movf	??_LCDWriteString^(0+128),w
  2242  0D32  00AD               	movwf	LCDWriteString@cc^(0+128)
  2243  0D33                     l2863:
  2244                           
  2245                           ;lcd_hd44780_pic16.c: 250:   if(cc>=0 && cc<=7)
  2246  0D33  1BAD               	btfsc	LCDWriteString@cc^(0+128),7
  2247  0D34  2D36               	goto	u3051
  2248  0D35  2D37               	goto	u3050
  2249  0D36                     u3051:
  2250  0D36  2D47               	goto	l2869
  2251  0D37                     u3050:
  2252  0D37                     l2865:
  2253  0D37  082D               	movf	LCDWriteString@cc^(0+128),w
  2254  0D38  3A80               	xorlw	128
  2255  0D39  3E78               	addlw	-136
  2256  0D3A  1803               	skipnc
  2257  0D3B  2D3D               	goto	u3061
  2258  0D3C  2D3E               	goto	u3060
  2259  0D3D                     u3061:
  2260  0D3D  2D47               	goto	l2869
  2261  0D3E                     u3060:
  2262  0D3E                     l2867:
  2263                           
  2264                           ;lcd_hd44780_pic16.c: 251:   {;lcd_hd44780_pic16.c: 252:    (LCDByte(cc,1));
  2265  0D3E  01A5               	clrf	LCDByte@isdata^(0+128)
  2266  0D3F  0AA5               	incf	LCDByte@isdata^(0+128),f
  2267  0D40  082D               	movf	LCDWriteString@cc^(0+128),w
  2268  0D41  120A  158A  2405  120A  158A  	fcall	_LCDByte
  2269                           
  2270                           ;lcd_hd44780_pic16.c: 253:   }
  2271  0D46  2D6E               	goto	l2875
  2272  0D47                     l2869:
  2273                           
  2274                           ;lcd_hd44780_pic16.c: 255:   {;lcd_hd44780_pic16.c: 256:    (LCDByte('%',1));
  2275  0D47  01A5               	clrf	LCDByte@isdata^(0+128)
  2276  0D48  0AA5               	incf	LCDByte@isdata^(0+128),f
  2277  0D49  3025               	movlw	37
  2278  0D4A  120A  158A  2405  120A  158A  	fcall	_LCDByte
  2279  0D4F                     l2871:
  2280                           
  2281                           ;lcd_hd44780_pic16.c: 257:    (LCDByte(*msg,1));
  2282  0D4F  1683               	bsf	3,5	;RP0=1, select bank1
  2283  0D50  1303               	bcf	3,6	;RP1=0, select bank1
  2284  0D51  01A5               	clrf	LCDByte@isdata^(0+128)
  2285  0D52  0AA5               	incf	LCDByte@isdata^(0+128),f
  2286  0D53  082E               	movf	LCDWriteString@msg^(0+128),w
  2287  0D54  0084               	movwf	4
  2288  0D55  120A  158A  2000  120A  158A  	fcall	stringdir
  2289  0D5A  120A  158A  2405  120A  158A  	fcall	_LCDByte
  2290  0D5F  2D6E               	goto	l2875
  2291  0D60                     l2873:
  2292                           
  2293                           ;lcd_hd44780_pic16.c: 261:  {;lcd_hd44780_pic16.c: 262:   (LCDByte(*msg,1));
  2294  0D60  01A5               	clrf	LCDByte@isdata^(0+128)
  2295  0D61  0AA5               	incf	LCDByte@isdata^(0+128),f
  2296  0D62  082E               	movf	LCDWriteString@msg^(0+128),w
  2297  0D63  0084               	movwf	4
  2298  0D64  120A  158A  2000  120A  158A  	fcall	stringdir
  2299  0D69  120A  158A  2405  120A  158A  	fcall	_LCDByte
  2300  0D6E                     l2875:
  2301                           
  2302                           ;lcd_hd44780_pic16.c: 264:  msg++;
  2303  0D6E  3001               	movlw	1
  2304  0D6F  1683               	bsf	3,5	;RP0=1, select bank1
  2305  0D70  1303               	bcf	3,6	;RP1=0, select bank1
  2306  0D71  00AC               	movwf	??_LCDWriteString^(0+128)
  2307  0D72  082C               	movf	??_LCDWriteString^(0+128),w
  2308  0D73  07AE               	addwf	LCDWriteString@msg^(0+128),f
  2309  0D74                     l2877:
  2310                           
  2311                           ;lcd_hd44780_pic16.c: 242:  while(*msg!='\0')
  2312  0D74  082E               	movf	LCDWriteString@msg^(0+128),w
  2313  0D75  0084               	movwf	4
  2314  0D76  120A  158A  2000  120A  158A  	fcall	stringdir
  2315  0D7B  3A00               	xorlw	0
  2316  0D7C  1D03               	skipz
  2317  0D7D  2D7F               	goto	u3071
  2318  0D7E  2D80               	goto	u3070
  2319  0D7F                     u3071:
  2320  0D7F  2D18               	goto	l2857
  2321  0D80                     u3070:
  2322  0D80                     l151:
  2323  0D80  0008               	return
  2324  0D81                     __end_of_LCDWriteString:
  2325                           
  2326                           	psect	text9
  2327  0CAD                     __ptext9:	
  2328 ;; *************** function _LCDInit *****************
  2329 ;; Defined at:
  2330 ;;		line 154 in file "lcd_hd44780_pic16.c"
  2331 ;; Parameters:    Size  Location     Type
  2332 ;;  style           1    wreg     unsigned char 
  2333 ;; Auto vars:     Size  Location     Type
  2334 ;;  style           1   14[BANK1 ] unsigned char 
  2335 ;;  __i             1   15[BANK1 ] unsigned char 
  2336 ;; Return value:  Size  Location     Type
  2337 ;;                  1    wreg      void 
  2338 ;; Registers used:
  2339 ;;		wreg, fsr0l, fsr0h, status,2, status,0, pclath, cstack
  2340 ;; Tracked objects:
  2341 ;;		On entry : 0/0
  2342 ;;		On exit  : 0/0
  2343 ;;		Unchanged: 0/0
  2344 ;; Data sizes:     COMMON   BANK0   BANK1   BANK3   BANK2
  2345 ;;      Params:         0       0       0       0       0
  2346 ;;      Locals:         0       0       2       0       0
  2347 ;;      Temps:          0       0       2       0       0
  2348 ;;      Totals:         0       0       4       0       0
  2349 ;;Total ram usage:        4 bytes
  2350 ;; Hardware stack levels used:    1
  2351 ;; Hardware stack levels required when called:    5
  2352 ;; This function calls:
  2353 ;;		_LCDBusyLoop
  2354 ;;		_LCDByte
  2355 ;; This function is called by:
  2356 ;;		_main
  2357 ;; This function uses a non-reentrant model
  2358 ;;
  2359                           
  2360                           
  2361                           ;psect for function _LCDInit
  2362  0CAD                     _LCDInit:
  2363                           
  2364                           ;incstack = 0
  2365                           ; Regs used in _LCDInit: [wreg-fsr0h+status,2+status,0+pclath+cstack]
  2366                           ;LCDInit@style stored from wreg
  2367  0CAD  1683               	bsf	3,5	;RP0=1, select bank1
  2368  0CAE  1303               	bcf	3,6	;RP1=0, select bank1
  2369  0CAF  00AE               	movwf	LCDInit@style^(0+128)
  2370  0CB0                     l2803:
  2371                           
  2372                           ;lcd_hd44780_pic16.c: 154: void LCDInit(uint8_t style);lcd_hd44780_pic16.c: 155: {;lcd_h
      +                          d44780_pic16.c: 170:   _delay((unsigned long)((30)*(8000000/4000.0)));
  2373  0CB0  304E               	movlw	78
  2374  0CB1  1683               	bsf	3,5	;RP0=1, select bank1
  2375  0CB2  1303               	bcf	3,6	;RP1=0, select bank1
  2376  0CB3  00AD               	movwf	(??_LCDInit^(0+128)+1)
  2377  0CB4  30EA               	movlw	234
  2378  0CB5  00AC               	movwf	??_LCDInit^(0+128)
  2379  0CB6                     u3427:
  2380  0CB6  0BAC               	decfsz	??_LCDInit^(0+128),f
  2381  0CB7  2CB6               	goto	u3427
  2382  0CB8  0BAD               	decfsz	(??_LCDInit^(0+128)+1),f
  2383  0CB9  2CB6               	goto	u3427
  2384  0CBA  0000               	nop
  2385  0CBB                     l2805:
  2386                           
  2387                           ;lcd_hd44780_pic16.c: 173:  TRISD&=(~(0x0F<<0));
  2388  0CBB  30F0               	movlw	240
  2389  0CBC  1683               	bsf	3,5	;RP0=1, select bank1
  2390  0CBD  1303               	bcf	3,6	;RP1=0, select bank1
  2391  0CBE  00AC               	movwf	??_LCDInit^(0+128)
  2392  0CBF  082C               	movf	??_LCDInit^(0+128),w
  2393  0CC0  0588               	andwf	8,f	;volatile
  2394  0CC1                     l2807:
  2395                           
  2396                           ;lcd_hd44780_pic16.c: 175:         TRISAbits.TRISA1=0;
  2397  0CC1  1085               	bcf	5,1	;volatile
  2398  0CC2                     l2809:
  2399                           
  2400                           ;lcd_hd44780_pic16.c: 176:         TRISAbits.TRISA3=0;
  2401  0CC2  1185               	bcf	5,3	;volatile
  2402  0CC3                     l2811:
  2403                           
  2404                           ;lcd_hd44780_pic16.c: 177:         TRISAbits.TRISA2=0;
  2405  0CC3  1105               	bcf	5,2	;volatile
  2406  0CC4                     l2813:
  2407                           
  2408                           ;lcd_hd44780_pic16.c: 179:  PORTD&=(~(0x0F<<0));
  2409  0CC4  30F0               	movlw	240
  2410  0CC5  00AC               	movwf	??_LCDInit^(0+128)
  2411  0CC6  082C               	movf	??_LCDInit^(0+128),w
  2412  0CC7  1283               	bcf	3,5	;RP0=0, select bank0
  2413  0CC8  1303               	bcf	3,6	;RP1=0, select bank0
  2414  0CC9  0588               	andwf	8,f	;volatile
  2415  0CCA                     l2815:
  2416                           
  2417                           ;lcd_hd44780_pic16.c: 181:         (RA1=0);
  2418  0CCA  1085               	bcf	5,1	;volatile
  2419  0CCB                     l2817:
  2420                           
  2421                           ;lcd_hd44780_pic16.c: 182:  (RA2=0);
  2422  0CCB  1105               	bcf	5,2	;volatile
  2423  0CCC                     l2819:
  2424                           
  2425                           ;lcd_hd44780_pic16.c: 183:  (RA3=0);
  2426  0CCC  1185               	bcf	5,3	;volatile
  2427  0CCD                     l2821:
  2428                           
  2429                           ;lcd_hd44780_pic16.c: 186:  _delay((unsigned long)((0.5)*(8000000/4000000.0)));
  2430  0CCD  0000               	nop
  2431  0CCE                     l2823:
  2432                           
  2433                           ;lcd_hd44780_pic16.c: 188:  (RA1=1);
  2434  0CCE  1283               	bcf	3,5	;RP0=0, select bank0
  2435  0CCF  1303               	bcf	3,6	;RP1=0, select bank0
  2436  0CD0  1485               	bsf	5,1	;volatile
  2437  0CD1                     l2825:
  2438                           
  2439                           ;lcd_hd44780_pic16.c: 189:  PORTD|=((0b00000010)<<0);
  2440  0CD1  1488               	bsf	8,1	;volatile
  2441  0CD2                     l2827:
  2442                           
  2443                           ;lcd_hd44780_pic16.c: 190:  _delay((unsigned long)((1)*(8000000/4000000.0)));
  2444  0CD2  2CD3               	nop2	;2 cycle nop
  2445  0CD3                     l2829:
  2446                           
  2447                           ;lcd_hd44780_pic16.c: 191:  (RA1=0);
  2448  0CD3  1283               	bcf	3,5	;RP0=0, select bank0
  2449  0CD4  1303               	bcf	3,6	;RP1=0, select bank0
  2450  0CD5  1085               	bcf	5,1	;volatile
  2451  0CD6                     l2831:
  2452                           
  2453                           ;lcd_hd44780_pic16.c: 192:  _delay((unsigned long)((1)*(8000000/4000000.0)));
  2454  0CD6  2CD7               	nop2	;2 cycle nop
  2455  0CD7                     l2833:
  2456                           
  2457                           ;lcd_hd44780_pic16.c: 195:  LCDBusyLoop();
  2458  0CD7  120A  158A  2454  120A  158A  	fcall	_LCDBusyLoop
  2459  0CDC                     l2835:
  2460                           
  2461                           ;lcd_hd44780_pic16.c: 200:  (LCDByte(0b00101000,0));
  2462  0CDC  1683               	bsf	3,5	;RP0=1, select bank1
  2463  0CDD  1303               	bcf	3,6	;RP1=0, select bank1
  2464  0CDE  01A5               	clrf	LCDByte@isdata^(0+128)
  2465  0CDF  3028               	movlw	40
  2466  0CE0  120A  158A  2405  120A  158A  	fcall	_LCDByte
  2467  0CE5                     l2837:
  2468                           
  2469                           ;lcd_hd44780_pic16.c: 201:         (LCDByte(0b00001100|style,0));
  2470  0CE5  1683               	bsf	3,5	;RP0=1, select bank1
  2471  0CE6  1303               	bcf	3,6	;RP1=0, select bank1
  2472  0CE7  01A5               	clrf	LCDByte@isdata^(0+128)
  2473  0CE8  082E               	movf	LCDInit@style^(0+128),w
  2474  0CE9  380C               	iorlw	12
  2475  0CEA  120A  158A  2405  120A  158A  	fcall	_LCDByte
  2476  0CEF                     l2839:
  2477                           
  2478                           ;lcd_hd44780_pic16.c: 204:         (LCDByte(0b01000000,0));
  2479  0CEF  1683               	bsf	3,5	;RP0=1, select bank1
  2480  0CF0  1303               	bcf	3,6	;RP1=0, select bank1
  2481  0CF1  01A5               	clrf	LCDByte@isdata^(0+128)
  2482  0CF2  3040               	movlw	64
  2483  0CF3  120A  158A  2405  120A  158A  	fcall	_LCDByte
  2484  0CF8                     l2841:
  2485                           
  2486                           ;lcd_hd44780_pic16.c: 206:  uint8_t __i;;lcd_hd44780_pic16.c: 207:  for(__i=0;__i<sizeof
      +                          (__cgram);__i++)
  2487  0CF8  1683               	bsf	3,5	;RP0=1, select bank1
  2488  0CF9  1303               	bcf	3,6	;RP1=0, select bank1
  2489  0CFA  01AF               	clrf	LCDInit@__i^(0+128)
  2490  0CFB                     l2847:
  2491                           
  2492                           ;lcd_hd44780_pic16.c: 208:   (LCDByte(__cgram[__i],1));
  2493  0CFB  01A5               	clrf	LCDByte@isdata^(0+128)
  2494  0CFC  0AA5               	incf	LCDByte@isdata^(0+128),f
  2495  0CFD  082F               	movf	LCDInit@__i^(0+128),w
  2496  0CFE  3E90               	addlw	(low (___cgram| (0+256)))& (0+255)
  2497  0CFF  0084               	movwf	4
  2498  0D00  1783               	bsf	3,7	;select IRP bank3
  2499  0D01  0800               	movf	0,w
  2500  0D02  120A  158A  2405  120A  158A  	fcall	_LCDByte
  2501  0D07                     l2849:
  2502  0D07  3001               	movlw	1
  2503  0D08  1683               	bsf	3,5	;RP0=1, select bank1
  2504  0D09  1303               	bcf	3,6	;RP1=0, select bank1
  2505  0D0A  00AC               	movwf	??_LCDInit^(0+128)
  2506  0D0B  082C               	movf	??_LCDInit^(0+128),w
  2507  0D0C  07AF               	addwf	LCDInit@__i^(0+128),f
  2508  0D0D                     l2851:
  2509  0D0D  3040               	movlw	64
  2510  0D0E  022F               	subwf	LCDInit@__i^(0+128),w
  2511  0D0F  1C03               	skipc
  2512  0D10  2D12               	goto	u3031
  2513  0D11  2D13               	goto	u3030
  2514  0D12                     u3031:
  2515  0D12  2CFB               	goto	l2847
  2516  0D13                     u3030:
  2517  0D13                     l141:
  2518  0D13  0008               	return
  2519  0D14                     __end_of_LCDInit:
  2520                           
  2521                           	psect	text10
  2522  0B0E                     __ptext10:	
  2523 ;; *************** function _LCDGotoXY *****************
  2524 ;; Defined at:
  2525 ;;		line 313 in file "lcd_hd44780_pic16.c"
  2526 ;; Parameters:    Size  Location     Type
  2527 ;;  x               1    wreg     unsigned char 
  2528 ;;  y               1   12[BANK1 ] unsigned char 
  2529 ;; Auto vars:     Size  Location     Type
  2530 ;;  x               1   15[BANK1 ] unsigned char 
  2531 ;; Return value:  Size  Location     Type
  2532 ;;                  1    wreg      void 
  2533 ;; Registers used:
  2534 ;;		wreg, fsr0l, fsr0h, status,2, status,0, pclath, cstack
  2535 ;; Tracked objects:
  2536 ;;		On entry : 0/0
  2537 ;;		On exit  : 0/0
  2538 ;;		Unchanged: 0/0
  2539 ;; Data sizes:     COMMON   BANK0   BANK1   BANK3   BANK2
  2540 ;;      Params:         0       0       1       0       0
  2541 ;;      Locals:         0       0       1       0       0
  2542 ;;      Temps:          0       0       2       0       0
  2543 ;;      Totals:         0       0       4       0       0
  2544 ;;Total ram usage:        4 bytes
  2545 ;; Hardware stack levels used:    1
  2546 ;; Hardware stack levels required when called:    5
  2547 ;; This function calls:
  2548 ;;		_LCDByte
  2549 ;; This function is called by:
  2550 ;;		_main
  2551 ;; This function uses a non-reentrant model
  2552 ;;
  2553                           
  2554                           
  2555                           ;psect for function _LCDGotoXY
  2556  0B0E                     _LCDGotoXY:
  2557                           
  2558                           ;incstack = 0
  2559                           ; Regs used in _LCDGotoXY: [wreg-fsr0h+status,2+status,0+pclath+cstack]
  2560                           ;LCDGotoXY@x stored from wreg
  2561  0B0E  1683               	bsf	3,5	;RP0=1, select bank1
  2562  0B0F  1303               	bcf	3,6	;RP1=0, select bank1
  2563  0B10  00AF               	movwf	LCDGotoXY@x^(0+128)
  2564  0B11                     l2879:
  2565                           
  2566                           ;lcd_hd44780_pic16.c: 313: void LCDGotoXY(uint8_t x,uint8_t y);lcd_hd44780_pic16.c: 314:
      +                           {;lcd_hd44780_pic16.c: 315:   if(x>=20) return;
  2567  0B11  3014               	movlw	20
  2568  0B12  022F               	subwf	LCDGotoXY@x^(0+128),w
  2569  0B13  1C03               	skipc
  2570  0B14  2B16               	goto	u3081
  2571  0B15  2B17               	goto	u3080
  2572  0B16                     u3081:
  2573  0B16  2B24               	goto	l2889
  2574  0B17                     u3080:
  2575  0B17  2B42               	goto	l171
  2576  0B18                     l175:	
  2577                           ;lcd_hd44780_pic16.c: 323:   case 1:
  2578                           
  2579                           
  2580                           ;lcd_hd44780_pic16.c: 324:    x|=0b01000000;
  2581  0B18  172F               	bsf	LCDGotoXY@x^(0+128),6
  2582                           
  2583                           ;lcd_hd44780_pic16.c: 325:    break;
  2584  0B19  2B3A               	goto	l174
  2585  0B1A                     l2883:
  2586                           
  2587                           ;lcd_hd44780_pic16.c: 327:    x+=0x14;
  2588  0B1A  3014               	movlw	20
  2589  0B1B  00AD               	movwf	??_LCDGotoXY^(0+128)
  2590  0B1C  082D               	movf	??_LCDGotoXY^(0+128),w
  2591  0B1D  07AF               	addwf	LCDGotoXY@x^(0+128),f
  2592                           
  2593                           ;lcd_hd44780_pic16.c: 328:    break;
  2594  0B1E  2B3A               	goto	l174
  2595  0B1F                     l2885:
  2596                           
  2597                           ;lcd_hd44780_pic16.c: 330:    x+=0x54;
  2598  0B1F  3054               	movlw	84
  2599  0B20  00AD               	movwf	??_LCDGotoXY^(0+128)
  2600  0B21  082D               	movf	??_LCDGotoXY^(0+128),w
  2601  0B22  07AF               	addwf	LCDGotoXY@x^(0+128),f
  2602                           
  2603                           ;lcd_hd44780_pic16.c: 331:    break;
  2604  0B23  2B3A               	goto	l174
  2605  0B24                     l2889:
  2606  0B24  082C               	movf	LCDGotoXY@y^(0+128),w
  2607  0B25  00AD               	movwf	??_LCDGotoXY^(0+128)
  2608  0B26  01AE               	clrf	(??_LCDGotoXY^(0+128)+1)
  2609                           
  2610                           ; Switch on 2 bytes has been partitioned into a top level switch of size 1, and 1 sub-sw
      +                          itches
  2611                           ; Switch size 1, requested type "simple"
  2612                           ; Number of cases is 1, Range of values is 0 to 0
  2613                           ; switch strategies available:
  2614                           ; Name         Instructions Cycles
  2615                           ; simple_byte            4     3 (average)
  2616                           ; direct_byte           11     8 (fixed)
  2617                           ; jumptable            260     6 (fixed)
  2618                           ;	Chosen strategy is simple_byte
  2619  0B27  082E               	movf	(??_LCDGotoXY+1)^(0+128),w
  2620  0B28  3A00               	xorlw	0	; case 0
  2621  0B29  1903               	skipnz
  2622  0B2A  2B2C               	goto	l3151
  2623  0B2B  2B3A               	goto	l174
  2624  0B2C                     l3151:
  2625                           
  2626                           ; Switch size 1, requested type "simple"
  2627                           ; Number of cases is 4, Range of values is 0 to 3
  2628                           ; switch strategies available:
  2629                           ; Name         Instructions Cycles
  2630                           ; simple_byte           13     7 (average)
  2631                           ; direct_byte           20     8 (fixed)
  2632                           ; jumptable            260     6 (fixed)
  2633                           ;	Chosen strategy is simple_byte
  2634  0B2C  082D               	movf	??_LCDGotoXY^(0+128),w
  2635  0B2D  3A00               	xorlw	0	; case 0
  2636  0B2E  1903               	skipnz
  2637  0B2F  2B3A               	goto	l174
  2638  0B30  3A01               	xorlw	1	; case 1
  2639  0B31  1903               	skipnz
  2640  0B32  2B18               	goto	l175
  2641  0B33  3A03               	xorlw	3	; case 2
  2642  0B34  1903               	skipnz
  2643  0B35  2B1A               	goto	l2883
  2644  0B36  3A01               	xorlw	1	; case 3
  2645  0B37  1903               	skipnz
  2646  0B38  2B1F               	goto	l2885
  2647  0B39  2B3A               	goto	l174
  2648  0B3A                     l174:
  2649                           
  2650                           ;lcd_hd44780_pic16.c: 354:  x|=0b10000000;
  2651  0B3A  17AF               	bsf	LCDGotoXY@x^(0+128),7
  2652  0B3B                     l2891:
  2653                           
  2654                           ;lcd_hd44780_pic16.c: 355:    (LCDByte(x,0));
  2655  0B3B  01A5               	clrf	LCDByte@isdata^(0+128)
  2656  0B3C  082F               	movf	LCDGotoXY@x^(0+128),w
  2657  0B3D  120A  158A  2405  120A  158A  	fcall	_LCDByte
  2658  0B42                     l171:
  2659  0B42  0008               	return
  2660  0B43                     __end_of_LCDGotoXY:
  2661                           
  2662                           	psect	text11
  2663  0C05                     __ptext11:	
  2664 ;; *************** function _LCDByte *****************
  2665 ;; Defined at:
  2666 ;;		line 41 in file "lcd_hd44780_pic16.c"
  2667 ;; Parameters:    Size  Location     Type
  2668 ;;  c               1    wreg     unsigned char 
  2669 ;;  isdata          1    5[BANK1 ] unsigned char 
  2670 ;; Auto vars:     Size  Location     Type
  2671 ;;  c               1   10[BANK1 ] unsigned char 
  2672 ;;  temp            1   11[BANK1 ] unsigned char 
  2673 ;;  ln              1    9[BANK1 ] unsigned char 
  2674 ;;  hn              1    8[BANK1 ] unsigned char 
  2675 ;; Return value:  Size  Location     Type
  2676 ;;                  1    wreg      void 
  2677 ;; Registers used:
  2678 ;;		wreg, status,2, status,0, pclath, cstack
  2679 ;; Tracked objects:
  2680 ;;		On entry : 0/0
  2681 ;;		On exit  : 0/0
  2682 ;;		Unchanged: 0/0
  2683 ;; Data sizes:     COMMON   BANK0   BANK1   BANK3   BANK2
  2684 ;;      Params:         0       0       1       0       0
  2685 ;;      Locals:         0       0       4       0       0
  2686 ;;      Temps:          0       0       2       0       0
  2687 ;;      Totals:         0       0       7       0       0
  2688 ;;Total ram usage:        7 bytes
  2689 ;; Hardware stack levels used:    1
  2690 ;; Hardware stack levels required when called:    4
  2691 ;; This function calls:
  2692 ;;		_LCDBusyLoop
  2693 ;; This function is called by:
  2694 ;;		_main
  2695 ;;		_LCDInit
  2696 ;;		_LCDWriteString
  2697 ;;		_LCDGotoXY
  2698 ;;		_LCDWriteInt
  2699 ;; This function uses a non-reentrant model
  2700 ;;
  2701                           
  2702                           
  2703                           ;psect for function _LCDByte
  2704  0C05                     _LCDByte:
  2705                           
  2706                           ;incstack = 0
  2707                           ; Regs used in _LCDByte: [wreg+status,2+status,0+pclath+cstack]
  2708                           ;LCDByte@c stored from wreg
  2709  0C05  1683               	bsf	3,5	;RP0=1, select bank1
  2710  0C06  1303               	bcf	3,6	;RP1=0, select bank1
  2711  0C07  00AA               	movwf	LCDByte@c^(0+128)
  2712  0C08                     l2737:
  2713                           
  2714                           ;lcd_hd44780_pic16.c: 41: void LCDByte(uint8_t c,uint8_t isdata);lcd_hd44780_pic16.c: 42
      +                          : {;lcd_hd44780_pic16.c: 50: uint8_t hn,ln;;lcd_hd44780_pic16.c: 51: uint8_t temp;;lcd_h
      +                          d44780_pic16.c: 53: hn=c>>4;
  2715  0C08  082A               	movf	LCDByte@c^(0+128),w
  2716  0C09  00A6               	movwf	??_LCDByte^(0+128)
  2717  0C0A  3004               	movlw	4
  2718  0C0B                     u3005:
  2719  0C0B  1003               	clrc
  2720  0C0C  0CA6               	rrf	??_LCDByte^(0+128),f
  2721  0C0D  3EFF               	addlw	-1
  2722  0C0E  1D03               	skipz
  2723  0C0F  2C0B               	goto	u3005
  2724  0C10  0826               	movf	??_LCDByte^(0+128),w
  2725  0C11  00A7               	movwf	(??_LCDByte+1)^(0+128)
  2726  0C12  0827               	movf	(??_LCDByte+1)^(0+128),w
  2727  0C13  00A8               	movwf	LCDByte@hn^(0+128)
  2728  0C14                     l2739:
  2729                           
  2730                           ;lcd_hd44780_pic16.c: 54: ln=(c & 0x0F);
  2731  0C14  082A               	movf	LCDByte@c^(0+128),w
  2732  0C15  390F               	andlw	15
  2733  0C16  00A6               	movwf	??_LCDByte^(0+128)
  2734  0C17  0826               	movf	??_LCDByte^(0+128),w
  2735  0C18  00A9               	movwf	LCDByte@ln^(0+128)
  2736  0C19                     l2741:
  2737                           
  2738                           ;lcd_hd44780_pic16.c: 56: if(isdata==0)
  2739  0C19  0825               	movf	LCDByte@isdata^(0+128),w
  2740  0C1A  1D03               	btfss	3,2
  2741  0C1B  2C1D               	goto	u3011
  2742  0C1C  2C1E               	goto	u3010
  2743  0C1D                     u3011:
  2744  0C1D  2C22               	goto	l129
  2745  0C1E                     u3010:
  2746  0C1E                     l2743:
  2747                           
  2748                           ;lcd_hd44780_pic16.c: 57:  (RA3=0);
  2749  0C1E  1283               	bcf	3,5	;RP0=0, select bank0
  2750  0C1F  1303               	bcf	3,6	;RP1=0, select bank0
  2751  0C20  1185               	bcf	5,3	;volatile
  2752  0C21  2C25               	goto	l130
  2753  0C22                     l129:	
  2754                           ;lcd_hd44780_pic16.c: 58: else
  2755                           
  2756                           
  2757                           ;lcd_hd44780_pic16.c: 59:  (RA3=1);
  2758  0C22  1283               	bcf	3,5	;RP0=0, select bank0
  2759  0C23  1303               	bcf	3,6	;RP1=0, select bank0
  2760  0C24  1585               	bsf	5,3	;volatile
  2761  0C25                     l130:
  2762                           
  2763                           ;lcd_hd44780_pic16.c: 61: _delay((unsigned long)((0.5)*(8000000/4000000.0)));
  2764  0C25  0000               	nop
  2765                           
  2766                           ;lcd_hd44780_pic16.c: 63: (RA1=1);
  2767  0C26  1283               	bcf	3,5	;RP0=0, select bank0
  2768  0C27  1303               	bcf	3,6	;RP1=0, select bank0
  2769  0C28  1485               	bsf	5,1	;volatile
  2770  0C29                     l2745:
  2771                           
  2772                           ;lcd_hd44780_pic16.c: 67: temp=(PORTD & (~(0X0F<<0)))|((hn<<0));
  2773  0C29  0808               	movf	8,w	;volatile
  2774  0C2A  39F0               	andlw	240
  2775  0C2B  1683               	bsf	3,5	;RP0=1, select bank1
  2776  0C2C  1303               	bcf	3,6	;RP1=0, select bank1
  2777  0C2D  0428               	iorwf	LCDByte@hn^(0+128),w
  2778  0C2E  00A6               	movwf	??_LCDByte^(0+128)
  2779  0C2F  0826               	movf	??_LCDByte^(0+128),w
  2780  0C30  00AB               	movwf	LCDByte@temp^(0+128)
  2781  0C31                     l2747:
  2782                           
  2783                           ;lcd_hd44780_pic16.c: 68: PORTD=temp;
  2784  0C31  082B               	movf	LCDByte@temp^(0+128),w
  2785  0C32  1283               	bcf	3,5	;RP0=0, select bank0
  2786  0C33  1303               	bcf	3,6	;RP1=0, select bank0
  2787  0C34  0088               	movwf	8	;volatile
  2788  0C35                     l2749:
  2789                           
  2790                           ;lcd_hd44780_pic16.c: 70: _delay((unsigned long)((1)*(8000000/4000000.0)));
  2791  0C35  2C36               	nop2	;2 cycle nop
  2792  0C36                     l2751:
  2793                           
  2794                           ;lcd_hd44780_pic16.c: 74: (RA1=0);
  2795  0C36  1283               	bcf	3,5	;RP0=0, select bank0
  2796  0C37  1303               	bcf	3,6	;RP1=0, select bank0
  2797  0C38  1085               	bcf	5,1	;volatile
  2798  0C39                     l2753:
  2799                           
  2800                           ;lcd_hd44780_pic16.c: 76: _delay((unsigned long)((1)*(8000000/4000000.0)));
  2801  0C39  2C3A               	nop2	;2 cycle nop
  2802  0C3A                     l2755:
  2803                           
  2804                           ;lcd_hd44780_pic16.c: 79: (RA1=1);
  2805  0C3A  1283               	bcf	3,5	;RP0=0, select bank0
  2806  0C3B  1303               	bcf	3,6	;RP1=0, select bank0
  2807  0C3C  1485               	bsf	5,1	;volatile
  2808  0C3D                     l2757:
  2809                           
  2810                           ;lcd_hd44780_pic16.c: 81: temp=(PORTD & (~(0X0F<<0)))|((ln<<0));
  2811  0C3D  0808               	movf	8,w	;volatile
  2812  0C3E  39F0               	andlw	240
  2813  0C3F  1683               	bsf	3,5	;RP0=1, select bank1
  2814  0C40  1303               	bcf	3,6	;RP1=0, select bank1
  2815  0C41  0429               	iorwf	LCDByte@ln^(0+128),w
  2816  0C42  00A6               	movwf	??_LCDByte^(0+128)
  2817  0C43  0826               	movf	??_LCDByte^(0+128),w
  2818  0C44  00AB               	movwf	LCDByte@temp^(0+128)
  2819                           
  2820                           ;lcd_hd44780_pic16.c: 83: PORTD=temp;
  2821  0C45  082B               	movf	LCDByte@temp^(0+128),w
  2822  0C46  1283               	bcf	3,5	;RP0=0, select bank0
  2823  0C47  1303               	bcf	3,6	;RP1=0, select bank0
  2824  0C48  0088               	movwf	8	;volatile
  2825  0C49                     l2759:
  2826                           
  2827                           ;lcd_hd44780_pic16.c: 85: _delay((unsigned long)((1)*(8000000/4000000.0)));
  2828  0C49  2C4A               	nop2	;2 cycle nop
  2829  0C4A                     l2761:
  2830                           
  2831                           ;lcd_hd44780_pic16.c: 89: (RA1=0);
  2832  0C4A  1283               	bcf	3,5	;RP0=0, select bank0
  2833  0C4B  1303               	bcf	3,6	;RP1=0, select bank0
  2834  0C4C  1085               	bcf	5,1	;volatile
  2835  0C4D                     l2763:
  2836                           
  2837                           ;lcd_hd44780_pic16.c: 91: _delay((unsigned long)((1)*(8000000/4000000.0)));
  2838  0C4D  2C4E               	nop2	;2 cycle nop
  2839  0C4E                     l2765:
  2840                           
  2841                           ;lcd_hd44780_pic16.c: 93: LCDBusyLoop();
  2842  0C4E  120A  158A  2454  120A  158A  	fcall	_LCDBusyLoop
  2843  0C53                     l131:
  2844  0C53  0008               	return
  2845  0C54                     __end_of_LCDByte:
  2846                           
  2847                           	psect	text12
  2848  0C54                     __ptext12:	
  2849 ;; *************** function _LCDBusyLoop *****************
  2850 ;; Defined at:
  2851 ;;		line 96 in file "lcd_hd44780_pic16.c"
  2852 ;; Parameters:    Size  Location     Type
  2853 ;;		None
  2854 ;; Auto vars:     Size  Location     Type
  2855 ;;  status          1    4[BANK1 ] unsigned char 
  2856 ;;  temp            1    3[BANK1 ] unsigned char 
  2857 ;;  busy            1    2[BANK1 ] unsigned char 
  2858 ;; Return value:  Size  Location     Type
  2859 ;;                  1    wreg      void 
  2860 ;; Registers used:
  2861 ;;		wreg, status,2, status,0
  2862 ;; Tracked objects:
  2863 ;;		On entry : 0/0
  2864 ;;		On exit  : 0/0
  2865 ;;		Unchanged: 0/0
  2866 ;; Data sizes:     COMMON   BANK0   BANK1   BANK3   BANK2
  2867 ;;      Params:         0       0       0       0       0
  2868 ;;      Locals:         0       0       3       0       0
  2869 ;;      Temps:          0       0       2       0       0
  2870 ;;      Totals:         0       0       5       0       0
  2871 ;;Total ram usage:        5 bytes
  2872 ;; Hardware stack levels used:    1
  2873 ;; Hardware stack levels required when called:    3
  2874 ;; This function calls:
  2875 ;;		Nothing
  2876 ;; This function is called by:
  2877 ;;		_LCDByte
  2878 ;;		_LCDInit
  2879 ;; This function uses a non-reentrant model
  2880 ;;
  2881                           
  2882                           
  2883                           ;psect for function _LCDBusyLoop
  2884  0C54                     _LCDBusyLoop:
  2885  0C54                     l2691:	
  2886                           ;incstack = 0
  2887                           ; Regs used in _LCDBusyLoop: [wreg+status,2+status,0]
  2888                           
  2889  0C54                     l2693:
  2890                           
  2891                           ;lcd_hd44780_pic16.c: 103:  TRISD|=(0x0f<<0);
  2892  0C54  300F               	movlw	15
  2893  0C55  1683               	bsf	3,5	;RP0=1, select bank1
  2894  0C56  1303               	bcf	3,6	;RP1=0, select bank1
  2895  0C57  00A0               	movwf	??_LCDBusyLoop^(0+128)
  2896  0C58  0820               	movf	??_LCDBusyLoop^(0+128),w
  2897  0C59  0488               	iorwf	8,f	;volatile
  2898  0C5A                     l2695:
  2899                           
  2900                           ;lcd_hd44780_pic16.c: 106:  (RA2=1);
  2901  0C5A  1283               	bcf	3,5	;RP0=0, select bank0
  2902  0C5B  1303               	bcf	3,6	;RP1=0, select bank0
  2903  0C5C  1505               	bsf	5,2	;volatile
  2904  0C5D                     l2697:
  2905                           
  2906                           ;lcd_hd44780_pic16.c: 107:  (RA3=0);
  2907  0C5D  1185               	bcf	5,3	;volatile
  2908  0C5E                     l2699:
  2909                           
  2910                           ;lcd_hd44780_pic16.c: 111:  _delay((unsigned long)((0.5)*(8000000/4000000.0)));
  2911  0C5E  0000               	nop
  2912  0C5F                     l2701:
  2913                           
  2914                           ;lcd_hd44780_pic16.c: 115:  {;lcd_hd44780_pic16.c: 117:   (RA1=1);
  2915  0C5F  1283               	bcf	3,5	;RP0=0, select bank0
  2916  0C60  1303               	bcf	3,6	;RP1=0, select bank0
  2917  0C61  1485               	bsf	5,1	;volatile
  2918  0C62                     l2703:
  2919                           
  2920                           ;lcd_hd44780_pic16.c: 120:   _delay((unsigned long)((0.5)*(8000000/4000000.0)));
  2921  0C62  0000               	nop
  2922  0C63                     l2705:
  2923                           
  2924                           ;lcd_hd44780_pic16.c: 122:   status=(PORTD>>0);
  2925  0C63  1283               	bcf	3,5	;RP0=0, select bank0
  2926  0C64  1303               	bcf	3,6	;RP1=0, select bank0
  2927  0C65  0808               	movf	8,w	;volatile
  2928  0C66  1683               	bsf	3,5	;RP0=1, select bank1
  2929  0C67  1303               	bcf	3,6	;RP1=0, select bank1
  2930  0C68  00A0               	movwf	??_LCDBusyLoop^(0+128)
  2931  0C69  0820               	movf	??_LCDBusyLoop^(0+128),w
  2932  0C6A  00A4               	movwf	LCDBusyLoop@status^(0+128)
  2933  0C6B                     l2707:
  2934                           
  2935                           ;lcd_hd44780_pic16.c: 123:   status=status<<4;
  2936  0C6B  0824               	movf	LCDBusyLoop@status^(0+128),w
  2937  0C6C  00A0               	movwf	??_LCDBusyLoop^(0+128)
  2938  0C6D  3003               	movlw	3
  2939  0C6E                     u2985:
  2940  0C6E  1003               	clrc
  2941  0C6F  0DA0               	rlf	??_LCDBusyLoop^(0+128),f
  2942  0C70  3EFF               	addlw	-1
  2943  0C71  1D03               	skipz
  2944  0C72  2C6E               	goto	u2985
  2945  0C73  1003               	clrc
  2946  0C74  0D20               	rlf	??_LCDBusyLoop^(0+128),w
  2947  0C75  00A1               	movwf	(??_LCDBusyLoop+1)^(0+128)
  2948  0C76  0821               	movf	(??_LCDBusyLoop+1)^(0+128),w
  2949  0C77  00A4               	movwf	LCDBusyLoop@status^(0+128)
  2950  0C78                     l2709:
  2951                           
  2952                           ;lcd_hd44780_pic16.c: 125:   _delay((unsigned long)((0.5)*(8000000/4000000.0)));
  2953  0C78  0000               	nop
  2954  0C79                     l2711:
  2955                           
  2956                           ;lcd_hd44780_pic16.c: 128:   (RA1=0);
  2957  0C79  1283               	bcf	3,5	;RP0=0, select bank0
  2958  0C7A  1303               	bcf	3,6	;RP1=0, select bank0
  2959  0C7B  1085               	bcf	5,1	;volatile
  2960  0C7C                     l2713:
  2961                           
  2962                           ;lcd_hd44780_pic16.c: 129:   _delay((unsigned long)((1)*(8000000/4000000.0)));
  2963  0C7C  2C7D               	nop2	;2 cycle nop
  2964  0C7D                     l2715:
  2965                           
  2966                           ;lcd_hd44780_pic16.c: 131:   (RA1=1);
  2967  0C7D  1283               	bcf	3,5	;RP0=0, select bank0
  2968  0C7E  1303               	bcf	3,6	;RP1=0, select bank0
  2969  0C7F  1485               	bsf	5,1	;volatile
  2970  0C80                     l2717:
  2971                           
  2972                           ;lcd_hd44780_pic16.c: 132:   _delay((unsigned long)((0.5)*(8000000/4000000.0)));
  2973  0C80  0000               	nop
  2974  0C81                     l2719:
  2975                           
  2976                           ;lcd_hd44780_pic16.c: 134:   temp=(PORTD>>0);
  2977  0C81  1283               	bcf	3,5	;RP0=0, select bank0
  2978  0C82  1303               	bcf	3,6	;RP1=0, select bank0
  2979  0C83  0808               	movf	8,w	;volatile
  2980  0C84  1683               	bsf	3,5	;RP0=1, select bank1
  2981  0C85  1303               	bcf	3,6	;RP1=0, select bank1
  2982  0C86  00A0               	movwf	??_LCDBusyLoop^(0+128)
  2983  0C87  0820               	movf	??_LCDBusyLoop^(0+128),w
  2984  0C88  00A3               	movwf	LCDBusyLoop@temp^(0+128)
  2985  0C89                     l2721:
  2986                           
  2987                           ;lcd_hd44780_pic16.c: 135:   temp&=0x0F;
  2988  0C89  300F               	movlw	15
  2989  0C8A  00A0               	movwf	??_LCDBusyLoop^(0+128)
  2990  0C8B  0820               	movf	??_LCDBusyLoop^(0+128),w
  2991  0C8C  05A3               	andwf	LCDBusyLoop@temp^(0+128),f
  2992  0C8D                     l2723:
  2993                           
  2994                           ;lcd_hd44780_pic16.c: 137:   status=status|temp;
  2995  0C8D  0824               	movf	LCDBusyLoop@status^(0+128),w
  2996  0C8E  0423               	iorwf	LCDBusyLoop@temp^(0+128),w
  2997  0C8F  00A0               	movwf	??_LCDBusyLoop^(0+128)
  2998  0C90  0820               	movf	??_LCDBusyLoop^(0+128),w
  2999  0C91  00A4               	movwf	LCDBusyLoop@status^(0+128)
  3000  0C92                     l2725:
  3001                           
  3002                           ;lcd_hd44780_pic16.c: 139:   busy=status & 0b10000000;
  3003  0C92  0824               	movf	LCDBusyLoop@status^(0+128),w
  3004  0C93  3980               	andlw	128
  3005  0C94  00A0               	movwf	??_LCDBusyLoop^(0+128)
  3006  0C95  0820               	movf	??_LCDBusyLoop^(0+128),w
  3007  0C96  00A2               	movwf	LCDBusyLoop@busy^(0+128)
  3008  0C97                     l2727:
  3009                           
  3010                           ;lcd_hd44780_pic16.c: 141:   _delay((unsigned long)((0.5)*(8000000/4000000.0)));
  3011  0C97  0000               	nop
  3012  0C98                     l2729:
  3013                           
  3014                           ;lcd_hd44780_pic16.c: 143:                 (RA1=0);
  3015  0C98  1283               	bcf	3,5	;RP0=0, select bank0
  3016  0C99  1303               	bcf	3,6	;RP1=0, select bank0
  3017  0C9A  1085               	bcf	5,1	;volatile
  3018  0C9B                     l2731:
  3019                           
  3020                           ;lcd_hd44780_pic16.c: 144:   _delay((unsigned long)((1)*(8000000/4000000.0)));
  3021  0C9B  2C9C               	nop2	;2 cycle nop
  3022  0C9C                     l2733:
  3023                           
  3024                           ;lcd_hd44780_pic16.c: 145:  }while(busy);
  3025  0C9C  1683               	bsf	3,5	;RP0=1, select bank1
  3026  0C9D  1303               	bcf	3,6	;RP1=0, select bank1
  3027  0C9E  0822               	movf	LCDBusyLoop@busy^(0+128),w
  3028  0C9F  1D03               	btfss	3,2
  3029  0CA0  2CA2               	goto	u2991
  3030  0CA1  2CA3               	goto	u2990
  3031  0CA2                     u2991:
  3032  0CA2  2C5F               	goto	l2701
  3033  0CA3                     u2990:
  3034  0CA3                     l135:
  3035                           
  3036                           ;lcd_hd44780_pic16.c: 147:  (RA2=0);
  3037  0CA3  1283               	bcf	3,5	;RP0=0, select bank0
  3038  0CA4  1303               	bcf	3,6	;RP1=0, select bank0
  3039  0CA5  1105               	bcf	5,2	;volatile
  3040  0CA6                     l2735:
  3041                           
  3042                           ;lcd_hd44780_pic16.c: 150:  TRISD&=(~(0x0F<<0));
  3043  0CA6  30F0               	movlw	240
  3044  0CA7  1683               	bsf	3,5	;RP0=1, select bank1
  3045  0CA8  1303               	bcf	3,6	;RP1=0, select bank1
  3046  0CA9  00A0               	movwf	??_LCDBusyLoop^(0+128)
  3047  0CAA  0820               	movf	??_LCDBusyLoop^(0+128),w
  3048  0CAB  0588               	andwf	8,f	;volatile
  3049  0CAC                     l136:
  3050  0CAC  0008               	return
  3051  0CAD                     __end_of_LCDBusyLoop:
  3052                           
  3053                           	psect	text13
  3054  0ABC                     __ptext13:	
  3055 ;; *************** function _InitADC *****************
  3056 ;; Defined at:
  3057 ;;		line 4 in file "ADC0808.c"
  3058 ;; Parameters:    Size  Location     Type
  3059 ;;		None
  3060 ;; Auto vars:     Size  Location     Type
  3061 ;;		None
  3062 ;; Return value:  Size  Location     Type
  3063 ;;                  1    wreg      void 
  3064 ;; Registers used:
  3065 ;;		wreg
  3066 ;; Tracked objects:
  3067 ;;		On entry : 0/0
  3068 ;;		On exit  : 0/0
  3069 ;;		Unchanged: 0/0
  3070 ;; Data sizes:     COMMON   BANK0   BANK1   BANK3   BANK2
  3071 ;;      Params:         0       0       0       0       0
  3072 ;;      Locals:         0       0       0       0       0
  3073 ;;      Temps:          0       0       0       0       0
  3074 ;;      Totals:         0       0       0       0       0
  3075 ;;Total ram usage:        0 bytes
  3076 ;; Hardware stack levels used:    1
  3077 ;; Hardware stack levels required when called:    3
  3078 ;; This function calls:
  3079 ;;		Nothing
  3080 ;; This function is called by:
  3081 ;;		_main
  3082 ;; This function uses a non-reentrant model
  3083 ;;
  3084                           
  3085                           
  3086                           ;psect for function _InitADC
  3087  0ABC                     _InitADC:
  3088  0ABC                     l2853:	
  3089                           ;incstack = 0
  3090                           ; Regs used in _InitADC: [wreg]
  3091                           
  3092                           
  3093                           ;ADC0808.c: 6:  TRISC=0b00010000;
  3094  0ABC  3010               	movlw	16
  3095  0ABD  1683               	bsf	3,5	;RP0=1, select bank1
  3096  0ABE  1303               	bcf	3,6	;RP1=0, select bank1
  3097  0ABF  0087               	movwf	7	;volatile
  3098                           
  3099                           ;ADC0808.c: 7:  TRISB=0xff;
  3100  0AC0  30FF               	movlw	255
  3101  0AC1  0086               	movwf	6	;volatile
  3102                           
  3103                           ;ADC0808.c: 8:     TRISD=0b00100000;
  3104  0AC2  3020               	movlw	32
  3105  0AC3  0088               	movwf	8	;volatile
  3106  0AC4                     l194:
  3107  0AC4  0008               	return
  3108  0AC5                     __end_of_InitADC:
  3109                           
  3110                           	psect	text14
  3111  0E3D                     __ptext14:	
  3112 ;; *************** function _Count_Up *****************
  3113 ;; Defined at:
  3114 ;;		line 53 in file "Master.c"
  3115 ;; Parameters:    Size  Location     Type
  3116 ;;		None
  3117 ;; Auto vars:     Size  Location     Type
  3118 ;;		None
  3119 ;; Return value:  Size  Location     Type
  3120 ;;                  1    wreg      void 
  3121 ;; Registers used:
  3122 ;;		wreg, fsr0l, fsr0h, status,2, status,0, btemp+1, pclath, cstack
  3123 ;; Tracked objects:
  3124 ;;		On entry : 0/0
  3125 ;;		On exit  : 0/0
  3126 ;;		Unchanged: 0/0
  3127 ;; Data sizes:     COMMON   BANK0   BANK1   BANK3   BANK2
  3128 ;;      Params:         0       0       0       0       0
  3129 ;;      Locals:         0       0       0       0       0
  3130 ;;      Temps:          0       8       0       0       0
  3131 ;;      Totals:         0       8       0       0       0
  3132 ;;Total ram usage:        8 bytes
  3133 ;; Hardware stack levels used:    1
  3134 ;; Hardware stack levels required when called:    2
  3135 ;; This function calls:
  3136 ;;		_ReadADC
  3137 ;;		___fldiv
  3138 ;;		___flmul
  3139 ;;		___xxtofl
  3140 ;; This function is called by:
  3141 ;;		Interrupt level 1
  3142 ;; This function uses a non-reentrant model
  3143 ;;
  3144                           
  3145                           
  3146                           ;psect for function _Count_Up
  3147  0E3D                     _Count_Up:
  3148  0E3D                     i1l2413:
  3149                           
  3150                           ;Master.c: 55: }
  3151  0E3D  1683               	bsf	3,5	;RP0=1, select bank1
  3152  0E3E  1303               	bcf	3,6	;RP1=0, select bank1
  3153  0E3F  1C8C               	btfss	12,1	;volatile
  3154  0E40  2E42               	goto	u266_21
  3155  0E41  2E43               	goto	u266_20
  3156  0E42                     u266_21:
  3157  0E42  2EF2               	goto	i1l84
  3158  0E43                     u266_20:
  3159  0E43                     i1l2415:
  3160  0E43  1283               	bcf	3,5	;RP0=0, select bank0
  3161  0E44  1303               	bcf	3,6	;RP1=0, select bank0
  3162  0E45  1C8C               	btfss	12,1	;volatile
  3163  0E46  2E48               	goto	u267_21
  3164  0E47  2E49               	goto	u267_20
  3165  0E48                     u267_21:
  3166  0E48  2EF2               	goto	i1l84
  3167  0E49                     u267_20:
  3168  0E49                     i1l2417:
  3169                           
  3170                           ;Master.c: 56: ;Master.c: 57: char SPI_Read()
  3171  0E49  108C               	bcf	12,1	;volatile
  3172  0E4A                     i1l2419:
  3173                           
  3174                           ;Master.c: 58: {
  3175  0E4A  3001               	movlw	1
  3176  0E4B  07D1               	addwf	_count,f
  3177  0E4C  1803               	skipnc
  3178  0E4D  0AD2               	incf	_count+1,f
  3179  0E4E  3000               	movlw	0
  3180  0E4F  07D2               	addwf	_count+1,f
  3181  0E50                     i1l2421:
  3182                           
  3183                           ;Master.c: 59:     while ( !SSPSTATbits.BF );
  3184  0E50  3014               	movlw	20
  3185  0E51  0651               	xorwf	_count,w
  3186  0E52  0452               	iorwf	_count+1,w
  3187  0E53  1D03               	btfss	3,2
  3188  0E54  2E56               	goto	u268_21
  3189  0E55  2E57               	goto	u268_20
  3190  0E56                     u268_21:
  3191  0E56  2EF2               	goto	i1l84
  3192  0E57                     u268_20:
  3193  0E57                     i1l2423:
  3194                           
  3195                           ;Master.c: 60:     return(SSPBUF);;Master.c: 61: }
  3196  0E57  01D1               	clrf	_count
  3197  0E58  01D2               	clrf	_count+1
  3198  0E59                     i1l2425:
  3199                           
  3200                           ;Master.c: 62: 
  3201  0E59  3001               	movlw	1
  3202  0E5A  07CF               	addwf	_count1,f
  3203  0E5B  1803               	skipnc
  3204  0E5C  0AD0               	incf	_count1+1,f
  3205  0E5D  3000               	movlw	0
  3206  0E5E  07D0               	addwf	_count1+1,f
  3207  0E5F                     i1l2427:
  3208                           
  3209                           ;Master.c: 63: int main(int argc, char** argv) {
  3210  0E5F  0856               	movf	_do_dienap,w
  3211  0E60  1903               	btfsc	3,2
  3212  0E61  2E63               	goto	u269_21
  3213  0E62  2E64               	goto	u269_20
  3214  0E63                     u269_21:
  3215  0E63  2EAC               	goto	i1l2435
  3216  0E64                     u269_20:
  3217  0E64                     i1l2429:
  3218                           
  3219                           ;Master.c: 64:     unsigned char i_spi;;Master.c: 65:     char Rx_data[10];
  3220  0E64  3000               	movlw	0
  3221  0E65  120A  158A  26FE  120A  158A  	fcall	_ReadADC
  3222  0E6A  0870               	movf	?_ReadADC,w
  3223  0E6B  1283               	bcf	3,5	;RP0=0, select bank0
  3224  0E6C  1303               	bcf	3,6	;RP1=0, select bank0
  3225  0E6D  00B5               	movwf	??_Count_Up
  3226  0E6E  0871               	movf	?_ReadADC+1,w
  3227  0E6F  00B6               	movwf	??_Count_Up+1
  3228  0E70  01B7               	clrf	??_Count_Up+2
  3229  0E71  01B8               	clrf	??_Count_Up+3
  3230  0E72  0838               	movf	??_Count_Up+3,w
  3231  0E73  00FC               	movwf	___xxtofl@val+3
  3232  0E74  0837               	movf	??_Count_Up+2,w
  3233  0E75  00FB               	movwf	___xxtofl@val+2
  3234  0E76  0836               	movf	??_Count_Up+1,w
  3235  0E77  00FA               	movwf	___xxtofl@val+1
  3236  0E78  0835               	movf	??_Count_Up,w
  3237  0E79  00F9               	movwf	___xxtofl@val
  3238  0E7A  3000               	movlw	0
  3239  0E7B  120A  158A  2581  120A  158A  	fcall	___xxtofl
  3240  0E80  087C               	movf	?___xxtofl+3,w
  3241  0E81  1283               	bcf	3,5	;RP0=0, select bank0
  3242  0E82  1303               	bcf	3,6	;RP1=0, select bank0
  3243  0E83  00C5               	movwf	_Dienap+3
  3244  0E84  087B               	movf	?___xxtofl+2,w
  3245  0E85  00C4               	movwf	_Dienap+2
  3246  0E86  087A               	movf	?___xxtofl+1,w
  3247  0E87  00C3               	movwf	_Dienap+1
  3248  0E88  0879               	movf	?___xxtofl,w
  3249  0E89  00C2               	movwf	_Dienap
  3250  0E8A                     i1l2431:
  3251                           
  3252                           ;Master.c: 66:     char Tx_data[10];
  3253  0E8A  303F               	movlw	63
  3254  0E8B  00A3               	movwf	___flmul@b+3
  3255  0E8C  30FB               	movlw	251
  3256  0E8D  00A2               	movwf	___flmul@b+2
  3257  0E8E  3022               	movlw	34
  3258  0E8F  00A1               	movwf	___flmul@b+1
  3259  0E90  30D1               	movlw	209
  3260  0E91  00A0               	movwf	___flmul@b
  3261  0E92  0845               	movf	_Dienap+3,w
  3262  0E93  00A7               	movwf	___flmul@a+3
  3263  0E94  0844               	movf	_Dienap+2,w
  3264  0E95  00A6               	movwf	___flmul@a+2
  3265  0E96  0843               	movf	_Dienap+1,w
  3266  0E97  00A5               	movwf	___flmul@a+1
  3267  0E98  0842               	movf	_Dienap,w
  3268  0E99  00A4               	movwf	___flmul@a
  3269  0E9A  120A  118A  2030  120A  158A  	fcall	___flmul
  3270  0E9F  1283               	bcf	3,5	;RP0=0, select bank0
  3271  0EA0  1303               	bcf	3,6	;RP1=0, select bank0
  3272  0EA1  0823               	movf	?___flmul+3,w
  3273  0EA2  00C5               	movwf	_Dienap+3
  3274  0EA3  0822               	movf	?___flmul+2,w
  3275  0EA4  00C4               	movwf	_Dienap+2
  3276  0EA5  0821               	movf	?___flmul+1,w
  3277  0EA6  00C3               	movwf	_Dienap+1
  3278  0EA7  0820               	movf	?___flmul,w
  3279  0EA8  00C2               	movwf	_Dienap
  3280  0EA9                     i1l2433:
  3281                           
  3282                           ;Master.c: 67:      unsigned char Digit[3] = { 0,0,0 };
  3283  0EA9  01D5               	clrf	_adc_ok
  3284  0EAA  0AD5               	incf	_adc_ok,f
  3285                           
  3286                           ;Master.c: 68:     unsigned int ADC_Value = 0;
  3287  0EAB  2EF1               	goto	i1l2439
  3288  0EAC                     i1l2435:
  3289                           
  3290                           ;Master.c: 70:     SPI_Initialize_Master();;Master.c: 71:      ADCON1 = 0x06;
  3291  0EAC  3001               	movlw	1
  3292  0EAD  120A  158A  26FE  120A  158A  	fcall	_ReadADC
  3293  0EB2  0870               	movf	?_ReadADC,w
  3294  0EB3  1283               	bcf	3,5	;RP0=0, select bank0
  3295  0EB4  1303               	bcf	3,6	;RP1=0, select bank0
  3296  0EB5  00B5               	movwf	??_Count_Up
  3297  0EB6  0871               	movf	?_ReadADC+1,w
  3298  0EB7  00B6               	movwf	??_Count_Up+1
  3299  0EB8  01B7               	clrf	??_Count_Up+2
  3300  0EB9  01B8               	clrf	??_Count_Up+3
  3301  0EBA  0838               	movf	??_Count_Up+3,w
  3302  0EBB  00FC               	movwf	___xxtofl@val+3
  3303  0EBC  0837               	movf	??_Count_Up+2,w
  3304  0EBD  00FB               	movwf	___xxtofl@val+2
  3305  0EBE  0836               	movf	??_Count_Up+1,w
  3306  0EBF  00FA               	movwf	___xxtofl@val+1
  3307  0EC0  0835               	movf	??_Count_Up,w
  3308  0EC1  00F9               	movwf	___xxtofl@val
  3309  0EC2  3000               	movlw	0
  3310  0EC3  120A  158A  2581  120A  158A  	fcall	___xxtofl
  3311  0EC8  087C               	movf	?___xxtofl+3,w
  3312  0EC9  1283               	bcf	3,5	;RP0=0, select bank0
  3313  0ECA  1303               	bcf	3,6	;RP1=0, select bank0
  3314  0ECB  00C9               	movwf	_Dong+3
  3315  0ECC  087B               	movf	?___xxtofl+2,w
  3316  0ECD  00C8               	movwf	_Dong+2
  3317  0ECE  087A               	movf	?___xxtofl+1,w
  3318  0ECF  00C7               	movwf	_Dong+1
  3319  0ED0  0879               	movf	?___xxtofl,w
  3320  0ED1  00C6               	movwf	_Dong
  3321  0ED2                     i1l2437:
  3322                           
  3323                           ;Master.c: 72:    LCDInit(0B00000000);
  3324  0ED2  3040               	movlw	64
  3325  0ED3  00F3               	movwf	___fldiv@a+3
  3326  0ED4  3023               	movlw	35
  3327  0ED5  00F2               	movwf	___fldiv@a+2
  3328  0ED6  3033               	movlw	51
  3329  0ED7  00F1               	movwf	___fldiv@a+1
  3330  0ED8  3033               	movlw	51
  3331  0ED9  00F0               	movwf	___fldiv@a
  3332  0EDA  0849               	movf	_Dong+3,w
  3333  0EDB  00F7               	movwf	___fldiv@b+3
  3334  0EDC  0848               	movf	_Dong+2,w
  3335  0EDD  00F6               	movwf	___fldiv@b+2
  3336  0EDE  0847               	movf	_Dong+1,w
  3337  0EDF  00F5               	movwf	___fldiv@b+1
  3338  0EE0  0846               	movf	_Dong,w
  3339  0EE1  00F4               	movwf	___fldiv@b
  3340  0EE2  120A  118A  257F  120A  158A  	fcall	___fldiv
  3341  0EE7  0873               	movf	?___fldiv+3,w
  3342  0EE8  1283               	bcf	3,5	;RP0=0, select bank0
  3343  0EE9  1303               	bcf	3,6	;RP1=0, select bank0
  3344  0EEA  00C9               	movwf	_Dong+3
  3345  0EEB  0872               	movf	?___fldiv+2,w
  3346  0EEC  00C8               	movwf	_Dong+2
  3347  0EED  0871               	movf	?___fldiv+1,w
  3348  0EEE  00C7               	movwf	_Dong+1
  3349  0EEF  0870               	movf	?___fldiv,w
  3350  0EF0  00C6               	movwf	_Dong
  3351  0EF1                     i1l2439:
  3352                           
  3353                           ;Master.c: 74:    timer2_initialize ();
  3354  0EF1  09D6               	comf	_do_dienap,f
  3355  0EF2                     i1l84:
  3356  0EF2  1283               	bcf	3,5	;RP0=0, select bank0
  3357  0EF3  083C               	movf	??_Count_Up+7,w
  3358  0EF4  00FF               	movwf	btemp+1
  3359  0EF5  083B               	movf	??_Count_Up+6,w
  3360  0EF6  008A               	movwf	10
  3361  0EF7  083A               	movf	??_Count_Up+5,w
  3362  0EF8  0084               	movwf	4
  3363  0EF9  0E39               	swapf	??_Count_Up+4,w
  3364  0EFA  0083               	movwf	3
  3365  0EFB  0EFE               	swapf	btemp,f
  3366  0EFC  0E7E               	swapf	btemp,w
  3367  0EFD  0009               	retfie
  3368  0EFE                     __end_of_Count_Up:
  3369                           
  3370                           	psect	intentry
  3371  0004                     __pintentry:	
  3372                           ;incstack = 0
  3373                           ; Regs used in _Count_Up: [wreg-fsr0h+status,2+status,0+btemp+1+pclath+cstack]
  3374                           
  3375  0004                     interrupt_function:
  3376  007E                     saved_w	set	btemp
  3377  0004  00FE               	movwf	btemp
  3378  0005  0E03               	swapf	3,w
  3379  0006  1283               	bcf	3,5	;RP0=0, select bank0
  3380  0007  1303               	bcf	3,6	;RP1=0, select bank0
  3381  0008  00B9               	movwf	??_Count_Up+4
  3382  0009  0804               	movf	4,w
  3383  000A  00BA               	movwf	??_Count_Up+5
  3384  000B  080A               	movf	10,w
  3385  000C  00BB               	movwf	??_Count_Up+6
  3386  000D  087F               	movf	btemp+1,w
  3387  000E  00BC               	movwf	??_Count_Up+7
  3388  000F  120A  158A  2E3D   	ljmp	_Count_Up
  3389                           
  3390                           	psect	text15
  3391  0D81                     __ptext15:	
  3392 ;; *************** function ___xxtofl *****************
  3393 ;; Defined at:
  3394 ;;		line 10 in file "C:\Program Files\Microchip\xc8\v2.30\pic\sources\c90\common\xxtofl.c"
  3395 ;; Parameters:    Size  Location     Type
  3396 ;;  sign            1    wreg     unsigned char 
  3397 ;;  val             4    9[COMMON] long 
  3398 ;; Auto vars:     Size  Location     Type
  3399 ;;  sign            1    4[BANK0 ] unsigned char 
  3400 ;;  arg             4    6[BANK0 ] unsigned long 
  3401 ;;  exp             1    5[BANK0 ] unsigned char 
  3402 ;; Return value:  Size  Location     Type
  3403 ;;                  4    9[COMMON] unsigned char 
  3404 ;; Registers used:
  3405 ;;		wreg, status,2, status,0
  3406 ;; Tracked objects:
  3407 ;;		On entry : 0/0
  3408 ;;		On exit  : 0/0
  3409 ;;		Unchanged: 0/0
  3410 ;; Data sizes:     COMMON   BANK0   BANK1   BANK3   BANK2
  3411 ;;      Params:         4       0       0       0       0
  3412 ;;      Locals:         0       6       0       0       0
  3413 ;;      Temps:          0       4       0       0       0
  3414 ;;      Totals:         4      10       0       0       0
  3415 ;;Total ram usage:       14 bytes
  3416 ;; Hardware stack levels used:    1
  3417 ;; This function calls:
  3418 ;;		Nothing
  3419 ;; This function is called by:
  3420 ;;		_Count_Up
  3421 ;; This function uses a non-reentrant model
  3422 ;;
  3423                           
  3424                           
  3425                           ;psect for function ___xxtofl
  3426  0D81                     ___xxtofl:
  3427                           
  3428                           ;incstack = 0
  3429                           ; Regs used in ___xxtofl: [wreg+status,2+status,0]
  3430                           ;___xxtofl@sign stored from wreg
  3431  0D81  1283               	bcf	3,5	;RP0=0, select bank0
  3432  0D82  1303               	bcf	3,6	;RP1=0, select bank0
  3433  0D83  00A4               	movwf	___xxtofl@sign
  3434  0D84                     i1l2369:
  3435  0D84  0824               	movf	___xxtofl@sign,w
  3436  0D85  1903               	btfsc	3,2
  3437  0D86  2D88               	goto	u252_21
  3438  0D87  2D89               	goto	u252_20
  3439  0D88                     u252_21:
  3440  0D88  2D9D               	goto	i1l2375
  3441  0D89                     u252_20:
  3442  0D89                     i1l2371:
  3443  0D89  1FFC               	btfss	___xxtofl@val+3,7
  3444  0D8A  2D8C               	goto	u253_21
  3445  0D8B  2D8D               	goto	u253_20
  3446  0D8C                     u253_21:
  3447  0D8C  2D9D               	goto	i1l2375
  3448  0D8D                     u253_20:
  3449  0D8D                     i1l2373:
  3450  0D8D  0979               	comf	___xxtofl@val,w
  3451  0D8E  00A6               	movwf	___xxtofl@arg
  3452  0D8F  097A               	comf	___xxtofl@val+1,w
  3453  0D90  00A7               	movwf	___xxtofl@arg+1
  3454  0D91  097B               	comf	___xxtofl@val+2,w
  3455  0D92  00A8               	movwf	___xxtofl@arg+2
  3456  0D93  097C               	comf	___xxtofl@val+3,w
  3457  0D94  00A9               	movwf	___xxtofl@arg+3
  3458  0D95  0AA6               	incf	___xxtofl@arg,f
  3459  0D96  1903               	skipnz
  3460  0D97  0AA7               	incf	___xxtofl@arg+1,f
  3461  0D98  1903               	skipnz
  3462  0D99  0AA8               	incf	___xxtofl@arg+2,f
  3463  0D9A  1903               	skipnz
  3464  0D9B  0AA9               	incf	___xxtofl@arg+3,f
  3465  0D9C  2DA5               	goto	i1l732
  3466  0D9D                     i1l2375:
  3467  0D9D  087C               	movf	___xxtofl@val+3,w
  3468  0D9E  00A9               	movwf	___xxtofl@arg+3
  3469  0D9F  087B               	movf	___xxtofl@val+2,w
  3470  0DA0  00A8               	movwf	___xxtofl@arg+2
  3471  0DA1  087A               	movf	___xxtofl@val+1,w
  3472  0DA2  00A7               	movwf	___xxtofl@arg+1
  3473  0DA3  0879               	movf	___xxtofl@val,w
  3474  0DA4  00A6               	movwf	___xxtofl@arg
  3475  0DA5                     i1l732:
  3476  0DA5  087C               	movf	___xxtofl@val+3,w
  3477  0DA6  047B               	iorwf	___xxtofl@val+2,w
  3478  0DA7  047A               	iorwf	___xxtofl@val+1,w
  3479  0DA8  0479               	iorwf	___xxtofl@val,w
  3480  0DA9  1D03               	skipz
  3481  0DAA  2DAC               	goto	u254_21
  3482  0DAB  2DAD               	goto	u254_20
  3483  0DAC                     u254_21:
  3484  0DAC  2DB6               	goto	i1l2381
  3485  0DAD                     u254_20:
  3486  0DAD                     i1l2377:
  3487  0DAD  3000               	movlw	0
  3488  0DAE  00FC               	movwf	?___xxtofl+3
  3489  0DAF  3000               	movlw	0
  3490  0DB0  00FB               	movwf	?___xxtofl+2
  3491  0DB1  3000               	movlw	0
  3492  0DB2  00FA               	movwf	?___xxtofl+1
  3493  0DB3  3000               	movlw	0
  3494  0DB4  00F9               	movwf	?___xxtofl
  3495  0DB5  2E3C               	goto	i1l734
  3496  0DB6                     i1l2381:
  3497  0DB6  3096               	movlw	150
  3498  0DB7  00A0               	movwf	??___xxtofl
  3499  0DB8  0820               	movf	??___xxtofl,w
  3500  0DB9  00A5               	movwf	___xxtofl@exp
  3501  0DBA  2DC8               	goto	i1l2385
  3502  0DBB                     i1l2383:
  3503  0DBB  3001               	movlw	1
  3504  0DBC  00A0               	movwf	??___xxtofl
  3505  0DBD  0820               	movf	??___xxtofl,w
  3506  0DBE  07A5               	addwf	___xxtofl@exp,f
  3507  0DBF  3001               	movlw	1
  3508  0DC0                     u255_25:
  3509  0DC0  1003               	clrc
  3510  0DC1  0CA9               	rrf	___xxtofl@arg+3,f
  3511  0DC2  0CA8               	rrf	___xxtofl@arg+2,f
  3512  0DC3  0CA7               	rrf	___xxtofl@arg+1,f
  3513  0DC4  0CA6               	rrf	___xxtofl@arg,f
  3514  0DC5  3EFF               	addlw	-1
  3515  0DC6  1D03               	skipz
  3516  0DC7  2DC0               	goto	u255_25
  3517  0DC8                     i1l2385:
  3518  0DC8  30FE               	movlw	254
  3519  0DC9  0529               	andwf	___xxtofl@arg+3,w
  3520  0DCA  1D03               	btfss	3,2
  3521  0DCB  2DCD               	goto	u256_21
  3522  0DCC  2DCE               	goto	u256_20
  3523  0DCD                     u256_21:
  3524  0DCD  2DBB               	goto	i1l2383
  3525  0DCE                     u256_20:
  3526  0DCE  2DEA               	goto	i1l738
  3527  0DCF                     i1l2387:
  3528  0DCF  3001               	movlw	1
  3529  0DD0  00A0               	movwf	??___xxtofl
  3530  0DD1  0820               	movf	??___xxtofl,w
  3531  0DD2  07A5               	addwf	___xxtofl@exp,f
  3532  0DD3                     i1l2389:
  3533  0DD3  3001               	movlw	1
  3534  0DD4  07A6               	addwf	___xxtofl@arg,f
  3535  0DD5  3000               	movlw	0
  3536  0DD6  1803               	skipnc
  3537  0DD7  3001               	movlw	1
  3538  0DD8  07A7               	addwf	___xxtofl@arg+1,f
  3539  0DD9  3000               	movlw	0
  3540  0DDA  1803               	skipnc
  3541  0DDB  3001               	movlw	1
  3542  0DDC  07A8               	addwf	___xxtofl@arg+2,f
  3543  0DDD  3000               	movlw	0
  3544  0DDE  1803               	skipnc
  3545  0DDF  3001               	movlw	1
  3546  0DE0  07A9               	addwf	___xxtofl@arg+3,f
  3547  0DE1                     i1l2391:
  3548  0DE1  3001               	movlw	1
  3549  0DE2                     u257_25:
  3550  0DE2  1003               	clrc
  3551  0DE3  0CA9               	rrf	___xxtofl@arg+3,f
  3552  0DE4  0CA8               	rrf	___xxtofl@arg+2,f
  3553  0DE5  0CA7               	rrf	___xxtofl@arg+1,f
  3554  0DE6  0CA6               	rrf	___xxtofl@arg,f
  3555  0DE7  3EFF               	addlw	-1
  3556  0DE8  1D03               	skipz
  3557  0DE9  2DE2               	goto	u257_25
  3558  0DEA                     i1l738:
  3559  0DEA  30FF               	movlw	255
  3560  0DEB  0529               	andwf	___xxtofl@arg+3,w
  3561  0DEC  1D03               	btfss	3,2
  3562  0DED  2DEF               	goto	u258_21
  3563  0DEE  2DF0               	goto	u258_20
  3564  0DEF                     u258_21:
  3565  0DEF  2DCF               	goto	i1l2387
  3566  0DF0                     u258_20:
  3567  0DF0  2DFC               	goto	i1l2395
  3568  0DF1                     i1l2393:
  3569  0DF1  3001               	movlw	1
  3570  0DF2  02A5               	subwf	___xxtofl@exp,f
  3571  0DF3  3001               	movlw	1
  3572  0DF4  00A0               	movwf	??___xxtofl
  3573  0DF5                     u259_25:
  3574  0DF5  1003               	clrc
  3575  0DF6  0DA6               	rlf	___xxtofl@arg,f
  3576  0DF7  0DA7               	rlf	___xxtofl@arg+1,f
  3577  0DF8  0DA8               	rlf	___xxtofl@arg+2,f
  3578  0DF9  0DA9               	rlf	___xxtofl@arg+3,f
  3579  0DFA  0BA0               	decfsz	??___xxtofl,f
  3580  0DFB  2DF5               	goto	u259_25
  3581  0DFC                     i1l2395:
  3582  0DFC  1BA8               	btfsc	___xxtofl@arg+2,7
  3583  0DFD  2DFF               	goto	u260_21
  3584  0DFE  2E00               	goto	u260_20
  3585  0DFF                     u260_21:
  3586  0DFF  2E06               	goto	i1l745
  3587  0E00                     u260_20:
  3588  0E00                     i1l2397:
  3589  0E00  3002               	movlw	2
  3590  0E01  0225               	subwf	___xxtofl@exp,w
  3591  0E02  1803               	skipnc
  3592  0E03  2E05               	goto	u261_21
  3593  0E04  2E06               	goto	u261_20
  3594  0E05                     u261_21:
  3595  0E05  2DF1               	goto	i1l2393
  3596  0E06                     u261_20:
  3597  0E06                     i1l745:
  3598  0E06  1825               	btfsc	___xxtofl@exp,0
  3599  0E07  2E09               	goto	u262_21
  3600  0E08  2E0A               	goto	u262_20
  3601  0E09                     u262_21:
  3602  0E09  2E12               	goto	i1l746
  3603  0E0A                     u262_20:
  3604  0E0A                     i1l2399:
  3605  0E0A  30FF               	movlw	255
  3606  0E0B  05A6               	andwf	___xxtofl@arg,f
  3607  0E0C  30FF               	movlw	255
  3608  0E0D  05A7               	andwf	___xxtofl@arg+1,f
  3609  0E0E  307F               	movlw	127
  3610  0E0F  05A8               	andwf	___xxtofl@arg+2,f
  3611  0E10  30FF               	movlw	255
  3612  0E11  05A9               	andwf	___xxtofl@arg+3,f
  3613  0E12                     i1l746:
  3614  0E12  1003               	clrc
  3615  0E13  0CA5               	rrf	___xxtofl@exp,f
  3616  0E14                     i1l2401:
  3617  0E14  0825               	movf	___xxtofl@exp,w
  3618  0E15  00A0               	movwf	??___xxtofl
  3619  0E16  01A1               	clrf	??___xxtofl+1
  3620  0E17  01A2               	clrf	??___xxtofl+2
  3621  0E18  01A3               	clrf	??___xxtofl+3
  3622  0E19  3018               	movlw	24
  3623  0E1A                     u263_25:
  3624  0E1A  1003               	clrc
  3625  0E1B  0DA0               	rlf	??___xxtofl,f
  3626  0E1C  0DA1               	rlf	??___xxtofl+1,f
  3627  0E1D  0DA2               	rlf	??___xxtofl+2,f
  3628  0E1E  0DA3               	rlf	??___xxtofl+3,f
  3629  0E1F                     u263_20:
  3630  0E1F  3EFF               	addlw	-1
  3631  0E20  1D03               	skipz
  3632  0E21  2E1A               	goto	u263_25
  3633  0E22  0820               	movf	??___xxtofl,w
  3634  0E23  04A6               	iorwf	___xxtofl@arg,f
  3635  0E24  0821               	movf	??___xxtofl+1,w
  3636  0E25  04A7               	iorwf	___xxtofl@arg+1,f
  3637  0E26  0822               	movf	??___xxtofl+2,w
  3638  0E27  04A8               	iorwf	___xxtofl@arg+2,f
  3639  0E28  0823               	movf	??___xxtofl+3,w
  3640  0E29  04A9               	iorwf	___xxtofl@arg+3,f
  3641  0E2A                     i1l2403:
  3642  0E2A  0824               	movf	___xxtofl@sign,w
  3643  0E2B  1903               	btfsc	3,2
  3644  0E2C  2E2E               	goto	u264_21
  3645  0E2D  2E2F               	goto	u264_20
  3646  0E2E                     u264_21:
  3647  0E2E  2E34               	goto	i1l2409
  3648  0E2F                     u264_20:
  3649  0E2F                     i1l2405:
  3650  0E2F  1FFC               	btfss	___xxtofl@val+3,7
  3651  0E30  2E32               	goto	u265_21
  3652  0E31  2E33               	goto	u265_20
  3653  0E32                     u265_21:
  3654  0E32  2E34               	goto	i1l2409
  3655  0E33                     u265_20:
  3656  0E33                     i1l2407:
  3657  0E33  17A9               	bsf	___xxtofl@arg+3,7
  3658  0E34                     i1l2409:
  3659  0E34  0829               	movf	___xxtofl@arg+3,w
  3660  0E35  00FC               	movwf	?___xxtofl+3
  3661  0E36  0828               	movf	___xxtofl@arg+2,w
  3662  0E37  00FB               	movwf	?___xxtofl+2
  3663  0E38  0827               	movf	___xxtofl@arg+1,w
  3664  0E39  00FA               	movwf	?___xxtofl+1
  3665  0E3A  0826               	movf	___xxtofl@arg,w
  3666  0E3B  00F9               	movwf	?___xxtofl
  3667  0E3C                     i1l734:
  3668  0E3C  0008               	return
  3669  0E3D                     __end_of___xxtofl:
  3670                           
  3671                           	psect	text16
  3672  0030                     __ptext16:	
  3673 ;; *************** function ___flmul *****************
  3674 ;; Defined at:
  3675 ;;		line 8 in file "C:\Program Files\Microchip\xc8\v2.30\pic\sources\c90\common\sprcmul.c"
  3676 ;; Parameters:    Size  Location     Type
  3677 ;;  b               4    0[BANK0 ] unsigned char 
  3678 ;;  a               4    4[BANK0 ] unsigned char 
  3679 ;; Auto vars:     Size  Location     Type
  3680 ;;  prod            4   15[BANK0 ] struct .
  3681 ;;  grs             4    9[BANK0 ] unsigned long 
  3682 ;;  temp            2   19[BANK0 ] struct .
  3683 ;;  bexp            1   14[BANK0 ] unsigned char 
  3684 ;;  aexp            1   13[BANK0 ] unsigned char 
  3685 ;;  sign            1    8[BANK0 ] unsigned char 
  3686 ;; Return value:  Size  Location     Type
  3687 ;;                  4    0[BANK0 ] unsigned char 
  3688 ;; Registers used:
  3689 ;;		wreg, status,2, status,0, btemp+1, pclath, cstack
  3690 ;; Tracked objects:
  3691 ;;		On entry : 0/0
  3692 ;;		On exit  : 0/0
  3693 ;;		Unchanged: 0/0
  3694 ;; Data sizes:     COMMON   BANK0   BANK1   BANK3   BANK2
  3695 ;;      Params:         0       8       0       0       0
  3696 ;;      Locals:         0      13       0       0       0
  3697 ;;      Temps:          5       0       0       0       0
  3698 ;;      Totals:         5      21       0       0       0
  3699 ;;Total ram usage:       26 bytes
  3700 ;; Hardware stack levels used:    1
  3701 ;; Hardware stack levels required when called:    1
  3702 ;; This function calls:
  3703 ;;		__Umul8_16
  3704 ;; This function is called by:
  3705 ;;		_Count_Up
  3706 ;; This function uses a non-reentrant model
  3707 ;;
  3708                           
  3709                           
  3710                           ;psect for function ___flmul
  3711  0030                     ___flmul:
  3712  0030                     i1l2229:	
  3713                           ;incstack = 0
  3714                           ; Regs used in ___flmul: [wreg+status,2+status,0+btemp+1+pclath+cstack]
  3715                           
  3716  0030  1283               	bcf	3,5	;RP0=0, select bank0
  3717  0031  1303               	bcf	3,6	;RP1=0, select bank0
  3718  0032  0823               	movf	___flmul@b+3,w
  3719  0033  3980               	andlw	128
  3720  0034  00F9               	movwf	??___flmul
  3721  0035  0879               	movf	??___flmul,w
  3722  0036  00A8               	movwf	___flmul@sign
  3723  0037                     i1l2231:
  3724  0037  0823               	movf	___flmul@b+3,w
  3725  0038  00F9               	movwf	??___flmul
  3726  0039  0779               	addwf	??___flmul,w
  3727  003A  00FA               	movwf	??___flmul+1
  3728  003B  087A               	movf	??___flmul+1,w
  3729  003C  00AE               	movwf	___flmul@bexp
  3730  003D                     i1l2233:
  3731  003D  1FA2               	btfss	___flmul@b+2,7
  3732  003E  2840               	goto	u215_21
  3733  003F  2841               	goto	u215_20
  3734  0040                     u215_21:
  3735  0040  2842               	goto	i1l2237
  3736  0041                     u215_20:
  3737  0041                     i1l2235:
  3738  0041  142E               	bsf	___flmul@bexp,0
  3739  0042                     i1l2237:
  3740  0042  082E               	movf	___flmul@bexp,w
  3741  0043  1903               	btfsc	3,2
  3742  0044  2846               	goto	u216_21
  3743  0045  2847               	goto	u216_20
  3744  0046                     u216_21:
  3745  0046  2856               	goto	i1l2245
  3746  0047                     u216_20:
  3747  0047                     i1l2239:
  3748  0047  0A2E               	incf	___flmul@bexp,w
  3749  0048  1D03               	btfss	3,2
  3750  0049  284B               	goto	u217_21
  3751  004A  284C               	goto	u217_20
  3752  004B                     u217_21:
  3753  004B  2854               	goto	i1l2243
  3754  004C                     u217_20:
  3755  004C                     i1l2241:
  3756  004C  3000               	movlw	0
  3757  004D  00A3               	movwf	___flmul@b+3
  3758  004E  3000               	movlw	0
  3759  004F  00A2               	movwf	___flmul@b+2
  3760  0050  3000               	movlw	0
  3761  0051  00A1               	movwf	___flmul@b+1
  3762  0052  3000               	movlw	0
  3763  0053  00A0               	movwf	___flmul@b
  3764  0054                     i1l2243:
  3765  0054  17A2               	bsf	___flmul@b+2,7
  3766  0055  285E               	goto	i1l2247
  3767  0056                     i1l2245:
  3768  0056  3000               	movlw	0
  3769  0057  00A3               	movwf	___flmul@b+3
  3770  0058  3000               	movlw	0
  3771  0059  00A2               	movwf	___flmul@b+2
  3772  005A  3000               	movlw	0
  3773  005B  00A1               	movwf	___flmul@b+1
  3774  005C  3000               	movlw	0
  3775  005D  00A0               	movwf	___flmul@b
  3776  005E                     i1l2247:
  3777  005E  0827               	movf	___flmul@a+3,w
  3778  005F  3980               	andlw	128
  3779  0060  00F9               	movwf	??___flmul
  3780  0061  0879               	movf	??___flmul,w
  3781  0062  06A8               	xorwf	___flmul@sign,f
  3782  0063                     i1l2249:
  3783  0063  0827               	movf	___flmul@a+3,w
  3784  0064  00F9               	movwf	??___flmul
  3785  0065  0779               	addwf	??___flmul,w
  3786  0066  00FA               	movwf	??___flmul+1
  3787  0067  087A               	movf	??___flmul+1,w
  3788  0068  00AD               	movwf	___flmul@aexp
  3789  0069                     i1l2251:
  3790  0069  1FA6               	btfss	___flmul@a+2,7
  3791  006A  286C               	goto	u218_21
  3792  006B  286D               	goto	u218_20
  3793  006C                     u218_21:
  3794  006C  286E               	goto	i1l2255
  3795  006D                     u218_20:
  3796  006D                     i1l2253:
  3797  006D  142D               	bsf	___flmul@aexp,0
  3798  006E                     i1l2255:
  3799  006E  082D               	movf	___flmul@aexp,w
  3800  006F  1903               	btfsc	3,2
  3801  0070  2872               	goto	u219_21
  3802  0071  2873               	goto	u219_20
  3803  0072                     u219_21:
  3804  0072  2882               	goto	i1l2263
  3805  0073                     u219_20:
  3806  0073                     i1l2257:
  3807  0073  0A2D               	incf	___flmul@aexp,w
  3808  0074  1D03               	btfss	3,2
  3809  0075  2877               	goto	u220_21
  3810  0076  2878               	goto	u220_20
  3811  0077                     u220_21:
  3812  0077  2880               	goto	i1l2261
  3813  0078                     u220_20:
  3814  0078                     i1l2259:
  3815  0078  3000               	movlw	0
  3816  0079  00A7               	movwf	___flmul@a+3
  3817  007A  3000               	movlw	0
  3818  007B  00A6               	movwf	___flmul@a+2
  3819  007C  3000               	movlw	0
  3820  007D  00A5               	movwf	___flmul@a+1
  3821  007E  3000               	movlw	0
  3822  007F  00A4               	movwf	___flmul@a
  3823  0080                     i1l2261:
  3824  0080  17A6               	bsf	___flmul@a+2,7
  3825  0081  288A               	goto	i1l2265
  3826  0082                     i1l2263:
  3827  0082  3000               	movlw	0
  3828  0083  00A7               	movwf	___flmul@a+3
  3829  0084  3000               	movlw	0
  3830  0085  00A6               	movwf	___flmul@a+2
  3831  0086  3000               	movlw	0
  3832  0087  00A5               	movwf	___flmul@a+1
  3833  0088  3000               	movlw	0
  3834  0089  00A4               	movwf	___flmul@a
  3835  008A                     i1l2265:
  3836  008A  082D               	movf	___flmul@aexp,w
  3837  008B  1903               	btfsc	3,2
  3838  008C  288E               	goto	u221_21
  3839  008D  288F               	goto	u221_20
  3840  008E                     u221_21:
  3841  008E  2894               	goto	i1l2269
  3842  008F                     u221_20:
  3843  008F                     i1l2267:
  3844  008F  082E               	movf	___flmul@bexp,w
  3845  0090  1D03               	btfss	3,2
  3846  0091  2893               	goto	u222_21
  3847  0092  2894               	goto	u222_20
  3848  0093                     u222_21:
  3849  0093  289D               	goto	i1l2273
  3850  0094                     u222_20:
  3851  0094                     i1l2269:
  3852  0094  3000               	movlw	0
  3853  0095  00A3               	movwf	?___flmul+3
  3854  0096  3000               	movlw	0
  3855  0097  00A2               	movwf	?___flmul+2
  3856  0098  3000               	movlw	0
  3857  0099  00A1               	movwf	?___flmul+1
  3858  009A  3000               	movlw	0
  3859  009B  00A0               	movwf	?___flmul
  3860  009C  2B90               	goto	i1l688
  3861  009D                     i1l2273:
  3862  009D  0820               	movf	___flmul@b,w
  3863  009E  00F9               	movwf	??___flmul
  3864  009F  0879               	movf	??___flmul,w
  3865  00A0  00F0               	movwf	__Umul8_16@multiplicand
  3866  00A1  0826               	movf	___flmul@a+2,w
  3867  00A2  120A  158A  22E7  120A  118A  	fcall	__Umul8_16
  3868  00A7  0871               	movf	?__Umul8_16+1,w
  3869  00A8  1283               	bcf	3,5	;RP0=0, select bank0
  3870  00A9  1303               	bcf	3,6	;RP1=0, select bank0
  3871  00AA  00B4               	movwf	___flmul@temp+1
  3872  00AB  0870               	movf	?__Umul8_16,w
  3873  00AC  00B3               	movwf	___flmul@temp
  3874  00AD                     i1l2275:
  3875  00AD  0833               	movf	___flmul@temp,w
  3876  00AE  00F9               	movwf	??___flmul
  3877  00AF  01FA               	clrf	??___flmul+1
  3878  00B0  01FB               	clrf	??___flmul+2
  3879  00B1  01FC               	clrf	??___flmul+3
  3880  00B2  087C               	movf	??___flmul+3,w
  3881  00B3  00AC               	movwf	___flmul@grs+3
  3882  00B4  087B               	movf	??___flmul+2,w
  3883  00B5  00AB               	movwf	___flmul@grs+2
  3884  00B6  087A               	movf	??___flmul+1,w
  3885  00B7  00AA               	movwf	___flmul@grs+1
  3886  00B8  0879               	movf	??___flmul,w
  3887  00B9  00A9               	movwf	___flmul@grs
  3888  00BA                     i1l2277:
  3889  00BA  0834               	movf	___flmul@temp+1,w
  3890  00BB  00F9               	movwf	??___flmul
  3891  00BC  01FA               	clrf	??___flmul+1
  3892  00BD  01FB               	clrf	??___flmul+2
  3893  00BE  01FC               	clrf	??___flmul+3
  3894  00BF  087C               	movf	??___flmul+3,w
  3895  00C0  00B2               	movwf	___flmul@prod+3
  3896  00C1  087B               	movf	??___flmul+2,w
  3897  00C2  00B1               	movwf	___flmul@prod+2
  3898  00C3  087A               	movf	??___flmul+1,w
  3899  00C4  00B0               	movwf	___flmul@prod+1
  3900  00C5  0879               	movf	??___flmul,w
  3901  00C6  00AF               	movwf	___flmul@prod
  3902  00C7  0821               	movf	___flmul@b+1,w
  3903  00C8  00F9               	movwf	??___flmul
  3904  00C9  0879               	movf	??___flmul,w
  3905  00CA  00F0               	movwf	__Umul8_16@multiplicand
  3906  00CB  0825               	movf	___flmul@a+1,w
  3907  00CC  120A  158A  22E7  120A  118A  	fcall	__Umul8_16
  3908  00D1  0871               	movf	?__Umul8_16+1,w
  3909  00D2  1283               	bcf	3,5	;RP0=0, select bank0
  3910  00D3  1303               	bcf	3,6	;RP1=0, select bank0
  3911  00D4  00B4               	movwf	___flmul@temp+1
  3912  00D5  0870               	movf	?__Umul8_16,w
  3913  00D6  00B3               	movwf	___flmul@temp
  3914  00D7                     i1l2279:
  3915  00D7  0833               	movf	___flmul@temp,w
  3916  00D8  00F9               	movwf	??___flmul
  3917  00D9  01FA               	clrf	??___flmul+1
  3918  00DA  01FB               	clrf	??___flmul+2
  3919  00DB  01FC               	clrf	??___flmul+3
  3920  00DC  0879               	movf	??___flmul,w
  3921  00DD  07A9               	addwf	___flmul@grs,f
  3922  00DE  087A               	movf	??___flmul+1,w
  3923  00DF  1103               	clrz
  3924  00E0  1803               	skipnc
  3925  00E1  3E01               	addlw	1
  3926  00E2  1903               	skipnz
  3927  00E3  28E5               	goto	u223_21
  3928  00E4  07AA               	addwf	___flmul@grs+1,f
  3929  00E5                     u223_21:
  3930  00E5  087B               	movf	??___flmul+2,w
  3931  00E6  1103               	clrz
  3932  00E7  1803               	skipnc
  3933  00E8  3E01               	addlw	1
  3934  00E9  1903               	skipnz
  3935  00EA  28EC               	goto	u223_22
  3936  00EB  07AB               	addwf	___flmul@grs+2,f
  3937  00EC                     u223_22:
  3938  00EC  087C               	movf	??___flmul+3,w
  3939  00ED  1103               	clrz
  3940  00EE  1803               	skipnc
  3941  00EF  3E01               	addlw	1
  3942  00F0  1903               	skipnz
  3943  00F1  28F3               	goto	u223_23
  3944  00F2  07AC               	addwf	___flmul@grs+3,f
  3945  00F3                     u223_23:
  3946  00F3                     i1l2281:
  3947  00F3  0834               	movf	___flmul@temp+1,w
  3948  00F4  00F9               	movwf	??___flmul
  3949  00F5  01FA               	clrf	??___flmul+1
  3950  00F6  01FB               	clrf	??___flmul+2
  3951  00F7  01FC               	clrf	??___flmul+3
  3952  00F8  0879               	movf	??___flmul,w
  3953  00F9  07AF               	addwf	___flmul@prod,f
  3954  00FA  087A               	movf	??___flmul+1,w
  3955  00FB  1103               	clrz
  3956  00FC  1803               	skipnc
  3957  00FD  3E01               	addlw	1
  3958  00FE  1903               	skipnz
  3959  00FF  2901               	goto	u224_21
  3960  0100  07B0               	addwf	___flmul@prod+1,f
  3961  0101                     u224_21:
  3962  0101  087B               	movf	??___flmul+2,w
  3963  0102  1103               	clrz
  3964  0103  1803               	skipnc
  3965  0104  3E01               	addlw	1
  3966  0105  1903               	skipnz
  3967  0106  2908               	goto	u224_22
  3968  0107  07B1               	addwf	___flmul@prod+2,f
  3969  0108                     u224_22:
  3970  0108  087C               	movf	??___flmul+3,w
  3971  0109  1103               	clrz
  3972  010A  1803               	skipnc
  3973  010B  3E01               	addlw	1
  3974  010C  1903               	skipnz
  3975  010D  290F               	goto	u224_23
  3976  010E  07B2               	addwf	___flmul@prod+3,f
  3977  010F                     u224_23:
  3978  010F  0822               	movf	___flmul@b+2,w
  3979  0110  00F9               	movwf	??___flmul
  3980  0111  0879               	movf	??___flmul,w
  3981  0112  00F0               	movwf	__Umul8_16@multiplicand
  3982  0113  0824               	movf	___flmul@a,w
  3983  0114  120A  158A  22E7  120A  118A  	fcall	__Umul8_16
  3984  0119  0871               	movf	?__Umul8_16+1,w
  3985  011A  1283               	bcf	3,5	;RP0=0, select bank0
  3986  011B  1303               	bcf	3,6	;RP1=0, select bank0
  3987  011C  00B4               	movwf	___flmul@temp+1
  3988  011D  0870               	movf	?__Umul8_16,w
  3989  011E  00B3               	movwf	___flmul@temp
  3990  011F                     i1l2283:
  3991  011F  0833               	movf	___flmul@temp,w
  3992  0120  00F9               	movwf	??___flmul
  3993  0121  01FA               	clrf	??___flmul+1
  3994  0122  01FB               	clrf	??___flmul+2
  3995  0123  01FC               	clrf	??___flmul+3
  3996  0124  0879               	movf	??___flmul,w
  3997  0125  07A9               	addwf	___flmul@grs,f
  3998  0126  087A               	movf	??___flmul+1,w
  3999  0127  1103               	clrz
  4000  0128  1803               	skipnc
  4001  0129  3E01               	addlw	1
  4002  012A  1903               	skipnz
  4003  012B  292D               	goto	u225_21
  4004  012C  07AA               	addwf	___flmul@grs+1,f
  4005  012D                     u225_21:
  4006  012D  087B               	movf	??___flmul+2,w
  4007  012E  1103               	clrz
  4008  012F  1803               	skipnc
  4009  0130  3E01               	addlw	1
  4010  0131  1903               	skipnz
  4011  0132  2934               	goto	u225_22
  4012  0133  07AB               	addwf	___flmul@grs+2,f
  4013  0134                     u225_22:
  4014  0134  087C               	movf	??___flmul+3,w
  4015  0135  1103               	clrz
  4016  0136  1803               	skipnc
  4017  0137  3E01               	addlw	1
  4018  0138  1903               	skipnz
  4019  0139  293B               	goto	u225_23
  4020  013A  07AC               	addwf	___flmul@grs+3,f
  4021  013B                     u225_23:
  4022  013B                     i1l2285:
  4023  013B  0834               	movf	___flmul@temp+1,w
  4024  013C  00F9               	movwf	??___flmul
  4025  013D  01FA               	clrf	??___flmul+1
  4026  013E  01FB               	clrf	??___flmul+2
  4027  013F  01FC               	clrf	??___flmul+3
  4028  0140  0879               	movf	??___flmul,w
  4029  0141  07AF               	addwf	___flmul@prod,f
  4030  0142  087A               	movf	??___flmul+1,w
  4031  0143  1103               	clrz
  4032  0144  1803               	skipnc
  4033  0145  3E01               	addlw	1
  4034  0146  1903               	skipnz
  4035  0147  2949               	goto	u226_21
  4036  0148  07B0               	addwf	___flmul@prod+1,f
  4037  0149                     u226_21:
  4038  0149  087B               	movf	??___flmul+2,w
  4039  014A  1103               	clrz
  4040  014B  1803               	skipnc
  4041  014C  3E01               	addlw	1
  4042  014D  1903               	skipnz
  4043  014E  2950               	goto	u226_22
  4044  014F  07B1               	addwf	___flmul@prod+2,f
  4045  0150                     u226_22:
  4046  0150  087C               	movf	??___flmul+3,w
  4047  0151  1103               	clrz
  4048  0152  1803               	skipnc
  4049  0153  3E01               	addlw	1
  4050  0154  1903               	skipnz
  4051  0155  2957               	goto	u226_23
  4052  0156  07B2               	addwf	___flmul@prod+3,f
  4053  0157                     u226_23:
  4054  0157                     i1l2287:
  4055  0157  3008               	movlw	8
  4056  0158  00F9               	movwf	??___flmul
  4057  0159                     u227_25:
  4058  0159  1003               	clrc
  4059  015A  0DA9               	rlf	___flmul@grs,f
  4060  015B  0DAA               	rlf	___flmul@grs+1,f
  4061  015C  0DAB               	rlf	___flmul@grs+2,f
  4062  015D  0DAC               	rlf	___flmul@grs+3,f
  4063  015E  0BF9               	decfsz	??___flmul,f
  4064  015F  2959               	goto	u227_25
  4065  0160                     i1l2289:
  4066  0160  0821               	movf	___flmul@b+1,w
  4067  0161  00F9               	movwf	??___flmul
  4068  0162  0879               	movf	??___flmul,w
  4069  0163  00F0               	movwf	__Umul8_16@multiplicand
  4070  0164  0824               	movf	___flmul@a,w
  4071  0165  120A  158A  22E7  120A  118A  	fcall	__Umul8_16
  4072  016A  0871               	movf	?__Umul8_16+1,w
  4073  016B  1283               	bcf	3,5	;RP0=0, select bank0
  4074  016C  1303               	bcf	3,6	;RP1=0, select bank0
  4075  016D  00B4               	movwf	___flmul@temp+1
  4076  016E  0870               	movf	?__Umul8_16,w
  4077  016F  00B3               	movwf	___flmul@temp
  4078  0170                     i1l2291:
  4079  0170  0833               	movf	___flmul@temp,w
  4080  0171  00F9               	movwf	??___flmul
  4081  0172  0834               	movf	___flmul@temp+1,w
  4082  0173  00FA               	movwf	??___flmul+1
  4083  0174  01FB               	clrf	??___flmul+2
  4084  0175  01FC               	clrf	??___flmul+3
  4085  0176  0879               	movf	??___flmul,w
  4086  0177  07A9               	addwf	___flmul@grs,f
  4087  0178  087A               	movf	??___flmul+1,w
  4088  0179  1103               	clrz
  4089  017A  1803               	skipnc
  4090  017B  3E01               	addlw	1
  4091  017C  1903               	skipnz
  4092  017D  297F               	goto	u228_21
  4093  017E  07AA               	addwf	___flmul@grs+1,f
  4094  017F                     u228_21:
  4095  017F  087B               	movf	??___flmul+2,w
  4096  0180  1103               	clrz
  4097  0181  1803               	skipnc
  4098  0182  3E01               	addlw	1
  4099  0183  1903               	skipnz
  4100  0184  2986               	goto	u228_22
  4101  0185  07AB               	addwf	___flmul@grs+2,f
  4102  0186                     u228_22:
  4103  0186  087C               	movf	??___flmul+3,w
  4104  0187  1103               	clrz
  4105  0188  1803               	skipnc
  4106  0189  3E01               	addlw	1
  4107  018A  1903               	skipnz
  4108  018B  298D               	goto	u228_23
  4109  018C  07AC               	addwf	___flmul@grs+3,f
  4110  018D                     u228_23:
  4111  018D                     i1l2293:
  4112  018D  0820               	movf	___flmul@b,w
  4113  018E  00F9               	movwf	??___flmul
  4114  018F  0879               	movf	??___flmul,w
  4115  0190  00F0               	movwf	__Umul8_16@multiplicand
  4116  0191  0825               	movf	___flmul@a+1,w
  4117  0192  120A  158A  22E7  120A  118A  	fcall	__Umul8_16
  4118  0197  0871               	movf	?__Umul8_16+1,w
  4119  0198  1283               	bcf	3,5	;RP0=0, select bank0
  4120  0199  1303               	bcf	3,6	;RP1=0, select bank0
  4121  019A  00B4               	movwf	___flmul@temp+1
  4122  019B  0870               	movf	?__Umul8_16,w
  4123  019C  00B3               	movwf	___flmul@temp
  4124  019D                     i1l2295:
  4125  019D  0833               	movf	___flmul@temp,w
  4126  019E  00F9               	movwf	??___flmul
  4127  019F  0834               	movf	___flmul@temp+1,w
  4128  01A0  00FA               	movwf	??___flmul+1
  4129  01A1  01FB               	clrf	??___flmul+2
  4130  01A2  01FC               	clrf	??___flmul+3
  4131  01A3  0879               	movf	??___flmul,w
  4132  01A4  07A9               	addwf	___flmul@grs,f
  4133  01A5  087A               	movf	??___flmul+1,w
  4134  01A6  1103               	clrz
  4135  01A7  1803               	skipnc
  4136  01A8  3E01               	addlw	1
  4137  01A9  1903               	skipnz
  4138  01AA  29AC               	goto	u229_21
  4139  01AB  07AA               	addwf	___flmul@grs+1,f
  4140  01AC                     u229_21:
  4141  01AC  087B               	movf	??___flmul+2,w
  4142  01AD  1103               	clrz
  4143  01AE  1803               	skipnc
  4144  01AF  3E01               	addlw	1
  4145  01B0  1903               	skipnz
  4146  01B1  29B3               	goto	u229_22
  4147  01B2  07AB               	addwf	___flmul@grs+2,f
  4148  01B3                     u229_22:
  4149  01B3  087C               	movf	??___flmul+3,w
  4150  01B4  1103               	clrz
  4151  01B5  1803               	skipnc
  4152  01B6  3E01               	addlw	1
  4153  01B7  1903               	skipnz
  4154  01B8  29BA               	goto	u229_23
  4155  01B9  07AC               	addwf	___flmul@grs+3,f
  4156  01BA                     u229_23:
  4157  01BA                     i1l2297:
  4158  01BA  3008               	movlw	8
  4159  01BB  00F9               	movwf	??___flmul
  4160  01BC                     u230_25:
  4161  01BC  1003               	clrc
  4162  01BD  0DA9               	rlf	___flmul@grs,f
  4163  01BE  0DAA               	rlf	___flmul@grs+1,f
  4164  01BF  0DAB               	rlf	___flmul@grs+2,f
  4165  01C0  0DAC               	rlf	___flmul@grs+3,f
  4166  01C1  0BF9               	decfsz	??___flmul,f
  4167  01C2  29BC               	goto	u230_25
  4168  01C3  0820               	movf	___flmul@b,w
  4169  01C4  00F9               	movwf	??___flmul
  4170  01C5  0879               	movf	??___flmul,w
  4171  01C6  00F0               	movwf	__Umul8_16@multiplicand
  4172  01C7  0824               	movf	___flmul@a,w
  4173  01C8  120A  158A  22E7  120A  118A  	fcall	__Umul8_16
  4174  01CD  0871               	movf	?__Umul8_16+1,w
  4175  01CE  1283               	bcf	3,5	;RP0=0, select bank0
  4176  01CF  1303               	bcf	3,6	;RP1=0, select bank0
  4177  01D0  00B4               	movwf	___flmul@temp+1
  4178  01D1  0870               	movf	?__Umul8_16,w
  4179  01D2  00B3               	movwf	___flmul@temp
  4180  01D3                     i1l2299:
  4181  01D3  0833               	movf	___flmul@temp,w
  4182  01D4  00F9               	movwf	??___flmul
  4183  01D5  0834               	movf	___flmul@temp+1,w
  4184  01D6  00FA               	movwf	??___flmul+1
  4185  01D7  01FB               	clrf	??___flmul+2
  4186  01D8  01FC               	clrf	??___flmul+3
  4187  01D9  0879               	movf	??___flmul,w
  4188  01DA  07A9               	addwf	___flmul@grs,f
  4189  01DB  087A               	movf	??___flmul+1,w
  4190  01DC  1103               	clrz
  4191  01DD  1803               	skipnc
  4192  01DE  3E01               	addlw	1
  4193  01DF  1903               	skipnz
  4194  01E0  29E2               	goto	u231_21
  4195  01E1  07AA               	addwf	___flmul@grs+1,f
  4196  01E2                     u231_21:
  4197  01E2  087B               	movf	??___flmul+2,w
  4198  01E3  1103               	clrz
  4199  01E4  1803               	skipnc
  4200  01E5  3E01               	addlw	1
  4201  01E6  1903               	skipnz
  4202  01E7  29E9               	goto	u231_22
  4203  01E8  07AB               	addwf	___flmul@grs+2,f
  4204  01E9                     u231_22:
  4205  01E9  087C               	movf	??___flmul+3,w
  4206  01EA  1103               	clrz
  4207  01EB  1803               	skipnc
  4208  01EC  3E01               	addlw	1
  4209  01ED  1903               	skipnz
  4210  01EE  29F0               	goto	u231_23
  4211  01EF  07AC               	addwf	___flmul@grs+3,f
  4212  01F0                     u231_23:
  4213  01F0                     i1l2301:
  4214  01F0  0821               	movf	___flmul@b+1,w
  4215  01F1  00F9               	movwf	??___flmul
  4216  01F2  0879               	movf	??___flmul,w
  4217  01F3  00F0               	movwf	__Umul8_16@multiplicand
  4218  01F4  0826               	movf	___flmul@a+2,w
  4219  01F5  120A  158A  22E7  120A  118A  	fcall	__Umul8_16
  4220  01FA  0871               	movf	?__Umul8_16+1,w
  4221  01FB  1283               	bcf	3,5	;RP0=0, select bank0
  4222  01FC  1303               	bcf	3,6	;RP1=0, select bank0
  4223  01FD  00B4               	movwf	___flmul@temp+1
  4224  01FE  0870               	movf	?__Umul8_16,w
  4225  01FF  00B3               	movwf	___flmul@temp
  4226  0200  0833               	movf	___flmul@temp,w
  4227  0201  00F9               	movwf	??___flmul
  4228  0202  0834               	movf	___flmul@temp+1,w
  4229  0203  00FA               	movwf	??___flmul+1
  4230  0204  01FB               	clrf	??___flmul+2
  4231  0205  01FC               	clrf	??___flmul+3
  4232  0206  0879               	movf	??___flmul,w
  4233  0207  07AF               	addwf	___flmul@prod,f
  4234  0208  087A               	movf	??___flmul+1,w
  4235  0209  1103               	clrz
  4236  020A  1803               	skipnc
  4237  020B  3E01               	addlw	1
  4238  020C  1903               	skipnz
  4239  020D  2A0F               	goto	u232_21
  4240  020E  07B0               	addwf	___flmul@prod+1,f
  4241  020F                     u232_21:
  4242  020F  087B               	movf	??___flmul+2,w
  4243  0210  1103               	clrz
  4244  0211  1803               	skipnc
  4245  0212  3E01               	addlw	1
  4246  0213  1903               	skipnz
  4247  0214  2A16               	goto	u232_22
  4248  0215  07B1               	addwf	___flmul@prod+2,f
  4249  0216                     u232_22:
  4250  0216  087C               	movf	??___flmul+3,w
  4251  0217  1103               	clrz
  4252  0218  1803               	skipnc
  4253  0219  3E01               	addlw	1
  4254  021A  1903               	skipnz
  4255  021B  2A1D               	goto	u232_23
  4256  021C  07B2               	addwf	___flmul@prod+3,f
  4257  021D                     u232_23:
  4258  021D                     i1l2303:
  4259  021D  0822               	movf	___flmul@b+2,w
  4260  021E  00F9               	movwf	??___flmul
  4261  021F  0879               	movf	??___flmul,w
  4262  0220  00F0               	movwf	__Umul8_16@multiplicand
  4263  0221  0825               	movf	___flmul@a+1,w
  4264  0222  120A  158A  22E7  120A  118A  	fcall	__Umul8_16
  4265  0227  0871               	movf	?__Umul8_16+1,w
  4266  0228  1283               	bcf	3,5	;RP0=0, select bank0
  4267  0229  1303               	bcf	3,6	;RP1=0, select bank0
  4268  022A  00B4               	movwf	___flmul@temp+1
  4269  022B  0870               	movf	?__Umul8_16,w
  4270  022C  00B3               	movwf	___flmul@temp
  4271  022D                     i1l2305:
  4272  022D  0833               	movf	___flmul@temp,w
  4273  022E  00F9               	movwf	??___flmul
  4274  022F  0834               	movf	___flmul@temp+1,w
  4275  0230  00FA               	movwf	??___flmul+1
  4276  0231  01FB               	clrf	??___flmul+2
  4277  0232  01FC               	clrf	??___flmul+3
  4278  0233  0879               	movf	??___flmul,w
  4279  0234  07AF               	addwf	___flmul@prod,f
  4280  0235  087A               	movf	??___flmul+1,w
  4281  0236  1103               	clrz
  4282  0237  1803               	skipnc
  4283  0238  3E01               	addlw	1
  4284  0239  1903               	skipnz
  4285  023A  2A3C               	goto	u233_21
  4286  023B  07B0               	addwf	___flmul@prod+1,f
  4287  023C                     u233_21:
  4288  023C  087B               	movf	??___flmul+2,w
  4289  023D  1103               	clrz
  4290  023E  1803               	skipnc
  4291  023F  3E01               	addlw	1
  4292  0240  1903               	skipnz
  4293  0241  2A43               	goto	u233_22
  4294  0242  07B1               	addwf	___flmul@prod+2,f
  4295  0243                     u233_22:
  4296  0243  087C               	movf	??___flmul+3,w
  4297  0244  1103               	clrz
  4298  0245  1803               	skipnc
  4299  0246  3E01               	addlw	1
  4300  0247  1903               	skipnz
  4301  0248  2A4A               	goto	u233_23
  4302  0249  07B2               	addwf	___flmul@prod+3,f
  4303  024A                     u233_23:
  4304  024A  0822               	movf	___flmul@b+2,w
  4305  024B  00F9               	movwf	??___flmul
  4306  024C  0879               	movf	??___flmul,w
  4307  024D  00F0               	movwf	__Umul8_16@multiplicand
  4308  024E  0826               	movf	___flmul@a+2,w
  4309  024F  120A  158A  22E7  120A  118A  	fcall	__Umul8_16
  4310  0254  0871               	movf	?__Umul8_16+1,w
  4311  0255  1283               	bcf	3,5	;RP0=0, select bank0
  4312  0256  1303               	bcf	3,6	;RP1=0, select bank0
  4313  0257  00B4               	movwf	___flmul@temp+1
  4314  0258  0870               	movf	?__Umul8_16,w
  4315  0259  00B3               	movwf	___flmul@temp
  4316  025A                     i1l2307:
  4317  025A  0833               	movf	___flmul@temp,w
  4318  025B  00F9               	movwf	??___flmul
  4319  025C  0834               	movf	___flmul@temp+1,w
  4320  025D  00FA               	movwf	??___flmul+1
  4321  025E  01FB               	clrf	??___flmul+2
  4322  025F  01FC               	clrf	??___flmul+3
  4323  0260  3008               	movlw	8
  4324  0261                     u234_25:
  4325  0261  1003               	clrc
  4326  0262  0DF9               	rlf	??___flmul,f
  4327  0263  0DFA               	rlf	??___flmul+1,f
  4328  0264  0DFB               	rlf	??___flmul+2,f
  4329  0265  0DFC               	rlf	??___flmul+3,f
  4330  0266                     u234_20:
  4331  0266  3EFF               	addlw	-1
  4332  0267  1D03               	skipz
  4333  0268  2A61               	goto	u234_25
  4334  0269  0879               	movf	??___flmul,w
  4335  026A  07AF               	addwf	___flmul@prod,f
  4336  026B  087A               	movf	??___flmul+1,w
  4337  026C  1103               	clrz
  4338  026D  1803               	skipnc
  4339  026E  3E01               	addlw	1
  4340  026F  1903               	skipnz
  4341  0270  2A72               	goto	u235_21
  4342  0271  07B0               	addwf	___flmul@prod+1,f
  4343  0272                     u235_21:
  4344  0272  087B               	movf	??___flmul+2,w
  4345  0273  1103               	clrz
  4346  0274  1803               	skipnc
  4347  0275  3E01               	addlw	1
  4348  0276  1903               	skipnz
  4349  0277  2A79               	goto	u235_22
  4350  0278  07B1               	addwf	___flmul@prod+2,f
  4351  0279                     u235_22:
  4352  0279  087C               	movf	??___flmul+3,w
  4353  027A  1103               	clrz
  4354  027B  1803               	skipnc
  4355  027C  3E01               	addlw	1
  4356  027D  1903               	skipnz
  4357  027E  2A80               	goto	u235_23
  4358  027F  07B2               	addwf	___flmul@prod+3,f
  4359  0280                     u235_23:
  4360  0280                     i1l2309:
  4361  0280  0829               	movf	___flmul@grs,w
  4362  0281  00F9               	movwf	??___flmul
  4363  0282  082A               	movf	___flmul@grs+1,w
  4364  0283  00FA               	movwf	??___flmul+1
  4365  0284  082B               	movf	___flmul@grs+2,w
  4366  0285  00FB               	movwf	??___flmul+2
  4367  0286  082C               	movf	___flmul@grs+3,w
  4368  0287  00FC               	movwf	??___flmul+3
  4369  0288  3018               	movlw	24
  4370  0289                     u236_25:
  4371  0289  1003               	clrc
  4372  028A  0CFC               	rrf	??___flmul+3,f
  4373  028B  0CFB               	rrf	??___flmul+2,f
  4374  028C  0CFA               	rrf	??___flmul+1,f
  4375  028D  0CF9               	rrf	??___flmul,f
  4376  028E                     u236_20:
  4377  028E  3EFF               	addlw	-1
  4378  028F  1D03               	skipz
  4379  0290  2A89               	goto	u236_25
  4380  0291  0879               	movf	??___flmul,w
  4381  0292  07AF               	addwf	___flmul@prod,f
  4382  0293  087A               	movf	??___flmul+1,w
  4383  0294  1103               	clrz
  4384  0295  1803               	skipnc
  4385  0296  3E01               	addlw	1
  4386  0297  1903               	skipnz
  4387  0298  2A9A               	goto	u237_21
  4388  0299  07B0               	addwf	___flmul@prod+1,f
  4389  029A                     u237_21:
  4390  029A  087B               	movf	??___flmul+2,w
  4391  029B  1103               	clrz
  4392  029C  1803               	skipnc
  4393  029D  3E01               	addlw	1
  4394  029E  1903               	skipnz
  4395  029F  2AA1               	goto	u237_22
  4396  02A0  07B1               	addwf	___flmul@prod+2,f
  4397  02A1                     u237_22:
  4398  02A1  087C               	movf	??___flmul+3,w
  4399  02A2  1103               	clrz
  4400  02A3  1803               	skipnc
  4401  02A4  3E01               	addlw	1
  4402  02A5  1903               	skipnz
  4403  02A6  2AA8               	goto	u237_23
  4404  02A7  07B2               	addwf	___flmul@prod+3,f
  4405  02A8                     u237_23:
  4406  02A8                     i1l2311:
  4407  02A8  3008               	movlw	8
  4408  02A9  00F9               	movwf	??___flmul
  4409  02AA                     u238_25:
  4410  02AA  1003               	clrc
  4411  02AB  0DA9               	rlf	___flmul@grs,f
  4412  02AC  0DAA               	rlf	___flmul@grs+1,f
  4413  02AD  0DAB               	rlf	___flmul@grs+2,f
  4414  02AE  0DAC               	rlf	___flmul@grs+3,f
  4415  02AF  0BF9               	decfsz	??___flmul,f
  4416  02B0  2AAA               	goto	u238_25
  4417  02B1                     i1l2313:
  4418  02B1  082E               	movf	___flmul@bexp,w
  4419  02B2  072D               	addwf	___flmul@aexp,w
  4420  02B3  00F9               	movwf	??___flmul
  4421  02B4  01FA               	clrf	??___flmul+1
  4422  02B5  0DFA               	rlf	??___flmul+1,f
  4423  02B6  0879               	movf	??___flmul,w
  4424  02B7  3E82               	addlw	130
  4425  02B8  00B3               	movwf	___flmul@temp
  4426  02B9  087A               	movf	??___flmul+1,w
  4427  02BA  1803               	skipnc
  4428  02BB  3E01               	addlw	1
  4429  02BC  3EFF               	addlw	255
  4430  02BD  00B4               	movwf	___flmul@temp+1
  4431  02BE  2ADC               	goto	i1l2325
  4432  02BF                     i1l2315:
  4433  02BF  3001               	movlw	1
  4434  02C0  00F9               	movwf	??___flmul
  4435  02C1                     u239_25:
  4436  02C1  1003               	clrc
  4437  02C2  0DAF               	rlf	___flmul@prod,f
  4438  02C3  0DB0               	rlf	___flmul@prod+1,f
  4439  02C4  0DB1               	rlf	___flmul@prod+2,f
  4440  02C5  0DB2               	rlf	___flmul@prod+3,f
  4441  02C6  0BF9               	decfsz	??___flmul,f
  4442  02C7  2AC1               	goto	u239_25
  4443  02C8                     i1l2317:
  4444  02C8  1FAC               	btfss	___flmul@grs+3,7
  4445  02C9  2ACB               	goto	u240_21
  4446  02CA  2ACC               	goto	u240_20
  4447  02CB                     u240_21:
  4448  02CB  2ACD               	goto	i1l2321
  4449  02CC                     u240_20:
  4450  02CC                     i1l2319:
  4451  02CC  142F               	bsf	___flmul@prod,0
  4452  02CD                     i1l2321:
  4453  02CD  3001               	movlw	1
  4454  02CE  00F9               	movwf	??___flmul
  4455  02CF                     u241_25:
  4456  02CF  1003               	clrc
  4457  02D0  0DA9               	rlf	___flmul@grs,f
  4458  02D1  0DAA               	rlf	___flmul@grs+1,f
  4459  02D2  0DAB               	rlf	___flmul@grs+2,f
  4460  02D3  0DAC               	rlf	___flmul@grs+3,f
  4461  02D4  0BF9               	decfsz	??___flmul,f
  4462  02D5  2ACF               	goto	u241_25
  4463  02D6                     i1l2323:
  4464  02D6  30FF               	movlw	255
  4465  02D7  07B3               	addwf	___flmul@temp,f
  4466  02D8  1803               	skipnc
  4467  02D9  0AB4               	incf	___flmul@temp+1,f
  4468  02DA  30FF               	movlw	255
  4469  02DB  07B4               	addwf	___flmul@temp+1,f
  4470  02DC                     i1l2325:
  4471  02DC  1FB1               	btfss	___flmul@prod+2,7
  4472  02DD  2ADF               	goto	u242_21
  4473  02DE  2AE0               	goto	u242_20
  4474  02DF                     u242_21:
  4475  02DF  2ABF               	goto	i1l2315
  4476  02E0                     u242_20:
  4477  02E0                     i1l2327:
  4478  02E0  01AD               	clrf	___flmul@aexp
  4479  02E1                     i1l2329:
  4480  02E1  1FAC               	btfss	___flmul@grs+3,7
  4481  02E2  2AE4               	goto	u243_21
  4482  02E3  2AE5               	goto	u243_20
  4483  02E4                     u243_21:
  4484  02E4  2B01               	goto	i1l2337
  4485  02E5                     u243_20:
  4486  02E5                     i1l2331:
  4487  02E5  30FF               	movlw	255
  4488  02E6  0529               	andwf	___flmul@grs,w
  4489  02E7  00F9               	movwf	??___flmul
  4490  02E8  30FF               	movlw	255
  4491  02E9  052A               	andwf	___flmul@grs+1,w
  4492  02EA  00FA               	movwf	??___flmul+1
  4493  02EB  30FF               	movlw	255
  4494  02EC  052B               	andwf	___flmul@grs+2,w
  4495  02ED  00FB               	movwf	??___flmul+2
  4496  02EE  307F               	movlw	127
  4497  02EF  052C               	andwf	___flmul@grs+3,w
  4498  02F0  00FC               	movwf	??___flmul+3
  4499  02F1  087C               	movf	??___flmul+3,w
  4500  02F2  047B               	iorwf	??___flmul+2,w
  4501  02F3  047A               	iorwf	??___flmul+1,w
  4502  02F4  0479               	iorwf	??___flmul,w
  4503  02F5  1903               	skipnz
  4504  02F6  2AF8               	goto	u244_21
  4505  02F7  2AF9               	goto	u244_20
  4506  02F8                     u244_21:
  4507  02F8  2AFC               	goto	i1l694
  4508  02F9                     u244_20:
  4509  02F9                     i1l2333:
  4510  02F9  01AD               	clrf	___flmul@aexp
  4511  02FA  0AAD               	incf	___flmul@aexp,f
  4512  02FB  2B01               	goto	i1l2337
  4513  02FC                     i1l694:
  4514  02FC  1C2F               	btfss	___flmul@prod,0
  4515  02FD  2AFF               	goto	u245_21
  4516  02FE  2B00               	goto	u245_20
  4517  02FF                     u245_21:
  4518  02FF  2B01               	goto	i1l2337
  4519  0300                     u245_20:
  4520  0300  2AF9               	goto	i1l2333
  4521  0301                     i1l2337:
  4522  0301  082D               	movf	___flmul@aexp,w
  4523  0302  1903               	btfsc	3,2
  4524  0303  2B05               	goto	u246_21
  4525  0304  2B06               	goto	u246_20
  4526  0305                     u246_21:
  4527  0305  2B37               	goto	i1l2347
  4528  0306                     u246_20:
  4529  0306                     i1l2339:
  4530  0306  3001               	movlw	1
  4531  0307  07AF               	addwf	___flmul@prod,f
  4532  0308  3000               	movlw	0
  4533  0309  1803               	skipnc
  4534  030A  3001               	movlw	1
  4535  030B  07B0               	addwf	___flmul@prod+1,f
  4536  030C  3000               	movlw	0
  4537  030D  1803               	skipnc
  4538  030E  3001               	movlw	1
  4539  030F  07B1               	addwf	___flmul@prod+2,f
  4540  0310  3000               	movlw	0
  4541  0311  1803               	skipnc
  4542  0312  3001               	movlw	1
  4543  0313  07B2               	addwf	___flmul@prod+3,f
  4544  0314                     i1l2341:
  4545  0314  1C32               	btfss	___flmul@prod+3,0
  4546  0315  2B17               	goto	u247_21
  4547  0316  2B18               	goto	u247_20
  4548  0317                     u247_21:
  4549  0317  2B37               	goto	i1l2347
  4550  0318                     u247_20:
  4551  0318                     i1l2343:
  4552  0318  082F               	movf	___flmul@prod,w
  4553  0319  00F9               	movwf	??___flmul
  4554  031A  0830               	movf	___flmul@prod+1,w
  4555  031B  00FA               	movwf	??___flmul+1
  4556  031C  0831               	movf	___flmul@prod+2,w
  4557  031D  00FB               	movwf	??___flmul+2
  4558  031E  0832               	movf	___flmul@prod+3,w
  4559  031F  00FC               	movwf	??___flmul+3
  4560  0320  3001               	movlw	1
  4561  0321  00FD               	movwf	??___flmul+4
  4562  0322                     u248_25:
  4563  0322  0D7C               	rlf	??___flmul+3,w
  4564  0323  0CFC               	rrf	??___flmul+3,f
  4565  0324  0CFB               	rrf	??___flmul+2,f
  4566  0325  0CFA               	rrf	??___flmul+1,f
  4567  0326  0CF9               	rrf	??___flmul,f
  4568  0327                     u248_20:
  4569  0327  0BFD               	decfsz	??___flmul+4,f
  4570  0328  2B22               	goto	u248_25
  4571  0329  087C               	movf	??___flmul+3,w
  4572  032A  00B2               	movwf	___flmul@prod+3
  4573  032B  087B               	movf	??___flmul+2,w
  4574  032C  00B1               	movwf	___flmul@prod+2
  4575  032D  087A               	movf	??___flmul+1,w
  4576  032E  00B0               	movwf	___flmul@prod+1
  4577  032F  0879               	movf	??___flmul,w
  4578  0330  00AF               	movwf	___flmul@prod
  4579  0331                     i1l2345:
  4580  0331  3001               	movlw	1
  4581  0332  07B3               	addwf	___flmul@temp,f
  4582  0333  1803               	skipnc
  4583  0334  0AB4               	incf	___flmul@temp+1,f
  4584  0335  3000               	movlw	0
  4585  0336  07B4               	addwf	___flmul@temp+1,f
  4586  0337                     i1l2347:
  4587  0337  0834               	movf	___flmul@temp+1,w
  4588  0338  3A80               	xorlw	128
  4589  0339  00FF               	movwf	btemp+1
  4590  033A  3080               	movlw	128
  4591  033B  027F               	subwf	btemp+1,w
  4592  033C  1D03               	skipz
  4593  033D  2B40               	goto	u249_25
  4594  033E  30FF               	movlw	255
  4595  033F  0233               	subwf	___flmul@temp,w
  4596  0340                     u249_25:
  4597  0340  1C03               	skipc
  4598  0341  2B43               	goto	u249_21
  4599  0342  2B44               	goto	u249_20
  4600  0343                     u249_21:
  4601  0343  2B4F               	goto	i1l2351
  4602  0344                     u249_20:
  4603  0344                     i1l2349:
  4604  0344  307F               	movlw	127
  4605  0345  1283               	bcf	3,5	;RP0=0, select bank0
  4606  0346  1303               	bcf	3,6	;RP1=0, select bank0
  4607  0347  00B2               	movwf	___flmul@prod+3
  4608  0348  3080               	movlw	128
  4609  0349  00B1               	movwf	___flmul@prod+2
  4610  034A  3000               	movlw	0
  4611  034B  00B0               	movwf	___flmul@prod+1
  4612  034C  3000               	movlw	0
  4613  034D  00AF               	movwf	___flmul@prod
  4614  034E  2B84               	goto	i1l700
  4615  034F                     i1l2351:
  4616  034F  1283               	bcf	3,5	;RP0=0, select bank0
  4617  0350  1303               	bcf	3,6	;RP1=0, select bank0
  4618  0351  0834               	movf	___flmul@temp+1,w
  4619  0352  3A80               	xorlw	128
  4620  0353  00FF               	movwf	btemp+1
  4621  0354  3080               	movlw	128
  4622  0355  027F               	subwf	btemp+1,w
  4623  0356  1D03               	skipz
  4624  0357  2B5A               	goto	u250_25
  4625  0358  3001               	movlw	1
  4626  0359  0233               	subwf	___flmul@temp,w
  4627  035A                     u250_25:
  4628  035A  1803               	skipnc
  4629  035B  2B5D               	goto	u250_21
  4630  035C  2B5E               	goto	u250_20
  4631  035D                     u250_21:
  4632  035D  2B6A               	goto	i1l2357
  4633  035E                     u250_20:
  4634  035E                     i1l2353:
  4635  035E  3000               	movlw	0
  4636  035F  1283               	bcf	3,5	;RP0=0, select bank0
  4637  0360  1303               	bcf	3,6	;RP1=0, select bank0
  4638  0361  00B2               	movwf	___flmul@prod+3
  4639  0362  3000               	movlw	0
  4640  0363  00B1               	movwf	___flmul@prod+2
  4641  0364  3000               	movlw	0
  4642  0365  00B0               	movwf	___flmul@prod+1
  4643  0366  3000               	movlw	0
  4644  0367  00AF               	movwf	___flmul@prod
  4645  0368                     i1l2355:
  4646  0368  01A8               	clrf	___flmul@sign
  4647  0369  2B84               	goto	i1l700
  4648  036A                     i1l2357:
  4649  036A  1283               	bcf	3,5	;RP0=0, select bank0
  4650  036B  1303               	bcf	3,6	;RP1=0, select bank0
  4651  036C  0833               	movf	___flmul@temp,w
  4652  036D  00F9               	movwf	??___flmul
  4653  036E  0879               	movf	??___flmul,w
  4654  036F  00AE               	movwf	___flmul@bexp
  4655  0370  30FF               	movlw	255
  4656  0371  05AF               	andwf	___flmul@prod,f
  4657  0372  30FF               	movlw	255
  4658  0373  05B0               	andwf	___flmul@prod+1,f
  4659  0374  307F               	movlw	127
  4660  0375  05B1               	andwf	___flmul@prod+2,f
  4661  0376  3000               	movlw	0
  4662  0377  05B2               	andwf	___flmul@prod+3,f
  4663  0378                     i1l2359:
  4664  0378  1C2E               	btfss	___flmul@bexp,0
  4665  0379  2B7B               	goto	u251_21
  4666  037A  2B7C               	goto	u251_20
  4667  037B                     u251_21:
  4668  037B  2B7D               	goto	i1l2363
  4669  037C                     u251_20:
  4670  037C                     i1l2361:
  4671  037C  17B1               	bsf	___flmul@prod+2,7
  4672  037D                     i1l2363:
  4673  037D  082E               	movf	___flmul@bexp,w
  4674  037E  00F9               	movwf	??___flmul
  4675  037F  1003               	clrc
  4676  0380  0C79               	rrf	??___flmul,w
  4677  0381  00FA               	movwf	??___flmul+1
  4678  0382  087A               	movf	??___flmul+1,w
  4679  0383  00B2               	movwf	___flmul@prod+3
  4680  0384                     i1l700:
  4681  0384  0828               	movf	___flmul@sign,w
  4682  0385  00F9               	movwf	??___flmul
  4683  0386  0879               	movf	??___flmul,w
  4684  0387  04B2               	iorwf	___flmul@prod+3,f
  4685  0388                     i1l2365:
  4686  0388  0832               	movf	___flmul@prod+3,w
  4687  0389  00A3               	movwf	?___flmul+3
  4688  038A  0831               	movf	___flmul@prod+2,w
  4689  038B  00A2               	movwf	?___flmul+2
  4690  038C  0830               	movf	___flmul@prod+1,w
  4691  038D  00A1               	movwf	?___flmul+1
  4692  038E  082F               	movf	___flmul@prod,w
  4693  038F  00A0               	movwf	?___flmul
  4694  0390                     i1l688:
  4695  0390  0008               	return
  4696  0391                     __end_of___flmul:
  4697                           
  4698                           	psect	text17
  4699  0AE7                     __ptext17:	
  4700 ;; *************** function __Umul8_16 *****************
  4701 ;; Defined at:
  4702 ;;		line 4 in file "C:\Program Files\Microchip\xc8\v2.30\pic\sources\c90\common\Umul8_16.c"
  4703 ;; Parameters:    Size  Location     Type
  4704 ;;  multiplier      1    wreg     unsigned char 
  4705 ;;  multiplicand    1    0[COMMON] unsigned char 
  4706 ;; Auto vars:     Size  Location     Type
  4707 ;;  multiplier      1    8[COMMON] unsigned char 
  4708 ;;  word_mpld       2    6[COMMON] unsigned int 
  4709 ;;  product         2    4[COMMON] unsigned int 
  4710 ;; Return value:  Size  Location     Type
  4711 ;;                  2    0[COMMON] unsigned int 
  4712 ;; Registers used:
  4713 ;;		wreg, status,2, status,0
  4714 ;; Tracked objects:
  4715 ;;		On entry : 0/0
  4716 ;;		On exit  : 0/0
  4717 ;;		Unchanged: 0/0
  4718 ;; Data sizes:     COMMON   BANK0   BANK1   BANK3   BANK2
  4719 ;;      Params:         2       0       0       0       0
  4720 ;;      Locals:         5       0       0       0       0
  4721 ;;      Temps:          2       0       0       0       0
  4722 ;;      Totals:         9       0       0       0       0
  4723 ;;Total ram usage:        9 bytes
  4724 ;; Hardware stack levels used:    1
  4725 ;; This function calls:
  4726 ;;		Nothing
  4727 ;; This function is called by:
  4728 ;;		___flmul
  4729 ;; This function uses a non-reentrant model
  4730 ;;
  4731                           
  4732                           
  4733                           ;psect for function __Umul8_16
  4734  0AE7                     __Umul8_16:
  4735                           
  4736                           ;incstack = 0
  4737                           ; Regs used in __Umul8_16: [wreg+status,2+status,0]
  4738                           ;__Umul8_16@multiplier stored from wreg
  4739  0AE7  00F8               	movwf	__Umul8_16@multiplier
  4740  0AE8                     i1l1783:
  4741  0AE8  01F4               	clrf	__Umul8_16@product
  4742  0AE9  01F5               	clrf	__Umul8_16@product+1
  4743  0AEA                     i1l1785:
  4744  0AEA  0870               	movf	__Umul8_16@multiplicand,w
  4745  0AEB  00F2               	movwf	??__Umul8_16
  4746  0AEC  01F3               	clrf	??__Umul8_16+1
  4747  0AED  0872               	movf	??__Umul8_16,w
  4748  0AEE  00F6               	movwf	__Umul8_16@word_mpld
  4749  0AEF  0873               	movf	??__Umul8_16+1,w
  4750  0AF0  00F7               	movwf	__Umul8_16@word_mpld+1
  4751  0AF1                     i1l1787:
  4752  0AF1  1C78               	btfss	__Umul8_16@multiplier,0
  4753  0AF2  2AF4               	goto	u144_21
  4754  0AF3  2AF5               	goto	u144_20
  4755  0AF4                     u144_21:
  4756  0AF4  2AFB               	goto	i1l707
  4757  0AF5                     u144_20:
  4758  0AF5                     i1l1789:
  4759  0AF5  0876               	movf	__Umul8_16@word_mpld,w
  4760  0AF6  07F4               	addwf	__Umul8_16@product,f
  4761  0AF7  1803               	skipnc
  4762  0AF8  0AF5               	incf	__Umul8_16@product+1,f
  4763  0AF9  0877               	movf	__Umul8_16@word_mpld+1,w
  4764  0AFA  07F5               	addwf	__Umul8_16@product+1,f
  4765  0AFB                     i1l707:
  4766  0AFB  3001               	movlw	1
  4767  0AFC                     u145_25:
  4768  0AFC  1003               	clrc
  4769  0AFD  0DF6               	rlf	__Umul8_16@word_mpld,f
  4770  0AFE  0DF7               	rlf	__Umul8_16@word_mpld+1,f
  4771  0AFF  3EFF               	addlw	-1
  4772  0B00  1D03               	skipz
  4773  0B01  2AFC               	goto	u145_25
  4774  0B02  1003               	clrc
  4775  0B03  0CF8               	rrf	__Umul8_16@multiplier,f
  4776  0B04                     i1l1791:
  4777  0B04  0878               	movf	__Umul8_16@multiplier,w
  4778  0B05  1D03               	btfss	3,2
  4779  0B06  2B08               	goto	u146_21
  4780  0B07  2B09               	goto	u146_20
  4781  0B08                     u146_21:
  4782  0B08  2AF1               	goto	i1l1787
  4783  0B09                     u146_20:
  4784  0B09                     i1l1793:
  4785  0B09  0875               	movf	__Umul8_16@product+1,w
  4786  0B0A  00F1               	movwf	?__Umul8_16+1
  4787  0B0B  0874               	movf	__Umul8_16@product,w
  4788  0B0C  00F0               	movwf	?__Umul8_16
  4789  0B0D                     i1l709:
  4790  0B0D  0008               	return
  4791  0B0E                     __end_of__Umul8_16:
  4792                           
  4793                           	psect	text18
  4794  057F                     __ptext18:	
  4795 ;; *************** function ___fldiv *****************
  4796 ;; Defined at:
  4797 ;;		line 8 in file "C:\Program Files\Microchip\xc8\v2.30\pic\sources\c90\common\sprcdiv.c"
  4798 ;; Parameters:    Size  Location     Type
  4799 ;;  a               4    0[COMMON] unsigned int 
  4800 ;;  b               4    4[COMMON] unsigned int 
  4801 ;; Auto vars:     Size  Location     Type
  4802 ;;  grs             4    7[BANK0 ] unsigned long 
  4803 ;;  rem             4    0[BANK0 ] unsigned long 
  4804 ;;  new_exp         2    5[BANK0 ] int 
  4805 ;;  aexp            1   12[BANK0 ] unsigned char 
  4806 ;;  bexp            1   11[BANK0 ] unsigned char 
  4807 ;;  sign            1    4[BANK0 ] unsigned char 
  4808 ;; Return value:  Size  Location     Type
  4809 ;;                  4    0[COMMON] unsigned char 
  4810 ;; Registers used:
  4811 ;;		wreg, status,2, status,0, btemp+1
  4812 ;; Tracked objects:
  4813 ;;		On entry : 0/0
  4814 ;;		On exit  : 0/0
  4815 ;;		Unchanged: 0/0
  4816 ;; Data sizes:     COMMON   BANK0   BANK1   BANK3   BANK2
  4817 ;;      Params:         8       0       0       0       0
  4818 ;;      Locals:         0      13       0       0       0
  4819 ;;      Temps:          5       0       0       0       0
  4820 ;;      Totals:        13      13       0       0       0
  4821 ;;Total ram usage:       26 bytes
  4822 ;; Hardware stack levels used:    1
  4823 ;; This function calls:
  4824 ;;		Nothing
  4825 ;; This function is called by:
  4826 ;;		_Count_Up
  4827 ;; This function uses a non-reentrant model
  4828 ;;
  4829                           
  4830                           
  4831                           ;psect for function ___fldiv
  4832  057F                     ___fldiv:
  4833  057F                     i1l2087:	
  4834                           ;incstack = 0
  4835                           ; Regs used in ___fldiv: [wreg+status,2+status,0+btemp+1]
  4836                           
  4837  057F  0877               	movf	___fldiv@b+3,w
  4838  0580  3980               	andlw	128
  4839  0581  00F8               	movwf	??___fldiv
  4840  0582  0878               	movf	??___fldiv,w
  4841  0583  1283               	bcf	3,5	;RP0=0, select bank0
  4842  0584  1303               	bcf	3,6	;RP1=0, select bank0
  4843  0585  00A4               	movwf	___fldiv@sign
  4844  0586                     i1l2089:
  4845  0586  0877               	movf	___fldiv@b+3,w
  4846  0587  00F8               	movwf	??___fldiv
  4847  0588  0778               	addwf	??___fldiv,w
  4848  0589  00F9               	movwf	??___fldiv+1
  4849  058A  0879               	movf	??___fldiv+1,w
  4850  058B  00AB               	movwf	___fldiv@bexp
  4851  058C                     i1l2091:
  4852  058C  1FF6               	btfss	___fldiv@b+2,7
  4853  058D  2D8F               	goto	u185_21
  4854  058E  2D90               	goto	u185_20
  4855  058F                     u185_21:
  4856  058F  2D91               	goto	i1l2095
  4857  0590                     u185_20:
  4858  0590                     i1l2093:
  4859  0590  142B               	bsf	___fldiv@bexp,0
  4860  0591                     i1l2095:
  4861  0591  082B               	movf	___fldiv@bexp,w
  4862  0592  1903               	btfsc	3,2
  4863  0593  2D95               	goto	u186_21
  4864  0594  2D96               	goto	u186_20
  4865  0595                     u186_21:
  4866  0595  2DA6               	goto	i1l2105
  4867  0596                     u186_20:
  4868  0596                     i1l2097:
  4869  0596  0A2B               	incf	___fldiv@bexp,w
  4870  0597  1D03               	btfss	3,2
  4871  0598  2D9A               	goto	u187_21
  4872  0599  2D9B               	goto	u187_20
  4873  059A                     u187_21:
  4874  059A  2DA3               	goto	i1l2101
  4875  059B                     u187_20:
  4876  059B                     i1l2099:
  4877  059B  3000               	movlw	0
  4878  059C  00F7               	movwf	___fldiv@b+3
  4879  059D  3000               	movlw	0
  4880  059E  00F6               	movwf	___fldiv@b+2
  4881  059F  3000               	movlw	0
  4882  05A0  00F5               	movwf	___fldiv@b+1
  4883  05A1  3000               	movlw	0
  4884  05A2  00F4               	movwf	___fldiv@b
  4885  05A3                     i1l2101:
  4886  05A3  17F6               	bsf	___fldiv@b+2,7
  4887  05A4                     i1l2103:
  4888  05A4  01F7               	clrf	___fldiv@b+3
  4889  05A5  2DAE               	goto	i1l2107
  4890  05A6                     i1l2105:
  4891  05A6  3000               	movlw	0
  4892  05A7  00F7               	movwf	___fldiv@b+3
  4893  05A8  3000               	movlw	0
  4894  05A9  00F6               	movwf	___fldiv@b+2
  4895  05AA  3000               	movlw	0
  4896  05AB  00F5               	movwf	___fldiv@b+1
  4897  05AC  3000               	movlw	0
  4898  05AD  00F4               	movwf	___fldiv@b
  4899  05AE                     i1l2107:
  4900  05AE  0873               	movf	___fldiv@a+3,w
  4901  05AF  3980               	andlw	128
  4902  05B0  00F8               	movwf	??___fldiv
  4903  05B1  0878               	movf	??___fldiv,w
  4904  05B2  06A4               	xorwf	___fldiv@sign,f
  4905  05B3                     i1l2109:
  4906  05B3  0873               	movf	___fldiv@a+3,w
  4907  05B4  00F8               	movwf	??___fldiv
  4908  05B5  0778               	addwf	??___fldiv,w
  4909  05B6  00F9               	movwf	??___fldiv+1
  4910  05B7  0879               	movf	??___fldiv+1,w
  4911  05B8  00AC               	movwf	___fldiv@aexp
  4912  05B9                     i1l2111:
  4913  05B9  1FF2               	btfss	___fldiv@a+2,7
  4914  05BA  2DBC               	goto	u188_21
  4915  05BB  2DBD               	goto	u188_20
  4916  05BC                     u188_21:
  4917  05BC  2DBE               	goto	i1l2115
  4918  05BD                     u188_20:
  4919  05BD                     i1l2113:
  4920  05BD  142C               	bsf	___fldiv@aexp,0
  4921  05BE                     i1l2115:
  4922  05BE  082C               	movf	___fldiv@aexp,w
  4923  05BF  1903               	btfsc	3,2
  4924  05C0  2DC2               	goto	u189_21
  4925  05C1  2DC3               	goto	u189_20
  4926  05C2                     u189_21:
  4927  05C2  2DD3               	goto	i1l2125
  4928  05C3                     u189_20:
  4929  05C3                     i1l2117:
  4930  05C3  0A2C               	incf	___fldiv@aexp,w
  4931  05C4  1D03               	btfss	3,2
  4932  05C5  2DC7               	goto	u190_21
  4933  05C6  2DC8               	goto	u190_20
  4934  05C7                     u190_21:
  4935  05C7  2DD0               	goto	i1l2121
  4936  05C8                     u190_20:
  4937  05C8                     i1l2119:
  4938  05C8  3000               	movlw	0
  4939  05C9  00F3               	movwf	___fldiv@a+3
  4940  05CA  3000               	movlw	0
  4941  05CB  00F2               	movwf	___fldiv@a+2
  4942  05CC  3000               	movlw	0
  4943  05CD  00F1               	movwf	___fldiv@a+1
  4944  05CE  3000               	movlw	0
  4945  05CF  00F0               	movwf	___fldiv@a
  4946  05D0                     i1l2121:
  4947  05D0  17F2               	bsf	___fldiv@a+2,7
  4948  05D1                     i1l2123:
  4949  05D1  01F3               	clrf	___fldiv@a+3
  4950  05D2  2DDB               	goto	i1l648
  4951  05D3                     i1l2125:
  4952  05D3  3000               	movlw	0
  4953  05D4  00F3               	movwf	___fldiv@a+3
  4954  05D5  3000               	movlw	0
  4955  05D6  00F2               	movwf	___fldiv@a+2
  4956  05D7  3000               	movlw	0
  4957  05D8  00F1               	movwf	___fldiv@a+1
  4958  05D9  3000               	movlw	0
  4959  05DA  00F0               	movwf	___fldiv@a
  4960  05DB                     i1l648:
  4961  05DB  0873               	movf	___fldiv@a+3,w
  4962  05DC  0472               	iorwf	___fldiv@a+2,w
  4963  05DD  0471               	iorwf	___fldiv@a+1,w
  4964  05DE  0470               	iorwf	___fldiv@a,w
  4965  05DF  1D03               	skipz
  4966  05E0  2DE2               	goto	u191_21
  4967  05E1  2DE3               	goto	u191_20
  4968  05E2                     u191_21:
  4969  05E2  2DFC               	goto	i1l2135
  4970  05E3                     u191_20:
  4971  05E3                     i1l2127:
  4972  05E3  3000               	movlw	0
  4973  05E4  00F7               	movwf	___fldiv@b+3
  4974  05E5  3000               	movlw	0
  4975  05E6  00F6               	movwf	___fldiv@b+2
  4976  05E7  3000               	movlw	0
  4977  05E8  00F5               	movwf	___fldiv@b+1
  4978  05E9  3000               	movlw	0
  4979  05EA  00F4               	movwf	___fldiv@b
  4980  05EB  3080               	movlw	128
  4981  05EC  04F6               	iorwf	___fldiv@b+2,f
  4982  05ED  307F               	movlw	127
  4983  05EE  04F7               	iorwf	___fldiv@b+3,f
  4984  05EF                     i1l2129:
  4985  05EF  0824               	movf	___fldiv@sign,w
  4986  05F0  00F8               	movwf	??___fldiv
  4987  05F1  0878               	movf	??___fldiv,w
  4988  05F2  04F7               	iorwf	___fldiv@b+3,f
  4989  05F3                     i1l2131:
  4990  05F3  0877               	movf	___fldiv@b+3,w
  4991  05F4  00F3               	movwf	?___fldiv+3
  4992  05F5  0876               	movf	___fldiv@b+2,w
  4993  05F6  00F2               	movwf	?___fldiv+2
  4994  05F7  0875               	movf	___fldiv@b+1,w
  4995  05F8  00F1               	movwf	?___fldiv+1
  4996  05F9  0874               	movf	___fldiv@b,w
  4997  05FA  00F0               	movwf	?___fldiv
  4998  05FB  2F61               	goto	i1l650
  4999  05FC                     i1l2135:
  5000  05FC  082B               	movf	___fldiv@bexp,w
  5001  05FD  1D03               	btfss	3,2
  5002  05FE  2E00               	goto	u192_21
  5003  05FF  2E01               	goto	u192_20
  5004  0600                     u192_21:
  5005  0600  2E0A               	goto	i1l2141
  5006  0601                     u192_20:
  5007  0601                     i1l2137:
  5008  0601  3000               	movlw	0
  5009  0602  00F3               	movwf	?___fldiv+3
  5010  0603  3000               	movlw	0
  5011  0604  00F2               	movwf	?___fldiv+2
  5012  0605  3000               	movlw	0
  5013  0606  00F1               	movwf	?___fldiv+1
  5014  0607  3000               	movlw	0
  5015  0608  00F0               	movwf	?___fldiv
  5016  0609  2F61               	goto	i1l650
  5017  060A                     i1l2141:
  5018  060A  082B               	movf	___fldiv@bexp,w
  5019  060B  00F8               	movwf	??___fldiv
  5020  060C  01F9               	clrf	??___fldiv+1
  5021  060D  0879               	movf	??___fldiv+1,w
  5022  060E  00FB               	movwf	??___fldiv+3
  5023  060F  082C               	movf	___fldiv@aexp,w
  5024  0610  0278               	subwf	??___fldiv,w
  5025  0611  00FA               	movwf	??___fldiv+2
  5026  0612  1C03               	skipc
  5027  0613  03FB               	decf	??___fldiv+3,f
  5028  0614  087A               	movf	??___fldiv+2,w
  5029  0615  3E7F               	addlw	127
  5030  0616  00A5               	movwf	___fldiv@new_exp
  5031  0617  087B               	movf	??___fldiv+3,w
  5032  0618  1803               	skipnc
  5033  0619  3E01               	addlw	1
  5034  061A  3E00               	addlw	0
  5035  061B  00A6               	movwf	___fldiv@new_exp+1
  5036  061C                     i1l2143:
  5037  061C  0877               	movf	___fldiv@b+3,w
  5038  061D  00A3               	movwf	___fldiv@rem+3
  5039  061E  0876               	movf	___fldiv@b+2,w
  5040  061F  00A2               	movwf	___fldiv@rem+2
  5041  0620  0875               	movf	___fldiv@b+1,w
  5042  0621  00A1               	movwf	___fldiv@rem+1
  5043  0622  0874               	movf	___fldiv@b,w
  5044  0623  00A0               	movwf	___fldiv@rem
  5045  0624                     i1l2145:
  5046  0624  3000               	movlw	0
  5047  0625  00F7               	movwf	___fldiv@b+3
  5048  0626  3000               	movlw	0
  5049  0627  00F6               	movwf	___fldiv@b+2
  5050  0628  3000               	movlw	0
  5051  0629  00F5               	movwf	___fldiv@b+1
  5052  062A  3000               	movlw	0
  5053  062B  00F4               	movwf	___fldiv@b
  5054  062C                     i1l2147:
  5055  062C  3000               	movlw	0
  5056  062D  00AA               	movwf	___fldiv@grs+3
  5057  062E  3000               	movlw	0
  5058  062F  00A9               	movwf	___fldiv@grs+2
  5059  0630  3000               	movlw	0
  5060  0631  00A8               	movwf	___fldiv@grs+1
  5061  0632  3000               	movlw	0
  5062  0633  00A7               	movwf	___fldiv@grs
  5063  0634                     i1l2149:
  5064  0634  01AC               	clrf	___fldiv@aexp
  5065  0635  2E86               	goto	i1l2169
  5066  0636                     i1l2151:
  5067  0636  082C               	movf	___fldiv@aexp,w
  5068  0637  1903               	btfsc	3,2
  5069  0638  2E3A               	goto	u193_21
  5070  0639  2E3B               	goto	u193_20
  5071  063A                     u193_21:
  5072  063A  2E5B               	goto	i1l2161
  5073  063B                     u193_20:
  5074  063B                     i1l2153:
  5075  063B  3001               	movlw	1
  5076  063C  00F8               	movwf	??___fldiv
  5077  063D                     u194_25:
  5078  063D  1003               	clrc
  5079  063E  0DA0               	rlf	___fldiv@rem,f
  5080  063F  0DA1               	rlf	___fldiv@rem+1,f
  5081  0640  0DA2               	rlf	___fldiv@rem+2,f
  5082  0641  0DA3               	rlf	___fldiv@rem+3,f
  5083  0642  0BF8               	decfsz	??___fldiv,f
  5084  0643  2E3D               	goto	u194_25
  5085  0644  3001               	movlw	1
  5086  0645  00F8               	movwf	??___fldiv
  5087  0646                     u195_25:
  5088  0646  1003               	clrc
  5089  0647  0DF4               	rlf	___fldiv@b,f
  5090  0648  0DF5               	rlf	___fldiv@b+1,f
  5091  0649  0DF6               	rlf	___fldiv@b+2,f
  5092  064A  0DF7               	rlf	___fldiv@b+3,f
  5093  064B  0BF8               	decfsz	??___fldiv,f
  5094  064C  2E46               	goto	u195_25
  5095  064D                     i1l2155:
  5096  064D  1FAA               	btfss	___fldiv@grs+3,7
  5097  064E  2E50               	goto	u196_21
  5098  064F  2E51               	goto	u196_20
  5099  0650                     u196_21:
  5100  0650  2E52               	goto	i1l2159
  5101  0651                     u196_20:
  5102  0651                     i1l2157:
  5103  0651  1474               	bsf	___fldiv@b,0
  5104  0652                     i1l2159:
  5105  0652  3001               	movlw	1
  5106  0653  00F8               	movwf	??___fldiv
  5107  0654                     u197_25:
  5108  0654  1003               	clrc
  5109  0655  0DA7               	rlf	___fldiv@grs,f
  5110  0656  0DA8               	rlf	___fldiv@grs+1,f
  5111  0657  0DA9               	rlf	___fldiv@grs+2,f
  5112  0658  0DAA               	rlf	___fldiv@grs+3,f
  5113  0659  0BF8               	decfsz	??___fldiv,f
  5114  065A  2E54               	goto	u197_25
  5115  065B                     i1l2161:
  5116  065B  0873               	movf	___fldiv@a+3,w
  5117  065C  0223               	subwf	___fldiv@rem+3,w
  5118  065D  1D03               	skipz
  5119  065E  2E69               	goto	u198_25
  5120  065F  0872               	movf	___fldiv@a+2,w
  5121  0660  0222               	subwf	___fldiv@rem+2,w
  5122  0661  1D03               	skipz
  5123  0662  2E69               	goto	u198_25
  5124  0663  0871               	movf	___fldiv@a+1,w
  5125  0664  0221               	subwf	___fldiv@rem+1,w
  5126  0665  1D03               	skipz
  5127  0666  2E69               	goto	u198_25
  5128  0667  0870               	movf	___fldiv@a,w
  5129  0668  0220               	subwf	___fldiv@rem,w
  5130  0669                     u198_25:
  5131  0669  1C03               	skipc
  5132  066A  2E6C               	goto	u198_21
  5133  066B  2E6D               	goto	u198_20
  5134  066C                     u198_21:
  5135  066C  2E82               	goto	i1l2167
  5136  066D                     u198_20:
  5137  066D                     i1l2163:
  5138  066D  172A               	bsf	___fldiv@grs+3,6
  5139  066E                     i1l2165:
  5140  066E  0870               	movf	___fldiv@a,w
  5141  066F  02A0               	subwf	___fldiv@rem,f
  5142  0670  0871               	movf	___fldiv@a+1,w
  5143  0671  1C03               	skipc
  5144  0672  0F71               	incfsz	___fldiv@a+1,w
  5145  0673  2E75               	goto	u199_25
  5146  0674  2E76               	goto	u199_26
  5147  0675                     u199_25:
  5148  0675  02A1               	subwf	___fldiv@rem+1,f
  5149  0676                     u199_26:
  5150  0676  0872               	movf	___fldiv@a+2,w
  5151  0677  1C03               	skipc
  5152  0678  0F72               	incfsz	___fldiv@a+2,w
  5153  0679  2E7B               	goto	u199_27
  5154  067A  2E7C               	goto	u199_28
  5155  067B                     u199_27:
  5156  067B  02A2               	subwf	___fldiv@rem+2,f
  5157  067C                     u199_28:
  5158  067C  0873               	movf	___fldiv@a+3,w
  5159  067D  1C03               	skipc
  5160  067E  0F73               	incfsz	___fldiv@a+3,w
  5161  067F  2E81               	goto	u199_29
  5162  0680  2E82               	goto	u199_20
  5163  0681                     u199_29:
  5164  0681  02A3               	subwf	___fldiv@rem+3,f
  5165  0682                     u199_20:
  5166  0682                     i1l2167:
  5167  0682  3001               	movlw	1
  5168  0683  00F8               	movwf	??___fldiv
  5169  0684  0878               	movf	??___fldiv,w
  5170  0685  07AC               	addwf	___fldiv@aexp,f
  5171  0686                     i1l2169:
  5172  0686  301A               	movlw	26
  5173  0687  022C               	subwf	___fldiv@aexp,w
  5174  0688  1C03               	skipc
  5175  0689  2E8B               	goto	u200_21
  5176  068A  2E8C               	goto	u200_20
  5177  068B                     u200_21:
  5178  068B  2E36               	goto	i1l2151
  5179  068C                     u200_20:
  5180  068C                     i1l2171:
  5181  068C  0823               	movf	___fldiv@rem+3,w
  5182  068D  0422               	iorwf	___fldiv@rem+2,w
  5183  068E  0421               	iorwf	___fldiv@rem+1,w
  5184  068F  0420               	iorwf	___fldiv@rem,w
  5185  0690  1903               	skipnz
  5186  0691  2E93               	goto	u201_21
  5187  0692  2E94               	goto	u201_20
  5188  0693                     u201_21:
  5189  0693  2EB3               	goto	i1l2185
  5190  0694                     u201_20:
  5191  0694                     i1l2173:
  5192  0694  1427               	bsf	___fldiv@grs,0
  5193  0695  2EB3               	goto	i1l2185
  5194  0696                     i1l2175:
  5195  0696  3001               	movlw	1
  5196  0697  00F8               	movwf	??___fldiv
  5197  0698                     u202_25:
  5198  0698  1003               	clrc
  5199  0699  0DF4               	rlf	___fldiv@b,f
  5200  069A  0DF5               	rlf	___fldiv@b+1,f
  5201  069B  0DF6               	rlf	___fldiv@b+2,f
  5202  069C  0DF7               	rlf	___fldiv@b+3,f
  5203  069D  0BF8               	decfsz	??___fldiv,f
  5204  069E  2E98               	goto	u202_25
  5205  069F                     i1l2177:
  5206  069F  1FAA               	btfss	___fldiv@grs+3,7
  5207  06A0  2EA2               	goto	u203_21
  5208  06A1  2EA3               	goto	u203_20
  5209  06A2                     u203_21:
  5210  06A2  2EA4               	goto	i1l2181
  5211  06A3                     u203_20:
  5212  06A3                     i1l2179:
  5213  06A3  1474               	bsf	___fldiv@b,0
  5214  06A4                     i1l2181:
  5215  06A4  3001               	movlw	1
  5216  06A5  00F8               	movwf	??___fldiv
  5217  06A6                     u204_25:
  5218  06A6  1003               	clrc
  5219  06A7  0DA7               	rlf	___fldiv@grs,f
  5220  06A8  0DA8               	rlf	___fldiv@grs+1,f
  5221  06A9  0DA9               	rlf	___fldiv@grs+2,f
  5222  06AA  0DAA               	rlf	___fldiv@grs+3,f
  5223  06AB  0BF8               	decfsz	??___fldiv,f
  5224  06AC  2EA6               	goto	u204_25
  5225  06AD                     i1l2183:
  5226  06AD  30FF               	movlw	255
  5227  06AE  07A5               	addwf	___fldiv@new_exp,f
  5228  06AF  1803               	skipnc
  5229  06B0  0AA6               	incf	___fldiv@new_exp+1,f
  5230  06B1  30FF               	movlw	255
  5231  06B2  07A6               	addwf	___fldiv@new_exp+1,f
  5232  06B3                     i1l2185:
  5233  06B3  1FF6               	btfss	___fldiv@b+2,7
  5234  06B4  2EB6               	goto	u205_21
  5235  06B5  2EB7               	goto	u205_20
  5236  06B6                     u205_21:
  5237  06B6  2E96               	goto	i1l2175
  5238  06B7                     u205_20:
  5239  06B7                     i1l2187:
  5240  06B7  01AC               	clrf	___fldiv@aexp
  5241  06B8                     i1l2189:
  5242  06B8  1FAA               	btfss	___fldiv@grs+3,7
  5243  06B9  2EBB               	goto	u206_21
  5244  06BA  2EBC               	goto	u206_20
  5245  06BB                     u206_21:
  5246  06BB  2ED8               	goto	i1l2197
  5247  06BC                     u206_20:
  5248  06BC                     i1l2191:
  5249  06BC  30FF               	movlw	255
  5250  06BD  0527               	andwf	___fldiv@grs,w
  5251  06BE  00F8               	movwf	??___fldiv
  5252  06BF  30FF               	movlw	255
  5253  06C0  0528               	andwf	___fldiv@grs+1,w
  5254  06C1  00F9               	movwf	??___fldiv+1
  5255  06C2  30FF               	movlw	255
  5256  06C3  0529               	andwf	___fldiv@grs+2,w
  5257  06C4  00FA               	movwf	??___fldiv+2
  5258  06C5  307F               	movlw	127
  5259  06C6  052A               	andwf	___fldiv@grs+3,w
  5260  06C7  00FB               	movwf	??___fldiv+3
  5261  06C8  087B               	movf	??___fldiv+3,w
  5262  06C9  047A               	iorwf	??___fldiv+2,w
  5263  06CA  0479               	iorwf	??___fldiv+1,w
  5264  06CB  0478               	iorwf	??___fldiv,w
  5265  06CC  1903               	skipnz
  5266  06CD  2ECF               	goto	u207_21
  5267  06CE  2ED0               	goto	u207_20
  5268  06CF                     u207_21:
  5269  06CF  2ED3               	goto	i1l664
  5270  06D0                     u207_20:
  5271  06D0                     i1l2193:
  5272  06D0  01AC               	clrf	___fldiv@aexp
  5273  06D1  0AAC               	incf	___fldiv@aexp,f
  5274  06D2  2ED8               	goto	i1l2197
  5275  06D3                     i1l664:
  5276  06D3  1C74               	btfss	___fldiv@b,0
  5277  06D4  2ED6               	goto	u208_21
  5278  06D5  2ED7               	goto	u208_20
  5279  06D6                     u208_21:
  5280  06D6  2ED8               	goto	i1l2197
  5281  06D7                     u208_20:
  5282  06D7  2ED0               	goto	i1l2193
  5283  06D8                     i1l2197:
  5284  06D8  082C               	movf	___fldiv@aexp,w
  5285  06D9  1903               	btfsc	3,2
  5286  06DA  2EDC               	goto	u209_21
  5287  06DB  2EDD               	goto	u209_20
  5288  06DC                     u209_21:
  5289  06DC  2F0E               	goto	i1l2207
  5290  06DD                     u209_20:
  5291  06DD                     i1l2199:
  5292  06DD  3001               	movlw	1
  5293  06DE  07F4               	addwf	___fldiv@b,f
  5294  06DF  3000               	movlw	0
  5295  06E0  1803               	skipnc
  5296  06E1  3001               	movlw	1
  5297  06E2  07F5               	addwf	___fldiv@b+1,f
  5298  06E3  3000               	movlw	0
  5299  06E4  1803               	skipnc
  5300  06E5  3001               	movlw	1
  5301  06E6  07F6               	addwf	___fldiv@b+2,f
  5302  06E7  3000               	movlw	0
  5303  06E8  1803               	skipnc
  5304  06E9  3001               	movlw	1
  5305  06EA  07F7               	addwf	___fldiv@b+3,f
  5306  06EB                     i1l2201:
  5307  06EB  1C77               	btfss	___fldiv@b+3,0
  5308  06EC  2EEE               	goto	u210_21
  5309  06ED  2EEF               	goto	u210_20
  5310  06EE                     u210_21:
  5311  06EE  2F0E               	goto	i1l2207
  5312  06EF                     u210_20:
  5313  06EF                     i1l2203:
  5314  06EF  0874               	movf	___fldiv@b,w
  5315  06F0  00F8               	movwf	??___fldiv
  5316  06F1  0875               	movf	___fldiv@b+1,w
  5317  06F2  00F9               	movwf	??___fldiv+1
  5318  06F3  0876               	movf	___fldiv@b+2,w
  5319  06F4  00FA               	movwf	??___fldiv+2
  5320  06F5  0877               	movf	___fldiv@b+3,w
  5321  06F6  00FB               	movwf	??___fldiv+3
  5322  06F7  3001               	movlw	1
  5323  06F8  00FC               	movwf	??___fldiv+4
  5324  06F9                     u211_25:
  5325  06F9  0D7B               	rlf	??___fldiv+3,w
  5326  06FA  0CFB               	rrf	??___fldiv+3,f
  5327  06FB  0CFA               	rrf	??___fldiv+2,f
  5328  06FC  0CF9               	rrf	??___fldiv+1,f
  5329  06FD  0CF8               	rrf	??___fldiv,f
  5330  06FE                     u211_20:
  5331  06FE  0BFC               	decfsz	??___fldiv+4,f
  5332  06FF  2EF9               	goto	u211_25
  5333  0700  087B               	movf	??___fldiv+3,w
  5334  0701  00F7               	movwf	___fldiv@b+3
  5335  0702  087A               	movf	??___fldiv+2,w
  5336  0703  00F6               	movwf	___fldiv@b+2
  5337  0704  0879               	movf	??___fldiv+1,w
  5338  0705  00F5               	movwf	___fldiv@b+1
  5339  0706  0878               	movf	??___fldiv,w
  5340  0707  00F4               	movwf	___fldiv@b
  5341  0708                     i1l2205:
  5342  0708  3001               	movlw	1
  5343  0709  07A5               	addwf	___fldiv@new_exp,f
  5344  070A  1803               	skipnc
  5345  070B  0AA6               	incf	___fldiv@new_exp+1,f
  5346  070C  3000               	movlw	0
  5347  070D  07A6               	addwf	___fldiv@new_exp+1,f
  5348  070E                     i1l2207:
  5349  070E  0826               	movf	___fldiv@new_exp+1,w
  5350  070F  3A80               	xorlw	128
  5351  0710  00FF               	movwf	btemp+1
  5352  0711  3080               	movlw	128
  5353  0712  027F               	subwf	btemp+1,w
  5354  0713  1D03               	skipz
  5355  0714  2F17               	goto	u212_25
  5356  0715  30FF               	movlw	255
  5357  0716  0225               	subwf	___fldiv@new_exp,w
  5358  0717                     u212_25:
  5359  0717  1C03               	skipc
  5360  0718  2F1A               	goto	u212_21
  5361  0719  2F1B               	goto	u212_20
  5362  071A                     u212_21:
  5363  071A  2F29               	goto	i1l2211
  5364  071B                     u212_20:
  5365  071B                     i1l2209:
  5366  071B  30FF               	movlw	255
  5367  071C  1283               	bcf	3,5	;RP0=0, select bank0
  5368  071D  1303               	bcf	3,6	;RP1=0, select bank0
  5369  071E  00A5               	movwf	___fldiv@new_exp
  5370  071F  3000               	movlw	0
  5371  0720  00A6               	movwf	___fldiv@new_exp+1
  5372  0721  3000               	movlw	0
  5373  0722  00F7               	movwf	___fldiv@b+3
  5374  0723  3000               	movlw	0
  5375  0724  00F6               	movwf	___fldiv@b+2
  5376  0725  3000               	movlw	0
  5377  0726  00F5               	movwf	___fldiv@b+1
  5378  0727  3000               	movlw	0
  5379  0728  00F4               	movwf	___fldiv@b
  5380  0729                     i1l2211:
  5381  0729  1283               	bcf	3,5	;RP0=0, select bank0
  5382  072A  1303               	bcf	3,6	;RP1=0, select bank0
  5383  072B  0826               	movf	___fldiv@new_exp+1,w
  5384  072C  3A80               	xorlw	128
  5385  072D  00FF               	movwf	btemp+1
  5386  072E  3080               	movlw	128
  5387  072F  027F               	subwf	btemp+1,w
  5388  0730  1D03               	skipz
  5389  0731  2F34               	goto	u213_25
  5390  0732  3001               	movlw	1
  5391  0733  0225               	subwf	___fldiv@new_exp,w
  5392  0734                     u213_25:
  5393  0734  1803               	skipnc
  5394  0735  2F37               	goto	u213_21
  5395  0736  2F38               	goto	u213_20
  5396  0737                     u213_21:
  5397  0737  2F45               	goto	i1l670
  5398  0738                     u213_20:
  5399  0738                     i1l2213:
  5400  0738  1283               	bcf	3,5	;RP0=0, select bank0
  5401  0739  1303               	bcf	3,6	;RP1=0, select bank0
  5402  073A  01A5               	clrf	___fldiv@new_exp
  5403  073B  01A6               	clrf	___fldiv@new_exp+1
  5404  073C                     i1l2215:
  5405  073C  3000               	movlw	0
  5406  073D  00F7               	movwf	___fldiv@b+3
  5407  073E  3000               	movlw	0
  5408  073F  00F6               	movwf	___fldiv@b+2
  5409  0740  3000               	movlw	0
  5410  0741  00F5               	movwf	___fldiv@b+1
  5411  0742  3000               	movlw	0
  5412  0743  00F4               	movwf	___fldiv@b
  5413  0744                     i1l2217:
  5414  0744  01A4               	clrf	___fldiv@sign
  5415  0745                     i1l670:
  5416  0745  1283               	bcf	3,5	;RP0=0, select bank0
  5417  0746  1303               	bcf	3,6	;RP1=0, select bank0
  5418  0747  0825               	movf	___fldiv@new_exp,w
  5419  0748  00F8               	movwf	??___fldiv
  5420  0749  0878               	movf	??___fldiv,w
  5421  074A  00AB               	movwf	___fldiv@bexp
  5422  074B                     i1l2219:
  5423  074B  1C2B               	btfss	___fldiv@bexp,0
  5424  074C  2F4E               	goto	u214_21
  5425  074D  2F4F               	goto	u214_20
  5426  074E                     u214_21:
  5427  074E  2F51               	goto	i1l2223
  5428  074F                     u214_20:
  5429  074F                     i1l2221:
  5430  074F  17F6               	bsf	___fldiv@b+2,7
  5431  0750  2F55               	goto	i1l672
  5432  0751                     i1l2223:
  5433  0751  307F               	movlw	127
  5434  0752  00F8               	movwf	??___fldiv
  5435  0753  0878               	movf	??___fldiv,w
  5436  0754  05F6               	andwf	___fldiv@b+2,f
  5437  0755                     i1l672:
  5438  0755  082B               	movf	___fldiv@bexp,w
  5439  0756  00F8               	movwf	??___fldiv
  5440  0757  1003               	clrc
  5441  0758  0C78               	rrf	??___fldiv,w
  5442  0759  00F9               	movwf	??___fldiv+1
  5443  075A  0879               	movf	??___fldiv+1,w
  5444  075B  00F7               	movwf	___fldiv@b+3
  5445  075C  0824               	movf	___fldiv@sign,w
  5446  075D  00F8               	movwf	??___fldiv
  5447  075E  0878               	movf	??___fldiv,w
  5448  075F  04F7               	iorwf	___fldiv@b+3,f
  5449  0760  2DF3               	goto	i1l2131
  5450  0761                     i1l650:
  5451  0761  0008               	return
  5452  0762                     __end_of___fldiv:
  5453                           
  5454                           	psect	text19
  5455  0EFE                     __ptext19:	
  5456 ;; *************** function _ReadADC *****************
  5457 ;; Defined at:
  5458 ;;		line 13 in file "ADC0808.c"
  5459 ;; Parameters:    Size  Location     Type
  5460 ;;  Channel         1    wreg     unsigned char 
  5461 ;; Auto vars:     Size  Location     Type
  5462 ;;  Channel         1    4[COMMON] unsigned char 
  5463 ;;  i               2    7[COMMON] unsigned int 
  5464 ;;  ADC_value       2    5[COMMON] unsigned int 
  5465 ;; Return value:  Size  Location     Type
  5466 ;;                  2    0[COMMON] unsigned int 
  5467 ;; Registers used:
  5468 ;;		wreg, fsr0l, fsr0h, status,2, status,0
  5469 ;; Tracked objects:
  5470 ;;		On entry : 0/0
  5471 ;;		On exit  : 0/0
  5472 ;;		Unchanged: 0/0
  5473 ;; Data sizes:     COMMON   BANK0   BANK1   BANK3   BANK2
  5474 ;;      Params:         2       0       0       0       0
  5475 ;;      Locals:         5       0       0       0       0
  5476 ;;      Temps:          2       0       0       0       0
  5477 ;;      Totals:         9       0       0       0       0
  5478 ;;Total ram usage:        9 bytes
  5479 ;; Hardware stack levels used:    1
  5480 ;; This function calls:
  5481 ;;		Nothing
  5482 ;; This function is called by:
  5483 ;;		_Count_Up
  5484 ;; This function uses a non-reentrant model
  5485 ;;
  5486                           
  5487                           
  5488                           ;psect for function _ReadADC
  5489  0EFE                     _ReadADC:
  5490                           
  5491                           ;incstack = 0
  5492                           ; Regs used in _ReadADC: [wreg-fsr0h+status,2+status,0]
  5493                           ;ReadADC@Channel stored from wreg
  5494  0EFE  00F4               	movwf	ReadADC@Channel
  5495  0EFF                     i1l1817:
  5496                           
  5497                           ;ADC0808.c: 16:  unsigned int ADC_value = 0;
  5498  0EFF  01F5               	clrf	ReadADC@ADC_value
  5499  0F00  01F6               	clrf	ReadADC@ADC_value+1
  5500  0F01                     i1l1819:
  5501                           
  5502                           ;ADC0808.c: 21:  switch(Channel)
  5503  0F01  2F32               	goto	i1l1823
  5504  0F02                     i1l198:	
  5505                           ;ADC0808.c: 22:  {;ADC0808.c: 23:  case 0: PORTCbits.RC2 = 0; PORTCbits.RC1 = 0; PORTCbi
      +                          ts.RC0 = 0; break;
  5506                           
  5507  0F02  1283               	bcf	3,5	;RP0=0, select bank0
  5508  0F03  1303               	bcf	3,6	;RP1=0, select bank0
  5509  0F04  1107               	bcf	7,2	;volatile
  5510  0F05  1087               	bcf	7,1	;volatile
  5511  0F06  1007               	bcf	7,0	;volatile
  5512  0F07  2F54               	goto	i1l1825
  5513  0F08                     i1l200:	
  5514                           ;ADC0808.c: 24:  case 1: PORTCbits.RC2 = 0; PORTCbits.RC1 = 0; PORTCbits.RC0 = 1; break;
  5515                           
  5516  0F08  1283               	bcf	3,5	;RP0=0, select bank0
  5517  0F09  1303               	bcf	3,6	;RP1=0, select bank0
  5518  0F0A  1107               	bcf	7,2	;volatile
  5519  0F0B  1087               	bcf	7,1	;volatile
  5520  0F0C  1407               	bsf	7,0	;volatile
  5521  0F0D  2F54               	goto	i1l1825
  5522  0F0E                     i1l201:	
  5523                           ;ADC0808.c: 25:  case 2: PORTCbits.RC2 = 0; PORTCbits.RC1 = 1; PORTCbits.RC0 = 0; break;
  5524                           
  5525  0F0E  1283               	bcf	3,5	;RP0=0, select bank0
  5526  0F0F  1303               	bcf	3,6	;RP1=0, select bank0
  5527  0F10  1107               	bcf	7,2	;volatile
  5528  0F11  1487               	bsf	7,1	;volatile
  5529  0F12  1007               	bcf	7,0	;volatile
  5530  0F13  2F54               	goto	i1l1825
  5531  0F14                     i1l202:	
  5532                           ;ADC0808.c: 26:  case 3: PORTCbits.RC2 = 0; PORTCbits.RC1 = 1; PORTCbits.RC0 = 1; break;
  5533                           
  5534  0F14  1283               	bcf	3,5	;RP0=0, select bank0
  5535  0F15  1303               	bcf	3,6	;RP1=0, select bank0
  5536  0F16  1107               	bcf	7,2	;volatile
  5537  0F17  1487               	bsf	7,1	;volatile
  5538  0F18  1407               	bsf	7,0	;volatile
  5539  0F19  2F54               	goto	i1l1825
  5540  0F1A                     i1l203:	
  5541                           ;ADC0808.c: 27:  case 4: PORTCbits.RC2 = 1; PORTCbits.RC1 = 0; PORTCbits.RC0 = 0; break;
  5542                           
  5543  0F1A  1283               	bcf	3,5	;RP0=0, select bank0
  5544  0F1B  1303               	bcf	3,6	;RP1=0, select bank0
  5545  0F1C  1507               	bsf	7,2	;volatile
  5546  0F1D  1087               	bcf	7,1	;volatile
  5547  0F1E  1007               	bcf	7,0	;volatile
  5548  0F1F  2F54               	goto	i1l1825
  5549  0F20                     i1l204:	
  5550                           ;ADC0808.c: 28:  case 5: PORTCbits.RC2 = 1; PORTCbits.RC1 = 0; PORTCbits.RC0 = 1; break;
  5551                           
  5552  0F20  1283               	bcf	3,5	;RP0=0, select bank0
  5553  0F21  1303               	bcf	3,6	;RP1=0, select bank0
  5554  0F22  1507               	bsf	7,2	;volatile
  5555  0F23  1087               	bcf	7,1	;volatile
  5556  0F24  1407               	bsf	7,0	;volatile
  5557  0F25  2F54               	goto	i1l1825
  5558  0F26                     i1l205:	
  5559                           ;ADC0808.c: 29:  case 6: PORTCbits.RC2 = 1; PORTCbits.RC1 = 1; PORTCbits.RC0 = 0; break;
  5560                           
  5561  0F26  1283               	bcf	3,5	;RP0=0, select bank0
  5562  0F27  1303               	bcf	3,6	;RP1=0, select bank0
  5563  0F28  1507               	bsf	7,2	;volatile
  5564  0F29  1487               	bsf	7,1	;volatile
  5565  0F2A  1007               	bcf	7,0	;volatile
  5566  0F2B  2F54               	goto	i1l1825
  5567  0F2C                     i1l206:	
  5568                           ;ADC0808.c: 30:  case 7: PORTCbits.RC2 = 1; PORTCbits.RC1 = 1; PORTCbits.RC0 = 1; break;
  5569                           
  5570  0F2C  1283               	bcf	3,5	;RP0=0, select bank0
  5571  0F2D  1303               	bcf	3,6	;RP1=0, select bank0
  5572  0F2E  1507               	bsf	7,2	;volatile
  5573  0F2F  1487               	bsf	7,1	;volatile
  5574  0F30  1407               	bsf	7,0	;volatile
  5575  0F31  2F54               	goto	i1l1825
  5576  0F32                     i1l1823:
  5577  0F32  0874               	movf	ReadADC@Channel,w
  5578  0F33  00F2               	movwf	??_ReadADC
  5579  0F34  01F3               	clrf	??_ReadADC+1
  5580                           
  5581                           ; Switch on 2 bytes has been partitioned into a top level switch of size 1, and 1 sub-sw
      +                          itches
  5582                           ; Switch size 1, requested type "simple"
  5583                           ; Number of cases is 1, Range of values is 0 to 0
  5584                           ; switch strategies available:
  5585                           ; Name         Instructions Cycles
  5586                           ; simple_byte            4     3 (average)
  5587                           ; direct_byte           11     8 (fixed)
  5588                           ; jumptable            260     6 (fixed)
  5589                           ;	Chosen strategy is simple_byte
  5590  0F35  0873               	movf	??_ReadADC+1,w
  5591  0F36  3A00               	xorlw	0	; case 0
  5592  0F37  1903               	skipnz
  5593  0F38  2F3A               	goto	i1l3153
  5594  0F39  2F54               	goto	i1l1825
  5595  0F3A                     i1l3153:
  5596                           
  5597                           ; Switch size 1, requested type "simple"
  5598                           ; Number of cases is 8, Range of values is 0 to 7
  5599                           ; switch strategies available:
  5600                           ; Name         Instructions Cycles
  5601                           ; simple_byte           25    13 (average)
  5602                           ; direct_byte           32     8 (fixed)
  5603                           ; jumptable            260     6 (fixed)
  5604                           ;	Chosen strategy is simple_byte
  5605  0F3A  0872               	movf	??_ReadADC,w
  5606  0F3B  3A00               	xorlw	0	; case 0
  5607  0F3C  1903               	skipnz
  5608  0F3D  2F02               	goto	i1l198
  5609  0F3E  3A01               	xorlw	1	; case 1
  5610  0F3F  1903               	skipnz
  5611  0F40  2F08               	goto	i1l200
  5612  0F41  3A03               	xorlw	3	; case 2
  5613  0F42  1903               	skipnz
  5614  0F43  2F0E               	goto	i1l201
  5615  0F44  3A01               	xorlw	1	; case 3
  5616  0F45  1903               	skipnz
  5617  0F46  2F14               	goto	i1l202
  5618  0F47  3A07               	xorlw	7	; case 4
  5619  0F48  1903               	skipnz
  5620  0F49  2F1A               	goto	i1l203
  5621  0F4A  3A01               	xorlw	1	; case 5
  5622  0F4B  1903               	skipnz
  5623  0F4C  2F20               	goto	i1l204
  5624  0F4D  3A03               	xorlw	3	; case 6
  5625  0F4E  1903               	skipnz
  5626  0F4F  2F26               	goto	i1l205
  5627  0F50  3A01               	xorlw	1	; case 7
  5628  0F51  1903               	skipnz
  5629  0F52  2F2C               	goto	i1l206
  5630  0F53  2F54               	goto	i1l1825
  5631  0F54                     i1l1825:
  5632                           
  5633                           ;ADC0808.c: 33:  _delay((unsigned long)((10)*(8000000/4000000.0)));
  5634  0F54  3006               	movlw	6
  5635  0F55  00F2               	movwf	??_ReadADC
  5636  0F56                     u343_27:
  5637  0F56  0BF2               	decfsz	??_ReadADC,f
  5638  0F57  2F56               	goto	u343_27
  5639  0F58  0000               	nop
  5640  0F59                     i1l1827:
  5641                           
  5642                           ;ADC0808.c: 34:  PORTDbits.RD4 = 1;
  5643  0F59  1283               	bcf	3,5	;RP0=0, select bank0
  5644  0F5A  1303               	bcf	3,6	;RP1=0, select bank0
  5645  0F5B  1608               	bsf	8,4	;volatile
  5646  0F5C                     i1l1829:
  5647                           
  5648                           ;ADC0808.c: 35:  PORTCbits.RC7 = 1;
  5649  0F5C  1787               	bsf	7,7	;volatile
  5650                           
  5651                           ;ADC0808.c: 36:  _delay((unsigned long)((10)*(8000000/4000000.0)));
  5652  0F5D  3006               	movlw	6
  5653  0F5E  00F2               	movwf	??_ReadADC
  5654  0F5F                     u344_27:
  5655  0F5F  0BF2               	decfsz	??_ReadADC,f
  5656  0F60  2F5F               	goto	u344_27
  5657  0F61  0000               	nop
  5658  0F62                     i1l1831:
  5659                           
  5660                           ;ADC0808.c: 37:  PORTCbits.RC7 = 0;
  5661  0F62  1283               	bcf	3,5	;RP0=0, select bank0
  5662  0F63  1303               	bcf	3,6	;RP1=0, select bank0
  5663  0F64  1387               	bcf	7,7	;volatile
  5664  0F65                     i1l1833:
  5665                           
  5666                           ;ADC0808.c: 38:  PORTCbits.RC6 = 1;
  5667  0F65  1707               	bsf	7,6	;volatile
  5668                           
  5669                           ;ADC0808.c: 39:  _delay((unsigned long)((10)*(8000000/4000000.0)));
  5670  0F66  3006               	movlw	6
  5671  0F67  00F2               	movwf	??_ReadADC
  5672  0F68                     u345_27:
  5673  0F68  0BF2               	decfsz	??_ReadADC,f
  5674  0F69  2F68               	goto	u345_27
  5675  0F6A  0000               	nop
  5676  0F6B                     i1l1835:
  5677                           
  5678                           ;ADC0808.c: 40:  PORTCbits.RC7 = 1;
  5679  0F6B  1283               	bcf	3,5	;RP0=0, select bank0
  5680  0F6C  1303               	bcf	3,6	;RP1=0, select bank0
  5681  0F6D  1787               	bsf	7,7	;volatile
  5682  0F6E                     i1l1837:
  5683                           
  5684                           ;ADC0808.c: 41:  PORTDbits.RD4 = 0;
  5685  0F6E  1208               	bcf	8,4	;volatile
  5686                           
  5687                           ;ADC0808.c: 42:  _delay((unsigned long)((10)*(8000000/4000000.0)));
  5688  0F6F  3006               	movlw	6
  5689  0F70  00F2               	movwf	??_ReadADC
  5690  0F71                     u346_27:
  5691  0F71  0BF2               	decfsz	??_ReadADC,f
  5692  0F72  2F71               	goto	u346_27
  5693  0F73  0000               	nop
  5694  0F74                     i1l1839:
  5695                           
  5696                           ;ADC0808.c: 43:  PORTCbits.RC7 = 0;
  5697  0F74  1283               	bcf	3,5	;RP0=0, select bank0
  5698  0F75  1303               	bcf	3,6	;RP1=0, select bank0
  5699  0F76  1387               	bcf	7,7	;volatile
  5700  0F77                     i1l1841:
  5701                           
  5702                           ;ADC0808.c: 44:  PORTCbits.RC6 = 0;
  5703  0F77  1307               	bcf	7,6	;volatile
  5704  0F78                     i1l1843:
  5705                           
  5706                           ;ADC0808.c: 46:  for(i=0;i<2000;i++)
  5707  0F78  01F7               	clrf	ReadADC@i
  5708  0F79  01F8               	clrf	ReadADC@i+1
  5709  0F7A                     i1l1849:
  5710                           
  5711                           ;ADC0808.c: 47:  {;ADC0808.c: 48:   PORTCbits.RC7 = !PORTCbits.RC7;
  5712  0F7A  1003               	clrc
  5713  0F7B  1F87               	btfss	7,7	;volatile
  5714  0F7C  1403               	setc
  5715  0F7D  1803               	btfsc	3,0
  5716  0F7E  2F80               	goto	u147_21
  5717  0F7F  2F84               	goto	u147_20
  5718  0F80                     u147_21:
  5719  0F80  1283               	bcf	3,5	;RP0=0, select bank0
  5720  0F81  1303               	bcf	3,6	;RP1=0, select bank0
  5721  0F82  1787               	bsf	7,7	;volatile
  5722  0F83  2F87               	goto	u148_24
  5723  0F84                     u147_20:
  5724  0F84  1283               	bcf	3,5	;RP0=0, select bank0
  5725  0F85  1303               	bcf	3,6	;RP1=0, select bank0
  5726  0F86  1387               	bcf	7,7	;volatile
  5727  0F87                     u148_24:
  5728  0F87                     i1l1851:
  5729                           
  5730                           ;ADC0808.c: 49:   _delay((unsigned long)((10)*(8000000/4000000.0)));
  5731  0F87  3006               	movlw	6
  5732  0F88  00F2               	movwf	??_ReadADC
  5733  0F89                     u347_27:
  5734  0F89  0BF2               	decfsz	??_ReadADC,f
  5735  0F8A  2F89               	goto	u347_27
  5736  0F8B  0000               	nop
  5737  0F8C                     i1l1853:
  5738                           
  5739                           ;ADC0808.c: 51:   if(!PORTDbits.RD5)
  5740  0F8C  1283               	bcf	3,5	;RP0=0, select bank0
  5741  0F8D  1303               	bcf	3,6	;RP1=0, select bank0
  5742  0F8E  1A88               	btfsc	8,5	;volatile
  5743  0F8F  2F91               	goto	u149_21
  5744  0F90  2F92               	goto	u149_20
  5745  0F91                     u149_21:
  5746  0F91  2F93               	goto	i1l1857
  5747  0F92                     u149_20:
  5748  0F92  2FA2               	goto	i1l1859
  5749  0F93                     i1l1857:
  5750                           
  5751                           ;ADC0808.c: 53:  }
  5752  0F93  3001               	movlw	1
  5753  0F94  07F7               	addwf	ReadADC@i,f
  5754  0F95  1803               	skipnc
  5755  0F96  0AF8               	incf	ReadADC@i+1,f
  5756  0F97  3000               	movlw	0
  5757  0F98  07F8               	addwf	ReadADC@i+1,f
  5758  0F99  3007               	movlw	7
  5759  0F9A  0278               	subwf	ReadADC@i+1,w
  5760  0F9B  30D0               	movlw	208
  5761  0F9C  1903               	skipnz
  5762  0F9D  0277               	subwf	ReadADC@i,w
  5763  0F9E  1C03               	skipc
  5764  0F9F  2FA1               	goto	u150_21
  5765  0FA0  2FA2               	goto	u150_20
  5766  0FA1                     u150_21:
  5767  0FA1  2F7A               	goto	i1l1849
  5768  0FA2                     u150_20:
  5769  0FA2                     i1l1859:
  5770                           
  5771                           ;ADC0808.c: 55:  for(i=0;i<2000;i++)
  5772  0FA2  01F7               	clrf	ReadADC@i
  5773  0FA3  01F8               	clrf	ReadADC@i+1
  5774  0FA4                     i1l1865:
  5775                           
  5776                           ;ADC0808.c: 56:  {;ADC0808.c: 57:   PORTCbits.RC7 = !PORTCbits.RC7;
  5777  0FA4  1003               	clrc
  5778  0FA5  1F87               	btfss	7,7	;volatile
  5779  0FA6  1403               	setc
  5780  0FA7  1803               	btfsc	3,0
  5781  0FA8  2FAA               	goto	u151_21
  5782  0FA9  2FAE               	goto	u151_20
  5783  0FAA                     u151_21:
  5784  0FAA  1283               	bcf	3,5	;RP0=0, select bank0
  5785  0FAB  1303               	bcf	3,6	;RP1=0, select bank0
  5786  0FAC  1787               	bsf	7,7	;volatile
  5787  0FAD  2FB1               	goto	u152_24
  5788  0FAE                     u151_20:
  5789  0FAE  1283               	bcf	3,5	;RP0=0, select bank0
  5790  0FAF  1303               	bcf	3,6	;RP1=0, select bank0
  5791  0FB0  1387               	bcf	7,7	;volatile
  5792  0FB1                     u152_24:
  5793  0FB1                     i1l1867:
  5794                           
  5795                           ;ADC0808.c: 58:   _delay((unsigned long)((10)*(8000000/4000000.0)));
  5796  0FB1  3006               	movlw	6
  5797  0FB2  00F2               	movwf	??_ReadADC
  5798  0FB3                     u348_27:
  5799  0FB3  0BF2               	decfsz	??_ReadADC,f
  5800  0FB4  2FB3               	goto	u348_27
  5801  0FB5  0000               	nop
  5802  0FB6                     i1l1869:
  5803                           
  5804                           ;ADC0808.c: 60:    if(PORTDbits.RD5)
  5805  0FB6  1283               	bcf	3,5	;RP0=0, select bank0
  5806  0FB7  1303               	bcf	3,6	;RP1=0, select bank0
  5807  0FB8  1E88               	btfss	8,5	;volatile
  5808  0FB9  2FBB               	goto	u153_21
  5809  0FBA  2FBC               	goto	u153_20
  5810  0FBB                     u153_21:
  5811  0FBB  2FBD               	goto	i1l1873
  5812  0FBC                     u153_20:
  5813  0FBC  2FCC               	goto	i1l211
  5814  0FBD                     i1l1873:
  5815                           
  5816                           ;ADC0808.c: 62:  }
  5817  0FBD  3001               	movlw	1
  5818  0FBE  07F7               	addwf	ReadADC@i,f
  5819  0FBF  1803               	skipnc
  5820  0FC0  0AF8               	incf	ReadADC@i+1,f
  5821  0FC1  3000               	movlw	0
  5822  0FC2  07F8               	addwf	ReadADC@i+1,f
  5823  0FC3  3007               	movlw	7
  5824  0FC4  0278               	subwf	ReadADC@i+1,w
  5825  0FC5  30D0               	movlw	208
  5826  0FC6  1903               	skipnz
  5827  0FC7  0277               	subwf	ReadADC@i,w
  5828  0FC8  1C03               	skipc
  5829  0FC9  2FCB               	goto	u154_21
  5830  0FCA  2FCC               	goto	u154_20
  5831  0FCB                     u154_21:
  5832  0FCB  2FA4               	goto	i1l1865
  5833  0FCC                     u154_20:
  5834  0FCC                     i1l211:
  5835                           
  5836                           ;ADC0808.c: 64:  PORTCbits.RC7 = 0;
  5837  0FCC  1387               	bcf	7,7	;volatile
  5838                           
  5839                           ;ADC0808.c: 65:  PORTDbits.RD6 = 1;
  5840  0FCD  1708               	bsf	8,6	;volatile
  5841  0FCE                     i1l1875:
  5842                           
  5843                           ;ADC0808.c: 66:  _delay((unsigned long)((10)*(8000000/4000000.0)));
  5844  0FCE  3006               	movlw	6
  5845  0FCF  00F2               	movwf	??_ReadADC
  5846  0FD0                     u349_27:
  5847  0FD0  0BF2               	decfsz	??_ReadADC,f
  5848  0FD1  2FD0               	goto	u349_27
  5849  0FD2  0000               	nop
  5850  0FD3                     i1l1877:
  5851                           
  5852                           ;ADC0808.c: 67:  PORTCbits.RC7 = 1;
  5853  0FD3  1283               	bcf	3,5	;RP0=0, select bank0
  5854  0FD4  1303               	bcf	3,6	;RP1=0, select bank0
  5855  0FD5  1787               	bsf	7,7	;volatile
  5856                           
  5857                           ;ADC0808.c: 68:  _delay((unsigned long)((10)*(8000000/4000000.0)));
  5858  0FD6  3006               	movlw	6
  5859  0FD7  00F2               	movwf	??_ReadADC
  5860  0FD8                     u350_27:
  5861  0FD8  0BF2               	decfsz	??_ReadADC,f
  5862  0FD9  2FD8               	goto	u350_27
  5863  0FDA  0000               	nop
  5864  0FDB                     i1l1879:
  5865                           
  5866                           ;ADC0808.c: 69:  PORTCbits.RC7 = 0;
  5867  0FDB  1283               	bcf	3,5	;RP0=0, select bank0
  5868  0FDC  1303               	bcf	3,6	;RP1=0, select bank0
  5869  0FDD  1387               	bcf	7,7	;volatile
  5870                           
  5871                           ;ADC0808.c: 70:  _delay((unsigned long)((10)*(8000000/4000000.0)));
  5872  0FDE  3006               	movlw	6
  5873  0FDF  00F2               	movwf	??_ReadADC
  5874  0FE0                     u351_27:
  5875  0FE0  0BF2               	decfsz	??_ReadADC,f
  5876  0FE1  2FE0               	goto	u351_27
  5877  0FE2  0000               	nop
  5878  0FE3                     i1l1881:
  5879                           
  5880                           ;ADC0808.c: 71:  PORTCbits.RC7 = 1;
  5881  0FE3  1283               	bcf	3,5	;RP0=0, select bank0
  5882  0FE4  1303               	bcf	3,6	;RP1=0, select bank0
  5883  0FE5  1787               	bsf	7,7	;volatile
  5884                           
  5885                           ;ADC0808.c: 73:  ADC_value = PORTB;
  5886  0FE6  0806               	movf	6,w	;volatile
  5887  0FE7  00F2               	movwf	??_ReadADC
  5888  0FE8  01F3               	clrf	??_ReadADC+1
  5889  0FE9  0872               	movf	??_ReadADC,w
  5890  0FEA  00F5               	movwf	ReadADC@ADC_value
  5891  0FEB  0873               	movf	??_ReadADC+1,w
  5892  0FEC  00F6               	movwf	ReadADC@ADC_value+1
  5893                           
  5894                           ;ADC0808.c: 75:  _delay((unsigned long)((10)*(8000000/4000000.0)));
  5895  0FED  3006               	movlw	6
  5896  0FEE  00F2               	movwf	??_ReadADC
  5897  0FEF                     u352_27:
  5898  0FEF  0BF2               	decfsz	??_ReadADC,f
  5899  0FF0  2FEF               	goto	u352_27
  5900  0FF1  0000               	nop
  5901  0FF2                     i1l1883:
  5902                           
  5903                           ;ADC0808.c: 76:  PORTDbits.RD6 = 0;
  5904  0FF2  1283               	bcf	3,5	;RP0=0, select bank0
  5905  0FF3  1303               	bcf	3,6	;RP1=0, select bank0
  5906  0FF4  1308               	bcf	8,6	;volatile
  5907  0FF5                     i1l1885:
  5908                           
  5909                           ;ADC0808.c: 77:  PORTCbits.RC7 = 0;
  5910  0FF5  1387               	bcf	7,7	;volatile
  5911                           
  5912                           ;ADC0808.c: 78:  _delay((unsigned long)((10)*(8000000/4000000.0)));
  5913  0FF6  3006               	movlw	6
  5914  0FF7  00F2               	movwf	??_ReadADC
  5915  0FF8                     u353_27:
  5916  0FF8  0BF2               	decfsz	??_ReadADC,f
  5917  0FF9  2FF8               	goto	u353_27
  5918  0FFA  0000               	nop
  5919                           
  5920                           ;ADC0808.c: 80:  return ADC_value;
  5921  0FFB  0876               	movf	ReadADC@ADC_value+1,w
  5922  0FFC  00F1               	movwf	?_ReadADC+1
  5923  0FFD  0875               	movf	ReadADC@ADC_value,w
  5924  0FFE  00F0               	movwf	?_ReadADC
  5925  0FFF                     i1l213:
  5926  0FFF  0008               	return
  5927  1000                     __end_of_ReadADC:
  5928  007E                     btemp	set	126	;btemp
  5929  007E                     wtemp0	set	126
  5930                           
  5931                           	psect	config
  5932                           
  5933                           ;Config register CONFIG @ 0x2007
  5934                           ;	Oscillator Selection bits
  5935                           ;	FOSC = HS, HS oscillator
  5936                           ;	Watchdog Timer Enable bit
  5937                           ;	WDTE = OFF, WDT disabled
  5938                           ;	Power-up Timer Enable bit
  5939                           ;	PWRTE = OFF, PWRT disabled
  5940                           ;	Brown-out Reset Enable bit
  5941                           ;	BOREN = ON, BOR enabled
  5942                           ;	Low-Voltage (Single-Supply) In-Circuit Serial Programming Enable bit
  5943                           ;	LVP = ON, RB3/PGM pin has PGM function; low-voltage programming enabled
  5944                           ;	Data EEPROM Memory Code Protection bit
  5945                           ;	CPD = OFF, Data EEPROM code protection off
  5946                           ;	Flash Program Memory Write Enable bits
  5947                           ;	WRT = OFF, Write protection off; all program memory may be written to by EECON control
  5948                           ;	In-Circuit Debugger Mode bit
  5949                           ;	DEBUG = 0x1, unprogrammed default
  5950                           ;	Flash Program Memory Code Protection bit
  5951                           ;	CP = OFF, Code protection off
  5952  2007                     	org	8199
  5953  2007  3FFA               	dw	16378

Data Sizes:
    Strings     35
    Constant    0
    Data        64
    BSS         26
    Persistent  0
    Stack       0

Auto Spaces:
    Space          Size  Autos    Used
    COMMON           14     14      14
    BANK0            80     29      55
    BANK1            80     51      51
    BANK3            96      0      64
    BANK2            96      0       0

Pointer List with Targets:

    LCDWriteString@msg	PTR const unsigned char  size(1) Largest target is 12
		 -> STR_3(CODE[12]), STR_2(CODE[12]), STR_1(CODE[11]), 


Critical Paths under _main in COMMON

    None.

Critical Paths under _Count_Up in COMMON

    _Count_Up->___flmul
    ___xxtofl->_ReadADC
    ___flmul->__Umul8_16

Critical Paths under _main in BANK0

    None.

Critical Paths under _Count_Up in BANK0

    _Count_Up->___flmul

Critical Paths under _main in BANK1

    _main->_LCDGotoXY
    _main->_LCDInit
    ___lwdiv->___lwmod
    _LCDWriteString->_LCDByte
    _LCDInit->_LCDByte
    _LCDGotoXY->_LCDByte
    _LCDByte->_LCDBusyLoop

Critical Paths under _Count_Up in BANK1

    None.

Critical Paths under _main in BANK3

    None.

Critical Paths under _Count_Up in BANK3

    None.

Critical Paths under _main in BANK2

    None.

Critical Paths under _Count_Up in BANK2

    None.

Call Graph Tables:

 ---------------------------------------------------------------------------------
 (Depth) Function   	        Calls       Base Space   Used Autos Params    Refs
 ---------------------------------------------------------------------------------
 (0) _main                                                35    31      4   13577
                                             16 BANK1     35    31      4
                            _InitADC
                            _LCDByte
                          _LCDGotoXY
                            _LCDInit
                     _LCDWriteString
              _SPI_Initialize_Master
                           _SPI_Read
                          _SPI_Write
                            ___fltol
                            ___lwdiv
                            ___lwmod
                  _timer2_initialize
 ---------------------------------------------------------------------------------
 (1) _timer2_initialize                                    0     0      0       0
 ---------------------------------------------------------------------------------
 (1) ___lwmod                                              6     2      4    1312
                                              0 BANK1      6     2      4
 ---------------------------------------------------------------------------------
 (1) ___lwdiv                                              8     4      4     781
                                              6 BANK1      8     4      4
                            ___lwmod (ARG)
 ---------------------------------------------------------------------------------
 (1) ___fltol                                             11     7      4     517
                                              0 BANK1     11     7      4
 ---------------------------------------------------------------------------------
 (1) _SPI_Write                                            1     1      0      31
                                              0 BANK1      1     1      0
 ---------------------------------------------------------------------------------
 (1) _SPI_Read                                             0     0      0       0
 ---------------------------------------------------------------------------------
 (1) _SPI_Initialize_Master                                0     0      0       0
 ---------------------------------------------------------------------------------
 (1) _LCDWriteString                                       3     3      0    2660
                                             12 BANK1      3     3      0
                            _LCDByte
 ---------------------------------------------------------------------------------
 (1) _LCDInit                                              4     4      0    2601
                                             12 BANK1      4     4      0
                        _LCDBusyLoop
                            _LCDByte
 ---------------------------------------------------------------------------------
 (1) _LCDGotoXY                                            4     3      1    2580
                                             12 BANK1      4     3      1
                            _LCDByte
 ---------------------------------------------------------------------------------
 (2) _LCDByte                                              7     6      1    2295
                                              5 BANK1      7     6      1
                        _LCDBusyLoop
 ---------------------------------------------------------------------------------
 (3) _LCDBusyLoop                                          5     5      0     176
                                              0 BANK1      5     5      0
 ---------------------------------------------------------------------------------
 (1) _InitADC                                              0     0      0       0
 ---------------------------------------------------------------------------------
 Estimated maximum stack depth 3
 ---------------------------------------------------------------------------------
 (Depth) Function   	        Calls       Base Space   Used Autos Params    Refs
 ---------------------------------------------------------------------------------
 (4) _Count_Up                                             8     8      0    4304
                                             21 BANK0      8     8      0
                            _ReadADC
                            ___fldiv
                            ___flmul
                           ___xxtofl
 ---------------------------------------------------------------------------------
 (5) ___xxtofl                                            14    10      4     474
                                              9 COMMON     4     0      4
                                              0 BANK0     10    10      0
                            _ReadADC (ARG)
 ---------------------------------------------------------------------------------
 (5) ___flmul                                             26    18      8    2417
                                              9 COMMON     5     5      0
                                              0 BANK0     21    13      8
                          __Umul8_16
 ---------------------------------------------------------------------------------
 (6) __Umul8_16                                            9     7      2     799
                                              0 COMMON     9     7      2
 ---------------------------------------------------------------------------------
 (5) ___fldiv                                             26    18      8    1273
                                              0 COMMON    13     5      8
                                              0 BANK0     13    13      0
 ---------------------------------------------------------------------------------
 (5) _ReadADC                                              9     7      2     140
                                              0 COMMON     9     7      2
 ---------------------------------------------------------------------------------
 Estimated maximum stack depth 6
 ---------------------------------------------------------------------------------

 Call Graph Graphs:

 _main (ROOT)
   _InitADC
   _LCDByte
     _LCDBusyLoop
   _LCDGotoXY
     _LCDByte
       _LCDBusyLoop
   _LCDInit
     _LCDBusyLoop
     _LCDByte
       _LCDBusyLoop
   _LCDWriteString
     _LCDByte
       _LCDBusyLoop
   _SPI_Initialize_Master
   _SPI_Read
   _SPI_Write
   ___fltol
   ___lwdiv
     ___lwmod (ARG)
   ___lwmod
   _timer2_initialize

 _Count_Up (ROOT)
   _ReadADC
   ___fldiv
   ___flmul
     __Umul8_16
   ___xxtofl
     _ReadADC (ARG)

 Address spaces:
Name               Size   Autos  Total    Cost      Usage
BANK3               60      0      40       9       66.7%
BITBANK3            60      0       0       8        0.0%
SFR3                 0      0       0       4        0.0%
BITSFR3              0      0       0       4        0.0%
BANK2               60      0       0      11        0.0%
BITBANK2            60      0       0      10        0.0%
SFR2                 0      0       0       5        0.0%
BITSFR2              0      0       0       5        0.0%
BANK1               50     33      33       7       63.7%
BITBANK1            50      0       0       6        0.0%
SFR1                 0      0       0       2        0.0%
BITSFR1              0      0       0       2        0.0%
BANK0               50     1D      37       5       68.8%
BITBANK0            50      0       0       4        0.0%
SFR0                 0      0       0       1        0.0%
BITSFR0              0      0       0       1        0.0%
COMMON               E      E       E       1      100.0%
BITCOMMON            E      0       0       0        0.0%
CODE                 0      0       0       0        0.0%
DATA                 0      0      B8      12        0.0%
ABS                  0      0      B8       3        0.0%
NULL                 0      0       0       0        0.0%
STACK                0      0       0       2        0.0%
EEDATA             100      0       0       0        0.0%


Microchip Technology PIC Macro Assembler V2.30 build 20200825195618 
Symbol Table                                                                                   Wed Aug 04 09:49:51 2021

                  ?_LCDBusyLoop 0070                    ___fldiv@aexp 002C                    ___fldiv@bexp 002B  
                             _i 0053                               pc 0002                    ___fldiv@sign 0024  
                   _SSPSTATbits 0094                              l90 0AB3                              l75 07F2  
                            l93 07F3                              l87 0AD3                              l96 07FC  
                            fsr 0004             __Umul8_16@word_mpld 0076                             l130 0C25  
                           l131 0C53                             l141 0D13                             l135 0CA3  
                           l151 0D80                             l136 0CAC                             l129 0C22  
                           l171 0B42                             l174 0B3A                             l175 0B18  
                           l194 0AC4                             l571 0C04                             l492 07C8  
                           l485 07DD                             l581 0B7E                             l495 07DD  
                           _GIE 005F                             _RA1 0029                             _RA2 002A  
                           _RA3 002B                             _PR2 0092                     main@Rx_data 00B7  
                   main@Tx_data 00C1                             fsr0 0004                             indf 0000  
                  ___flmul@aexp 002D                    ___flmul@bexp 002E                    ___flmul@sign 0028  
                  ___flmul@temp 0033                    ___flmul@prod 002F                 __end_of_LCDByte 0C54  
               __end_of_LCDInit 0D14                     LCDByte@temp 00AB                    ___fltol@exp1 00AA  
                          l3001 03D0                            l3011 03EA                            l3003 03D9  
                          l3021 0412                            l3013 03F1                            l3005 03DF  
                          l3031 0444                            l3023 0416                            l3015 03FA  
                          l3007 03E3                            l3041 0499                            l3033 0466  
                          l3025 041C                            l3017 03FC                            l3009 03E7  
                          l3051 04E7                            l3043 04A4                            l3035 0479  
                          l3027 041D                            l3019 0408                            l3061 054A  
                          l3053 04FA                            l3045 04AE                            l3037 048C  
                          l3029 0440                            l3151 0B2C                            l3063 0550  
                          l3055 051C                            l3047 04B9                            l3039 0493  
                          l3065 055B                            l3057 052F                            l3049 04C4  
                          l3067 0565                            l3059 0542                            l2701 0C5F  
                          l3069 0570                            l2711 0C79                            l2703 0C62  
                          l2721 0C89                            l2713 0C7C                            l2705 0C63  
                          l2731 0C9B                            l2723 0C8D                            l2715 0C7D  
                          l2707 0C6B                            l2811 0CC3                            l2803 0CB0  
                          l2733 0C9C                            l2725 0C92                            l2717 0C80  
                          l2709 0C78                            l2741 0C19                            l2821 0CCD  
                          l2813 0CC4                            l2805 0CBB                            l2735 0CA6  
                          l2727 0C97                            l2719 0C81                            l2751 0C36  
                          l2743 0C1E                            l2831 0CD6                            l2823 0CCE  
                          l2815 0CCA                            l2807 0CC1                            l2911 0798  
                          l2903 0778                            l2729 0C98                            l2761 0C4A  
                          l2753 0C39                            l2745 0C29                            l2737 0C08  
                          l2841 0CF8                            l2833 0CD7                            l2825 0CD1  
                          l2817 0CCB                            l2809 0CC2                            l2913 079C  
                          l2921 07B6                            l2905 078D                            l2691 0C54  
                          l2763 0C4D                            l2755 0C3A                            l2747 0C31  
                          l2739 0C14                            l2851 0D0D                            l2835 0CDC  
                          l2827 0CD2                            l2819 0CCC                            l2931 07D2  
                          l2907 078E                            l2771 07E6                            l2853 0ABC  
                          l2693 0C54                            l2765 0C4E                            l2757 0C3D  
                          l2749 0C35                            l2837 0CE5                            l2829 0CD3  
                          l2861 0D28                            l2909 0796                            l2941 0BD3  
                          l2933 0BBF                            l2781 07ED                            l2773 07E9  
                          l2695 0C5A                            l2759 0C49                            l2847 0CFB  
                          l2839 0CEF                            l2871 0D4F                            l2863 0D33  
                          l2855 0D17                            l2791 0ACF                            l2927 07BD  
                          l2919 07A4                            l2951 0BF3                            l2943 0BD7  
                          l2935 0BC3                            l2783 07F0                            l2775 07EA  
                          l2767 07DE                            l2697 0C5D                            l2849 0D07  
                          l2865 0D37                            l2873 0D60                            l2857 0D18  
                          l2793 0AD2                            l2929 07CD                            l2953 0BFA  
                          l2945 0BDB                            l2937 0BC9                            l2961 0B4B  
                          l2785 07F1                            l2777 07EB                            l2769 07E2  
                          l2699 0C5E                            l2891 0B3B                            l2883 0B1A  
                          l2875 0D6E                            l2867 0D3E                            l2859 0D24  
                          l2787 0AC5                            l2795 0AAF                            l2947 0BEC  
                          l2939 0BCC                            l2955 0C00                            l2971 0B67  
                          l2963 0B4E                            l2779 07EC                            l2885 0B1F  
                          l2869 0D47                            l2877 0D74                            l2789 0AC9  
                          l2797 07F3                            l2949 0BF2                            l2973 0B6D  
                          l2965 0B55                            l2981 0391                            l2879 0B11  
                          l2799 07F9                            l2975 0B74                            l2967 0B59  
                          l2959 0B43                            l2991 03A8                            l2983 0399  
                          l2889 0B24                            l2897 0762                            l2969 0B5D  
                          l2977 0B7A                            l2993 03AD                            l2985 0399  
                          l2899 076F                            l2995 03B2                            l2987 039E  
                          l2997 03BB                            l2989 03A2                            l2999 03C1  
                          STR_1 081E                            STR_2 0806                            STR_3 0812  
                          u3010 0C1E                            u3011 0C1D                            u3020 07F9  
                          u3100 0786                            u3005 0C0B                            u3021 07F8  
                          u3030 0D13                            u3110 079C                            u3031 0D12  
                          u3111 079B                            u3040 0D24                            u3120 07A3  
                          u3041 0D23                            u3121 07A2                            u3105 0781  
                          u3050 0D37                            u3210 0BDB                            u3051 0D36  
                          u3211 0BDA                            u3060 0D3E                            u3140 07B5  
                          u3061 0D3D                            u3141 07B4                            u3205 0BCD  
                          u3070 0D80                            u3150 07BC                            u3230 0BEC  
                          u3310 0B7A                            u3071 0D7F                            u3151 07BB  
                          u3135 07A5                            u3231 0BEB                            u3311 0B79  
                          u3080 0B17                            u3320 03F1                            u3081 0B16  
                          u3225 0BDC                            u3305 0B6E                            u3321 03F0  
                          u3170 07CD                            u3090 076F                            u3250 0C00  
                          u3330 03FA                            u3171 07CC                            u3091 076E  
                          u3251 0BFF                            u3235 0BE8                            u3331 03F9  
                          u3180 07D2                            u3260 0B4B                            u3340 041C  
                          u3181 07D1                            u3165 07BF                            u3245 0BF4  
                          u3261 0B4A                            u3341 041B                            u3190 0BC9  
                          u3191 0BC8                            u3280 0B5D                            u3281 0B5C  
                          u3417 03C9                            u3290 0B67                            u3427 0CB6  
                          u3291 0B66                            u3275 0B4F                            u3295 0B63  
                          _PEIE 005E                            u2990 0CA3                            u2991 0CA2  
                          u2985 0C6E                            i1l84 0EF2                            _Dong 0046  
                          _main 0391              __size_of_LCDGotoXY 0035                            btemp 007E  
                          start 0012                 ___fldiv@new_exp 0025                 __end_of_InitADC 0AC5  
               __end_of_ReadADC 1000                   ___fltol@sign1 00A9                           ?_main 00B0  
               __end_of___fldiv 0762                 __end_of___flmul 0391                 __end_of___fltol 07DE  
                  LCDInit@style 00AE                 __end_of___lwdiv 0C05                           i1l200 0F08  
                         i1l201 0F0E                           i1l202 0F14                           i1l211 0FCC  
                         i1l203 0F1A                           i1l204 0F20                           i1l213 0FFF  
                         i1l205 0F26                           i1l206 0F2C                 __end_of___lwmod 0B7F  
                         i1l700 0384                           i1l198 0F02                           i1l650 0761  
                         i1l707 0AFB                           i1l732 0DA5                           i1l709 0B0D  
                         i1l670 0745                           i1l734 0E3C                           i1l672 0755  
                         i1l664 06D3                           i1l648 05DB                           i1l745 0E06  
                         i1l746 0E12                           i1l738 0DEA                           i1l694 02FC  
                         i1l688 0390                           _PORTB 0006                           _PORTD 0008  
                         _TRISB 0086                           _TRISC 0087                           _TRISD 0088  
                         _count 0051                __end_of_SPI_Read 07FD                           pclath 000A  
                ReadADC@Channel 0074                           status 0003                           wtemp0 007E  
            __size_of_SPI_Write 0008                 __initialization 0015                    __end_of_main 057F  
              __end_of_Count_Up 0EFE                          ??_main 00B4               __end_of_LCDGotoXY 0B43  
                 LCDByte@isdata 00A5                       ??_LCDByte 00A6                       ??_LCDInit 00AC  
                        _ADCON1 009F                          i1l2101 05A3                          i1l2111 05B9  
                        i1l2103 05A4                          i1l2201 06EB                          i1l2121 05D0  
                        i1l2113 05BD                          i1l2105 05A6                          i1l2211 0729  
                        i1l2203 06EF                          i1l2131 05F3                          i1l2123 05D1  
                        i1l2115 05BE                          i1l2107 05AE                          i1l2221 074F  
                        i1l2213 0738                          i1l2205 0708                          i1l2141 060A  
                        i1l2117 05C3                          i1l2125 05D3                          i1l2109 05B3  
                        i1l2301 01F0                          i1l2223 0751                          i1l2215 073C  
                        i1l2207 070E                          i1l2151 0636                          i1l2143 061C  
                        i1l2127 05E3                          i1l2135 05FC                          i1l2119 05C8  
                        i1l2311 02A8                          i1l2303 021D                          i1l2231 0037  
                        u200_20 068C                          i1l2217 0744                          i1l2209 071B  
                        u200_21 068B                          i1l2153 063B                          i1l2161 065B  
                        i1l2145 0624                          i1l2137 0601                          i1l2129 05EF  
                        i1l2321 02CD                          i1l2313 02B1                          i1l2305 022D  
                        i1l2241 004C                          i1l2233 003D                          i1l2401 0E14  
                        i1l2219 074B                          i1l2171 068C                          i1l2163 066D  
                        i1l2155 064D                          i1l2147 062C                          i1l2091 058C  
                        i1l2331 02E5                          i1l2323 02D6                          i1l2315 02BF  
                        i1l2307 025A                          i1l2251 0069                          i1l2243 0054  
                        i1l2235 0041                          i1l2403 0E2A                          i1l2181 06A4  
                        i1l2173 0694                          i1l2165 066E                          i1l2157 0651  
                        i1l2149 0634                          i1l2093 0590                          i1l2341 0314  
                        i1l2333 02F9                          i1l2317 02C8                          i1l2325 02DC  
                        i1l2309 0280                          i1l2261 0080                          i1l2253 006D  
                        i1l2245 0056                          i1l2237 0042                          i1l2229 0030  
                        i1l2405 0E2F                          i1l2421 0E50                          i1l2413 0E3D  
                        i1l2191 06BC                          i1l2183 06AD                          i1l2175 0696  
                        i1l2167 0682                          i1l2159 0652                          i1l2095 0591  
                        i1l2087 057F                          i1l2351 034F                          i1l2343 0318  
                        i1l2327 02E0                          i1l2319 02CC                          i1l2263 0082  
                        i1l2255 006E                          i1l2247 005E                          i1l2239 0047  
                        i1l2407 0E33                          i1l2431 0E8A                          i1l2423 0E57  
                        i1l2415 0E43                          u201_20 0694                          i1l3153 0F3A  
                        i1l2193 06D0                          i1l2177 069F                          i1l2185 06B3  
                        u201_21 0693                          i1l2169 0686                          i1l2097 0596  
                        i1l2089 0586                          i1l2361 037C                          i1l2353 035E  
                        i1l2345 0331                          i1l2337 0301                          i1l2329 02E1  
                        i1l2281 00F3                          i1l2273 009D                          i1l2265 008A  
                        i1l2257 0073                          i1l2249 0063                          i1l2409 0E34  
                        i1l2433 0EA9                          i1l2425 0E59                          i1l2417 0E49  
                        i1l2187 06B7                          i1l2179 06A3                          i1l2099 059B  
                        i1l2363 037D                          i1l2355 0368                          i1l2339 0306  
                        i1l2347 0337                          i1l2291 0170                          i1l2283 011F  
                        i1l2275 00AD                          i1l2267 008F                          i1l2259 0078  
                        i1l2371 0D89                          i1l2435 0EAC                          i1l2427 0E5F  
                        i1l2419 0E4A                          i1l2197 06D8                          i1l2189 06B8  
                        i1l2365 0388                          i1l2357 036A                          i1l2349 0344  
                        i1l2293 018D                          i1l2285 013B                          i1l2277 00BA  
                        i1l2269 0094                          i1l2381 0DB6                          i1l2373 0D8D  
                        i1l2437 0ED2                          i1l2429 0E64                          i1l1831 0F62  
                        i1l1823 0F32                          i1l2199 06DD                          i1l2359 0378  
                        i1l2295 019D                          i1l2287 0157                          i1l2279 00D7  
                        i1l2391 0DE1                          i1l2383 0DBB                          i1l2375 0D9D  
                        i1l2439 0EF1                          u210_20 06EF                          i1l1841 0F77  
                        i1l1833 0F65                          i1l1825 0F54                          i1l1817 0EFF  
                        u210_21 06EE                          i1l2297 01BA                          i1l2289 0160  
                        i1l2393 0DF1                          i1l2385 0DC8                          i1l2377 0DAD  
                        i1l2369 0D84                          i1l1851 0F87                          i1l1843 0F78  
                        i1l1835 0F6B                          i1l1827 0F59                          i1l1819 0F01  
                        i1l2299 01D3                          i1l2395 0DFC                          i1l2387 0DCF  
                        i1l1853 0F8C                          i1l1837 0F6E                          i1l1829 0F5C  
                        u202_25 0698                          i1l2397 0E00                          i1l2389 0DD3  
                        i1l1839 0F74                          i1l1791 0B04                          i1l1783 0AE8  
                        i1l2399 0E0A                          u211_20 06FE                          u203_20 06A3  
                        i1l1881 0FE3                          i1l1873 0FBD                          i1l1865 0FA4  
                        i1l1857 0F93                          i1l1849 0F7A                          u203_21 06A2  
                        i1l1793 0B09                          i1l1785 0AEA                          i1l1883 0FF2  
                        i1l1875 0FCE                          i1l1867 0FB1                          i1l1859 0FA2  
                        i1l1787 0AF1                          i1l1885 0FF5                          i1l1877 0FD3  
                        i1l1869 0FB6                          u211_25 06F9                          i1l1789 0AF5  
                        i1l1879 0FDB                          u212_20 071B                          u220_20 0078  
                        u212_21 071A                          u220_21 0077                          u212_25 0717  
                        u204_25 06A6                          u213_20 0738                          u205_20 06B7  
                        u221_20 008F                          u213_21 0737                          u205_21 06B6  
                        u221_21 008E                          u213_25 0734                          u150_20 0FA2  
                        u214_20 074F                          u206_20 06BC                          u222_20 0094  
                        u150_21 0FA1                          u214_21 074E                          u206_21 06BB  
                        u222_21 0093                          u230_25 01BC                          u151_20 0FAE  
                        u207_20 06D0                          u215_20 0041                          u151_21 0FAA  
                        u207_21 06CF                          u231_21 01E2                          u223_21 00E5  
                        u215_21 0040                          u231_22 01E9                          u223_22 00EC  
                        u231_23 01F0                          u223_23 00F3                          u208_20 06D7  
                        u144_20 0AF5                          u240_20 02CC                          u216_20 0047  
                        u208_21 06D6                          u144_21 0AF4                          u240_21 02CB  
                        u232_21 020F                          u224_21 0101                          u216_21 0046  
                        u232_22 0216                          u224_22 0108                          u232_23 021D  
                        u224_23 010F                          u152_24 0FB1                          u153_20 0FBC  
                        u209_20 06DD                          u217_20 004C                          u153_21 0FBB  
                        u209_21 06DC                          u233_21 023C                          u225_21 012D  
                        u217_21 004B                          u233_22 0243                          u225_22 0134  
                        u233_23 024A                          u225_23 013B                          u145_25 0AFC  
                        u241_25 02CF                          u154_20 0FCC                          u146_20 0B09  
                        u250_20 035E                          u242_20 02E0                          u234_20 0266  
                        u218_20 006D                          u154_21 0FCB                          u146_21 0B08  
                        u250_21 035D                          u242_21 02DF                          u226_21 0149  
                        u218_21 006C                          u226_22 0150                          u226_23 0157  
                        u250_25 035A                          u234_25 0261                          u147_20 0F84  
                        u251_20 037C                          u243_20 02E5                          u219_20 0073  
                        u147_21 0F80                          u251_21 037B                          u243_21 02E4  
                        u235_21 0272                          u219_21 0072                          u235_22 0279  
                        u235_23 0280                          u227_25 0159                          u244_20 02F9  
                        u236_20 028E                          u260_20 0E00                          u252_20 0D89  
                        u244_21 02F8                          u228_21 017F                          u260_21 0DFF  
                        u252_21 0D88                          u228_22 0186                          u228_23 018D  
                        u148_24 0F87                          u236_25 0289                          u149_20 0F92  
                        u245_20 0300                          u261_20 0E06                          u253_20 0D8D  
                        u149_21 0F91                          u245_21 02FF                          u237_21 029A  
                        u229_21 01AC                          u261_21 0E05                          u253_21 0D8C  
                        u237_22 02A1                          u229_22 01B3                          u237_23 02A8  
                        u229_23 01BA                          u190_20 05C8                          u246_20 0306  
                        u262_20 0E0A                          u254_20 0DAD                          u190_21 05C7  
                        u246_21 0305                          u262_21 0E09                          u254_21 0DAC  
                        u238_25 02AA                          u350_27 0FD8                          u191_20 05E3  
                        u247_20 0318                          u263_20 0E1F                          u191_21 05E2  
                        u247_21 0317                          u239_25 02C1                          u263_25 0E1A  
                        u255_25 0DC0                          u351_27 0FE0                          u343_27 0F56  
                        u192_20 0601                          u248_20 0327                          u264_20 0E2F  
                        u256_20 0DCE                          u192_21 0600                          u264_21 0E2E  
                        u256_21 0DCD                          u248_25 0322                          u352_27 0FEF  
                        u344_27 0F5F                          u193_20 063B                          u185_20 0590  
                        u249_20 0344                          u265_20 0E33                          u193_21 063A  
                        u185_21 058F                          u249_21 0343                          u265_21 0E32  
                        u249_25 0340                          u257_25 0DE2                          u353_27 0FF8  
                        u345_27 0F68                          u186_20 0596                          u258_20 0DF0  
                        u266_20 0E43                          u186_21 0595                          u258_21 0DEF  
                        u266_21 0E42                          u194_25 063D                          u346_27 0F71  
                        u187_20 059B                          u267_20 0E49                          u187_21 059A  
                        u267_21 0E48                          u195_25 0646                          u259_25 0DF5  
                        u347_27 0F89                          u196_20 0651                          u188_20 05BD  
                        u268_20 0E57                          u196_21 0650                          u188_21 05BC  
                        u268_21 0E56                          u348_27 0FB3                          u189_20 05C3  
                        u269_20 0E64                          u189_21 05C2                          u269_21 0E63  
                        u197_25 0654                          u349_27 0FD0                          u198_20 066D  
                        u198_21 066C                          u198_25 0669                          u199_20 0682  
                        u199_25 0675                          u199_26 0676                          u199_27 067B  
                        u199_28 067C                          u199_29 0681                          _TMR2IE 0461  
                        _TMR2IF 0061                          _TMR2ON 0092  __size_of_SPI_Initialize_Master 000F  
 __end_of_SPI_Initialize_Master 0AD4                          _SSPCON 0014                          _SSPBUF 0013  
              __end_of___xxtofl 0E3D                       ??_InitADC 00A0                       ??_ReadADC 0072  
                        _Dienap 0042                  _LCDWriteString 0D14                          _adc_ok 0055  
                     ??___fldiv 0078                       ??___flmul 0079                       ??___fltol 00A4  
                     ??___lwdiv 00AA                       ??___lwmod 00A4                          _count1 004F  
          __size_of_LCDBusyLoop 0059               __end_of_SPI_Write 0AB4              __size_of__Umul8_16 0027  
                        saved_w 007E                    ___xxtofl@arg 0026                    ___xxtofl@exp 0025  
                  ___xxtofl@val 0079         __end_of__initialization 002C          __end_of_LCDWriteString 0D81  
                    ___fltol@f1 00A0                       LCDByte@hn 00A8                       LCDByte@ln 00A9  
                __pcstackCOMMON 0070                    __pidataBANK3 0B7F                       ?_SPI_Read 0070  
                    __pbssBANK0 003D                       ?_Count_Up 0070                 ?_LCDWriteString 0070  
             __end_of__Umul8_16 0B0E                      __pmaintext 0391                ReadADC@ADC_value 0075  
                    __pintentry 0004                      ??_SPI_Read 00A0                         _T2CKPS0 0090  
                       _T2CKPS1 0091                         _LCDByte 0C05                         _LCDInit 0CAD  
                     ?___xxtofl 0079               SPI_Write@incoming 00A0                         _SSPSTAT 0094  
                       _TOUTPS0 0093                         _TOUTPS1 0094                         _TOUTPS2 0095  
                    __stringtab 0800                      ??_Count_Up 0035                         _InitADC 0ABC  
                       _ReadADC 0EFE                         ___cgram 0190                         ___fldiv 057F  
                       ___flmul 0030                         ___fltol 0762                         ___lwdiv 0BBF  
                       ___lwmod 0B43               _timer2_initialize 07DE                         __ptext1 07DE  
                       __ptext2 0B43                         __ptext3 0BBF                         __ptext4 0762  
                       __ptext5 0AAC                         __ptext6 07F3                         __ptext7 0AC5  
                       __ptext8 0D14                         __ptext9 0CAD              ?_timer2_initialize 0070  
                       _count_s 004D                      ??___xxtofl 0020                       _LCDGotoXY 0B0E  
           ??_timer2_initialize 00A0                         clrloop0 0AB5            end_of_initialization 002C  
     __end_of_timer2_initialize 07F3                       _PORTCbits 0007                       _PORTDbits 0008  
             LCDWriteString@msg 00AE                   ___xxtofl@sign 0024                       _TRISAbits 0085  
                     _TRISCbits 0087                       _TRISDbits 0088                      ?_LCDGotoXY 00AC  
                   ___fldiv@grs 0027                     ___fldiv@rem 0020                       _SPI_Write 0AAC  
                   ___flmul@grs 0029                      LCDInit@__i 00AF                      LCDGotoXY@x 00AF  
                    LCDGotoXY@y 00AC           _SPI_Initialize_Master 0AC5                   ??_LCDBusyLoop 00A0  
             __size_of_SPI_Read 000A             start_initialization 0015                      ?_SPI_Write 0070  
              ??_LCDWriteString 00AC               __size_of_Count_Up 00C1      __size_of_timer2_initialize 0015  
                    init_fetch0 0AD4                       __Umul8_16 0AE7                     __pdataBANK3 0190  
           __end_of_LCDBusyLoop 0CAD                        ?_LCDByte 00A5                        ?_LCDInit 0070  
                     ___fldiv@a 0070                       ___fldiv@b 0074                       ___flmul@a 0024  
                     ___flmul@b 0020                        LCDByte@c 00AA                       ___latbits 0002  
                 __pcstackBANK0 0020                   __pcstackBANK1 00A0                     ??_LCDGotoXY 00AD  
             __size_of___xxtofl 00BC                        ?_InitADC 0070                        ?_ReadADC 0070  
        ?_SPI_Initialize_Master 0070                       _main$1025 00CB                ___lwdiv@dividend 00A8  
                     _do_dienap 0056                        ?___fldiv 0070                        ?___flmul 0020  
                      ?___fltol 00A0                      ?__Umul8_16 0070                        ?___lwdiv 00A6  
                      ?___lwmod 00A0                       __pstrings 0800                 LCDBusyLoop@busy 00A2  
               LCDBusyLoop@temp 00A3                     ??_SPI_Write 00A0                ___lwdiv@quotient 00AC  
             interrupt_function 0004                       clear_ram0 0AB4                       main@F1098 004A  
                   _LCDBusyLoop 0C54                LCDWriteString@cc 00AD                        _SPI_Read 07F3  
                     main@Digit 00CE                        ReadADC@i 0077                     __stringbase 0805  
                     main@i_spi 00CD                __size_of_LCDByte 004F                __size_of_LCDInit 0067  
                      _Count_Up 0E3D                __size_of_InitADC 0009                __size_of_ReadADC 0102  
                   ??__Umul8_16 0072                __size_of___fldiv 01E3                __size_of___flmul 0361  
              __size_of___fltol 007C               LCDBusyLoop@status 00A4                __size_of___lwdiv 0046  
              __size_of___lwmod 003C              __end_of__stringtab 0806                 LCDWriteInt@F912 003D  
                      ___xxtofl 0D81                 ___lwdiv@divisor 00A6                 ___lwdiv@counter 00AB  
                      __ptext10 0B0E                        __ptext11 0C05                        __ptext12 0C54  
                      __ptext13 0ABC                        __ptext14 0E3D                        __ptext15 0D81  
                      __ptext16 0030                        __ptext17 0AE7                        __ptext18 057F  
                      __ptext19 0EFE                   __size_of_main 01EE                   main@ADC_Value 00D1  
                      main@argc 00B0                        main@argv 00B2                        init_ram0 0AD8  
                      intlevel1 0000         ??_SPI_Initialize_Master 00A0                ___lwmod@dividend 00A2  
                     stringcode 0800          __Umul8_16@multiplicand 0070                 ___lwmod@divisor 00A0  
               ___lwmod@counter 00A5                        stringdir 0800                        stringtab 0800  
          __Umul8_16@multiplier 0078               __Umul8_16@product 0074         __size_of_LCDWriteString 006D  
