

Microchip MPLAB XC8 Assembler V2.40 build 20220703182018 
                                                                                               Mon Mar 20 20:58:44 2023

Microchip MPLAB XC8 C Compiler v2.40 (Free license) build 20220703182018 Og1 
     1                           	processor	16F877A
     2                           	pagewidth 120
     3                           	opt	flic
     4                           	psect	idataBANK0,global,class=CODE,delta=2,noexec
     5                           	psect	cinit,global,class=CODE,merge=1,delta=2
     6                           	psect	bssBANK0,global,class=BANK0,space=1,delta=1,noexec
     7                           	psect	dataBANK0,global,class=BANK0,space=1,delta=1,noexec
     8                           	psect	inittext,global,class=CODE,delta=2
     9                           	psect	cstackBANK1,global,class=BANK1,space=1,delta=1,noexec
    10                           	psect	cstackCOMMON,global,class=COMMON,space=1,delta=1,noexec
    11                           	psect	cstackBANK0,global,class=BANK0,space=1,delta=1,noexec
    12                           	psect	maintext,global,class=CODE,split=1,delta=2
    13                           	psect	text1,local,class=CODE,merge=1,delta=2
    14                           	psect	text2,local,class=CODE,merge=1,delta=2
    15                           	psect	text3,local,class=CODE,merge=1,delta=2
    16                           	psect	intentry,global,class=CODE,delta=2
    17                           	psect	text4,local,class=CODE,merge=1,delta=2,group=1
    18                           	psect	text5,local,class=CODE,merge=1,delta=2
    19                           	psect	text6,local,class=CODE,merge=1,delta=2,group=1
    20                           	psect	text7,local,class=CODE,merge=1,delta=2,group=1
    21                           	psect	text8,local,class=CODE,merge=1,delta=2,group=1
    22                           	psect	text9,local,class=CODE,merge=1,delta=2
    23                           	psect	text10,local,class=CODE,merge=1,delta=2,group=1
    24                           	psect	text11,local,class=CODE,merge=1,delta=2,group=1
    25                           	psect	text12,local,class=CODE,merge=1,delta=2,group=1
    26                           	psect	idloc,global,abs,ovrld,class=IDLOC,space=5,delta=2,noexec
    27                           	psect	config,global,abs,ovrld,class=CONFIG,space=4,delta=2,noexec
    28                           	dabs	1,0x7E,2
    29     0000                     
    30                           ; Version 2.40
    31                           ; Generated 17/11/2021 GMT
    32                           ; 
    33                           ; Copyright © 2021, Microchip Technology Inc. and its subsidiaries ("Microchip")
    34                           ; All rights reserved.
    35                           ; 
    36                           ; This software is developed by Microchip Technology Inc. and its subsidiaries ("Microch
      +                          ip").
    37                           ; 
    38                           ; Redistribution and use in source and binary forms, with or without modification, are
    39                           ; permitted provided that the following conditions are met:
    40                           ; 
    41                           ;     1. Redistributions of source code must retain the above copyright notice, this lis
      +                          t of
    42                           ;        conditions and the following disclaimer.
    43                           ; 
    44                           ;     2. Redistributions in binary form must reproduce the above copyright notice, this 
      +                          list
    45                           ;        of conditions and the following disclaimer in the documentation and/or other
    46                           ;        materials provided with the distribution. Publication is not required when
    47                           ;        this file is used in an embedded application.
    48                           ; 
    49                           ;     3. Microchip's name may not be used to endorse or promote products derived from th
      +                          is
    50                           ;        software without specific prior written permission.
    51                           ; 
    52                           ; THIS SOFTWARE IS PROVIDED BY MICROCHIP "AS IS" AND ANY EXPRESS OR IMPLIED WARRANTIES,
    53                           ; INCLUDING, BUT NOT LIMITED TO, THE IMPLIED WARRANTIES OF MERCHANTABILITY AND FITNESS F
      +                          OR
    54                           ; PURPOSE ARE DISCLAIMED.  IN NO EVENT SHALL MICROCHIP BE LIABLE FOR ANY DIRECT, INDIREC
      +                          T,
    55                           ; INCIDENTAL, SPECIAL, EXEMPLARY, OR CONSEQUENTIAL DAMAGES (INCLUDING BUT NOT LIMITED TO
    56                           ; PROCUREMENT OF SUBSTITUTE GOODS OR SERVICES; LOSS OF USE, DATA OR PROFITS; OR BUSINESS
    57                           ; INTERRUPTION) HOWSOEVER CAUSED AND ON ANY THEORY OF LIABILITY, WHETHER IN CONTRACT, ST
      +                          RICT
    58                           ; LIABILITY, OR TORT (INCLUDING NEGLIGENCE OR OTHERWISE) ARISING IN ANY WAY OUT OF THE U
      +                          SE OF
    59                           ; THIS SOFTWARE, EVEN IF ADVISED OF THE POSSIBILITY OF SUCH DAMAGE.
    60                           ; 
    61                           ; 
    62                           ; Code-generator required, PIC16F877A Definitions
    63                           ; 
    64                           ; SFR Addresses
    65     0000                     	;# 
    66     0001                     	;# 
    67     0002                     	;# 
    68     0003                     	;# 
    69     0004                     	;# 
    70     0005                     	;# 
    71     0006                     	;# 
    72     0007                     	;# 
    73     0008                     	;# 
    74     0009                     	;# 
    75     000A                     	;# 
    76     000B                     	;# 
    77     000C                     	;# 
    78     000D                     	;# 
    79     000E                     	;# 
    80     000E                     	;# 
    81     000F                     	;# 
    82     0010                     	;# 
    83     0011                     	;# 
    84     0012                     	;# 
    85     0013                     	;# 
    86     0014                     	;# 
    87     0015                     	;# 
    88     0015                     	;# 
    89     0016                     	;# 
    90     0017                     	;# 
    91     0018                     	;# 
    92     0019                     	;# 
    93     001A                     	;# 
    94     001B                     	;# 
    95     001B                     	;# 
    96     001C                     	;# 
    97     001D                     	;# 
    98     001E                     	;# 
    99     001F                     	;# 
   100     0081                     	;# 
   101     0085                     	;# 
   102     0086                     	;# 
   103     0087                     	;# 
   104     0088                     	;# 
   105     0089                     	;# 
   106     008C                     	;# 
   107     008D                     	;# 
   108     008E                     	;# 
   109     0091                     	;# 
   110     0092                     	;# 
   111     0093                     	;# 
   112     0094                     	;# 
   113     0098                     	;# 
   114     0099                     	;# 
   115     009C                     	;# 
   116     009D                     	;# 
   117     009E                     	;# 
   118     009F                     	;# 
   119     010C                     	;# 
   120     010D                     	;# 
   121     010E                     	;# 
   122     010F                     	;# 
   123     018C                     	;# 
   124     018D                     	;# 
   125     0000                     	;# 
   126     0001                     	;# 
   127     0002                     	;# 
   128     0003                     	;# 
   129     0004                     	;# 
   130     0005                     	;# 
   131     0006                     	;# 
   132     0007                     	;# 
   133     0008                     	;# 
   134     0009                     	;# 
   135     000A                     	;# 
   136     000B                     	;# 
   137     000C                     	;# 
   138     000D                     	;# 
   139     000E                     	;# 
   140     000E                     	;# 
   141     000F                     	;# 
   142     0010                     	;# 
   143     0011                     	;# 
   144     0012                     	;# 
   145     0013                     	;# 
   146     0014                     	;# 
   147     0015                     	;# 
   148     0015                     	;# 
   149     0016                     	;# 
   150     0017                     	;# 
   151     0018                     	;# 
   152     0019                     	;# 
   153     001A                     	;# 
   154     001B                     	;# 
   155     001B                     	;# 
   156     001C                     	;# 
   157     001D                     	;# 
   158     001E                     	;# 
   159     001F                     	;# 
   160     0081                     	;# 
   161     0085                     	;# 
   162     0086                     	;# 
   163     0087                     	;# 
   164     0088                     	;# 
   165     0089                     	;# 
   166     008C                     	;# 
   167     008D                     	;# 
   168     008E                     	;# 
   169     0091                     	;# 
   170     0092                     	;# 
   171     0093                     	;# 
   172     0094                     	;# 
   173     0098                     	;# 
   174     0099                     	;# 
   175     009C                     	;# 
   176     009D                     	;# 
   177     009E                     	;# 
   178     009F                     	;# 
   179     010C                     	;# 
   180     010D                     	;# 
   181     010E                     	;# 
   182     010F                     	;# 
   183     018C                     	;# 
   184     018D                     	;# 
   185                           
   186                           	psect	idataBANK0
   187     0FAE                     __pidataBANK0:
   188                           
   189                           ;initializer for _ma
   190     0FAE  34C0               	retlw	192
   191     0FAF  34F9               	retlw	249
   192     0FB0  34A4               	retlw	164
   193     0FB1  34B0               	retlw	176
   194     0FB2  3499               	retlw	153
   195     0FB3  3492               	retlw	146
   196     0FB4  3482               	retlw	130
   197     0FB5  34F8               	retlw	248
   198     0FB6  3480               	retlw	128
   199     0FB7  3490               	retlw	144
   200     0001                     _TMR0	set	1
   201     0007                     _PORTCbits	set	7
   202     0006                     _PORTB	set	6
   203     001E                     _ADRESH	set	30
   204     001F                     _ADCON0	set	31
   205     005A                     _TMR0IF	set	90
   206     005F                     _GIE	set	95
   207     005D                     _TMR0IE	set	93
   208     00FA                     _GO_DONE	set	250
   209     00F8                     _ADON	set	248
   210     00FD                     _CHS2	set	253
   211     00FC                     _CHS1	set	252
   212     00FB                     _CHS0	set	251
   213     0086                     _TRISB	set	134
   214     0087                     _TRISCbits	set	135
   215     009F                     _ADCON1	set	159
   216     040A                     _PS2	set	1034
   217     0409                     _PS1	set	1033
   218     0408                     _PS0	set	1032
   219     040B                     _PSA	set	1035
   220     040D                     _T0CS	set	1037
   221                           
   222                           	psect	cinit
   223     0015                     start_initialization:	
   224                           ; #config settings
   225                           
   226     0015                     __initialization:
   227                           
   228                           ; Initialize objects allocated to BANK0
   229     0015  1383               	bcf	3,7	;select IRP bank0
   230     0016  305F               	movlw	low (__pdataBANK0+10)
   231     0017  00FD               	movwf	btemp+-1
   232     0018  300F               	movlw	high __pidataBANK0
   233     0019  00FE               	movwf	btemp
   234     001A  30AE               	movlw	low __pidataBANK0
   235     001B  00FF               	movwf	btemp+1
   236     001C  3055               	movlw	low __pdataBANK0
   237     001D  0084               	movwf	4
   238     001E  120A  158A  27CA  120A  118A  	fcall	init_ram0
   239                           
   240                           ; Clear objects allocated to BANK0
   241     0023  01CB               	clrf	__pbssBANK0& (0+127)
   242     0024  01CC               	clrf	(__pbssBANK0+1)& (0+127)
   243     0025  01CD               	clrf	(__pbssBANK0+2)& (0+127)
   244     0026  01CE               	clrf	(__pbssBANK0+3)& (0+127)
   245     0027  01CF               	clrf	(__pbssBANK0+4)& (0+127)
   246     0028  01D0               	clrf	(__pbssBANK0+5)& (0+127)
   247     0029  01D1               	clrf	(__pbssBANK0+6)& (0+127)
   248     002A  01D2               	clrf	(__pbssBANK0+7)& (0+127)
   249     002B  01D3               	clrf	(__pbssBANK0+8)& (0+127)
   250     002C  01D4               	clrf	(__pbssBANK0+9)& (0+127)
   251     002D                     end_of_initialization:	
   252                           ;End of C runtime variable initialization code
   253                           
   254     002D                     __end_of__initialization:
   255     002D  0183               	clrf	3
   256     002E  120A  118A  2FE4   	ljmp	_main	;jump to C main() function
   257                           
   258                           	psect	bssBANK0
   259     004B                     __pbssBANK0:
   260     004B                     _nhiet_do:
   261     004B                     	ds	4
   262     004F                     _adc_value:
   263     004F                     	ds	2
   264     0051                     _j:
   265     0051                     	ds	2
   266     0053                     _digit:
   267     0053                     	ds	1
   268     0054                     _i:
   269     0054                     	ds	1
   270                           
   271                           	psect	dataBANK0
   272     0055                     __pdataBANK0:
   273     0055                     _ma:
   274     0055                     	ds	10
   275                           
   276                           	psect	inittext
   277     0FC6                     init_fetch0:	
   278                           ;	Called with low address in FSR and high address in W
   279                           
   280     0FC6  087E               	movf	btemp,w
   281     0FC7  008A               	movwf	10
   282     0FC8  087F               	movf	btemp+1,w
   283     0FC9  0082               	movwf	2
   284     0FCA                     init_ram0:	
   285                           ;Called with:
   286                           ;	high address of idata address in btemp 
   287                           ;	low address of idata address in btemp+1 
   288                           ;	low address of data in FSR
   289                           ;	high address + 1 of data in btemp-1
   290                           
   291     0FCA  120A  158A  27C6  120A  158A  	fcall	init_fetch0
   292     0FCF  0080               	movwf	0
   293     0FD0  0A84               	incf	4,f
   294     0FD1  0804               	movf	4,w
   295     0FD2  067D               	xorwf	btemp+-1,w
   296     0FD3  1903               	btfsc	3,2
   297     0FD4  3400               	retlw	0
   298     0FD5  0AFF               	incf	btemp+1,f
   299     0FD6  1903               	btfsc	3,2
   300     0FD7  0AFE               	incf	btemp,f
   301     0FD8  2FCA               	goto	init_ram0
   302                           
   303                           	psect	cstackBANK1
   304     0000                     __pcstackBANK1:
   305     0000                     ??_InitADC:
   306     0000                     ??_timer0_inialize:	
   307                           ; 1 bytes @ 0x0
   308                           
   309     0000                     ??_main:	
   310                           ; 1 bytes @ 0x0
   311                           
   312                           
   313                           	psect	cstackCOMMON
   314     0070                     __pcstackCOMMON:	
   315                           ; 1 bytes @ 0x0
   316                           
   317     0070                     ?___flge:
   318     0070                     ?_InitADC:	
   319                           ; 1 bit 
   320                           
   321     0070                     ?_ReadADC:	
   322                           ; 1 bytes @ 0x0
   323                           
   324     0070                     ?_HienThi_7seg:	
   325                           ; 1 bytes @ 0x0
   326                           
   327     0070                     ?_timer0_inialize:	
   328                           ; 1 bytes @ 0x0
   329                           
   330     0070                     ?_Count_Up:	
   331                           ; 1 bytes @ 0x0
   332                           
   333     0070                     ?__Umul8_16:	
   334                           ; 1 bytes @ 0x0
   335                           
   336     0070                     ?_main:	
   337                           ; 2 bytes @ 0x0
   338                           
   339     0070                     ?___awmod:	
   340                           ; 2 bytes @ 0x0
   341                           
   342     0070                     ?___fltol:	
   343                           ; 2 bytes @ 0x0
   344                           
   345     0070                     ?___xxtofl:	
   346                           ; 4 bytes @ 0x0
   347                           
   348     0070                     __Umul8_16@multiplicand:	
   349                           ; 4 bytes @ 0x0
   350                           
   351     0070                     ___awmod@divisor:	
   352                           ; 1 bytes @ 0x0
   353                           
   354     0070                     ___flge@ff1:	
   355                           ; 2 bytes @ 0x0
   356                           
   357     0070                     ___fltol@f1:	
   358                           ; 4 bytes @ 0x0
   359                           
   360     0070                     ___xxtofl@val:	
   361                           ; 4 bytes @ 0x0
   362                           
   363                           
   364                           ; 4 bytes @ 0x0
   365     0070                     	ds	2
   366     0072                     ??__Umul8_16:
   367     0072                     ___awmod@dividend:	
   368                           ; 1 bytes @ 0x2
   369                           
   370                           
   371                           ; 2 bytes @ 0x2
   372     0072                     	ds	2
   373     0074                     ??___awmod:
   374     0074                     ??___fltol:	
   375                           ; 1 bytes @ 0x4
   376                           
   377     0074                     ??___xxtofl:	
   378                           ; 1 bytes @ 0x4
   379                           
   380     0074                     __Umul8_16@product:	
   381                           ; 1 bytes @ 0x4
   382                           
   383     0074                     ___flge@ff2:	
   384                           ; 2 bytes @ 0x4
   385                           
   386                           
   387                           ; 4 bytes @ 0x4
   388     0074                     	ds	1
   389     0075                     ___awmod@counter:
   390                           
   391                           ; 1 bytes @ 0x5
   392     0075                     	ds	1
   393     0076                     ___awmod@sign:
   394     0076                     __Umul8_16@word_mpld:	
   395                           ; 1 bytes @ 0x6
   396                           
   397                           
   398                           ; 2 bytes @ 0x6
   399     0076                     	ds	1
   400     0077                     ?___awdiv:
   401     0077                     ___awdiv@divisor:	
   402                           ; 2 bytes @ 0x7
   403                           
   404                           
   405                           ; 2 bytes @ 0x7
   406     0077                     	ds	1
   407     0078                     ??___flge:
   408     0078                     ___fltol@sign1:	
   409                           ; 1 bytes @ 0x8
   410                           
   411     0078                     __Umul8_16@multiplier:	
   412                           ; 1 bytes @ 0x8
   413                           
   414     0078                     ___xxtofl@sign:	
   415                           ; 1 bytes @ 0x8
   416                           
   417                           
   418                           ; 1 bytes @ 0x8
   419     0078                     	ds	1
   420     0079                     ___fltol@exp1:
   421     0079                     ___xxtofl@exp:	
   422                           ; 1 bytes @ 0x9
   423                           
   424     0079                     ___awdiv@dividend:	
   425                           ; 1 bytes @ 0x9
   426                           
   427                           
   428                           ; 2 bytes @ 0x9
   429     0079                     	ds	1
   430     007A                     ___xxtofl@arg:
   431                           
   432                           ; 4 bytes @ 0xA
   433     007A                     	ds	1
   434     007B                     ??___awdiv:
   435                           
   436                           ; 1 bytes @ 0xB
   437     007B                     	ds	3
   438                           
   439                           	psect	cstackBANK0
   440     0020                     __pcstackBANK0:
   441     0020                     ?___flmul:
   442     0020                     ___awdiv@counter:	
   443                           ; 4 bytes @ 0x0
   444                           
   445     0020                     ___flmul@b:	
   446                           ; 1 bytes @ 0x0
   447                           
   448                           
   449                           ; 4 bytes @ 0x0
   450     0020                     	ds	1
   451     0021                     ___awdiv@sign:
   452                           
   453                           ; 1 bytes @ 0x1
   454     0021                     	ds	1
   455     0022                     ___awdiv@quotient:
   456                           
   457                           ; 2 bytes @ 0x2
   458     0022                     	ds	2
   459     0024                     ___flmul@a:
   460                           
   461                           ; 4 bytes @ 0x4
   462     0024                     	ds	4
   463     0028                     ??___flmul:
   464                           
   465                           ; 1 bytes @ 0x8
   466     0028                     	ds	5
   467     002D                     ___flmul@sign:
   468                           
   469                           ; 1 bytes @ 0xD
   470     002D                     	ds	1
   471     002E                     ___flmul@grs:
   472                           
   473                           ; 4 bytes @ 0xE
   474     002E                     	ds	4
   475     0032                     ___flmul@aexp:
   476                           
   477                           ; 1 bytes @ 0x12
   478     0032                     	ds	1
   479     0033                     ___flmul@bexp:
   480                           
   481                           ; 1 bytes @ 0x13
   482     0033                     	ds	1
   483     0034                     ___flmul@prod:
   484                           
   485                           ; 4 bytes @ 0x14
   486     0034                     	ds	4
   487     0038                     ___flmul@temp:
   488                           
   489                           ; 2 bytes @ 0x18
   490     0038                     	ds	2
   491     003A                     ??_ReadADC:
   492                           
   493                           ; 1 bytes @ 0x1A
   494     003A                     	ds	3
   495     003D                     ReadADC@channel:
   496                           
   497                           ; 1 bytes @ 0x1D
   498     003D                     	ds	1
   499     003E                     ??_HienThi_7seg:
   500                           
   501                           ; 1 bytes @ 0x1E
   502     003E                     	ds	2
   503     0040                     _HienThi_7seg$745:
   504                           
   505                           ; 2 bytes @ 0x20
   506     0040                     	ds	2
   507     0042                     HienThi_7seg@tram:
   508                           
   509                           ; 1 bytes @ 0x22
   510     0042                     	ds	1
   511     0043                     HienThi_7seg@chuc:
   512                           
   513                           ; 1 bytes @ 0x23
   514     0043                     	ds	1
   515     0044                     HienThi_7seg@donvi:
   516                           
   517                           ; 1 bytes @ 0x24
   518     0044                     	ds	1
   519     0045                     HienThi_7seg@num:
   520                           
   521                           ; 1 bytes @ 0x25
   522     0045                     	ds	1
   523     0046                     ??_Count_Up:
   524                           
   525                           ; 1 bytes @ 0x26
   526     0046                     	ds	5
   527                           
   528                           	psect	maintext
   529     07E4                     __pmaintext:	
   530 ;;
   531 ;;Main: autosize = 0, tempsize = 0, incstack = 0, save=0
   532 ;;
   533 ;; *************** function _main *****************
   534 ;; Defined at:
   535 ;;		line 134 in file "btvn adc quynh.c"
   536 ;; Parameters:    Size  Location     Type
   537 ;;		None
   538 ;; Auto vars:     Size  Location     Type
   539 ;;		None
   540 ;; Return value:  Size  Location     Type
   541 ;;                  2   97[None  ] int 
   542 ;; Registers used:
   543 ;;		wreg, status,2, status,0, pclath, cstack
   544 ;; Tracked objects:
   545 ;;		On entry : B00/0
   546 ;;		On exit  : 0/0
   547 ;;		Unchanged: 0/0
   548 ;; Data sizes:     COMMON   BANK0   BANK1   BANK3   BANK2
   549 ;;      Params:         0       0       0       0       0
   550 ;;      Locals:         0       0       0       0       0
   551 ;;      Temps:          0       0       0       0       0
   552 ;;      Totals:         0       0       0       0       0
   553 ;;Total ram usage:        0 bytes
   554 ;; Hardware stack levels required when called: 6
   555 ;; This function calls:
   556 ;;		_InitADC
   557 ;;		_timer0_inialize
   558 ;; This function is called by:
   559 ;;		Startup code after reset
   560 ;; This function uses a non-reentrant model
   561 ;;
   562                           
   563     07E4                     _main:	
   564                           ;psect for function _main
   565                           
   566     07E4                     l1609:	
   567                           ;incstack = 0
   568                           ; Regs used in _main: [wreg+status,2+status,0+pclath+cstack]
   569                           
   570                           
   571                           ;btvn adc quynh.c: 135:     TRISCbits.TRISC0=0;
   572     07E4  1683               	bsf	3,5	;RP0=1, select bank1
   573     07E5  1303               	bcf	3,6	;RP1=0, select bank1
   574     07E6  1007               	bcf	7,0	;volatile
   575     07E7                     l1611:
   576                           
   577                           ;btvn adc quynh.c: 136:     TRISB=0;
   578     07E7  0186               	clrf	6	;volatile
   579     07E8                     l1613:
   580                           
   581                           ;btvn adc quynh.c: 137:     TRISCbits.TRISC1=1;
   582     07E8  1487               	bsf	7,1	;volatile
   583     07E9                     l1615:
   584                           
   585                           ;btvn adc quynh.c: 138:     TRISCbits.TRISC2=0;
   586     07E9  1107               	bcf	7,2	;volatile
   587     07EA                     l1617:
   588                           
   589                           ;btvn adc quynh.c: 139:     TRISCbits.TRISC3=0;
   590     07EA  1187               	bcf	7,3	;volatile
   591     07EB                     l1619:
   592                           
   593                           ;btvn adc quynh.c: 140:     timer0_inialize();
   594     07EB  120A  158A  27B8  120A  118A  	fcall	_timer0_inialize
   595     07F0                     l1621:
   596                           
   597                           ;btvn adc quynh.c: 141:     InitADC();
   598     07F0  120A  158A  27A5  120A  118A  	fcall	_InitADC
   599     07F5                     l98:	
   600                           ;btvn adc quynh.c: 142:     while(1){
   601                           
   602     07F5                     l99:	
   603                           ;btvn adc quynh.c: 144:     }
   604                           
   605     07F5  2FF5               	goto	l98
   606     07F6  120A  118A  2812   	ljmp	start
   607     07F9                     __end_of_main:
   608                           
   609                           	psect	text1
   610     0FB8                     __ptext1:	
   611 ;; *************** function _timer0_inialize *****************
   612 ;; Defined at:
   613 ;;		line 89 in file "btvn adc quynh.c"
   614 ;; Parameters:    Size  Location     Type
   615 ;;		None
   616 ;; Auto vars:     Size  Location     Type
   617 ;;		None
   618 ;; Return value:  Size  Location     Type
   619 ;;                  1    wreg      void 
   620 ;; Registers used:
   621 ;;		wreg
   622 ;; Tracked objects:
   623 ;;		On entry : 0/0
   624 ;;		On exit  : 0/0
   625 ;;		Unchanged: 0/0
   626 ;; Data sizes:     COMMON   BANK0   BANK1   BANK3   BANK2
   627 ;;      Params:         0       0       0       0       0
   628 ;;      Locals:         0       0       0       0       0
   629 ;;      Temps:          0       0       0       0       0
   630 ;;      Totals:         0       0       0       0       0
   631 ;;Total ram usage:        0 bytes
   632 ;; Hardware stack levels used: 1
   633 ;; Hardware stack levels required when called: 5
   634 ;; This function calls:
   635 ;;		Nothing
   636 ;; This function is called by:
   637 ;;		_main
   638 ;; This function uses a non-reentrant model
   639 ;;
   640                           
   641     0FB8                     _timer0_inialize:	
   642                           ;psect for function _timer0_inialize
   643                           
   644     0FB8                     l1549:	
   645                           ;incstack = 0
   646                           ; Regs used in _timer0_inialize: [wreg]
   647                           
   648                           
   649                           ;btvn adc quynh.c: 90:     T0CS =0;
   650     0FB8  1683               	bsf	3,5	;RP0=1, select bank1
   651     0FB9  1303               	bcf	3,6	;RP1=0, select bank1
   652     0FBA  1281               	bcf	1,5	;volatile
   653                           
   654                           ;btvn adc quynh.c: 91:     PSA =0;
   655     0FBB  1181               	bcf	1,3	;volatile
   656                           
   657                           ;btvn adc quynh.c: 92:     PS0=1;
   658     0FBC  1401               	bsf	1,0	;volatile
   659                           
   660                           ;btvn adc quynh.c: 93:     PS1=1;
   661     0FBD  1481               	bsf	1,1	;volatile
   662                           
   663                           ;btvn adc quynh.c: 94:     PS2=0;
   664     0FBE  1101               	bcf	1,2	;volatile
   665     0FBF                     l1551:
   666                           
   667                           ;btvn adc quynh.c: 95:     TMR0=5;
   668     0FBF  3005               	movlw	5
   669     0FC0  1283               	bcf	3,5	;RP0=0, select bank0
   670     0FC1  1303               	bcf	3,6	;RP1=0, select bank0
   671     0FC2  0081               	movwf	1	;volatile
   672     0FC3                     l1553:
   673                           
   674                           ;btvn adc quynh.c: 96:     TMR0IE=1;
   675     0FC3  168B               	bsf	11,5	;volatile
   676     0FC4                     l1555:
   677                           
   678                           ;btvn adc quynh.c: 97:     GIE=1;
   679     0FC4  178B               	bsf	11,7	;volatile
   680     0FC5                     l82:
   681     0FC5  0008               	return
   682     0FC6                     __end_of_timer0_inialize:
   683                           
   684                           	psect	text2
   685     0FA5                     __ptext2:	
   686 ;; *************** function _InitADC *****************
   687 ;; Defined at:
   688 ;;		line 48 in file "btvn adc quynh.c"
   689 ;; Parameters:    Size  Location     Type
   690 ;;		None
   691 ;; Auto vars:     Size  Location     Type
   692 ;;		None
   693 ;; Return value:  Size  Location     Type
   694 ;;                  1    wreg      void 
   695 ;; Registers used:
   696 ;;		wreg
   697 ;; Tracked objects:
   698 ;;		On entry : 0/0
   699 ;;		On exit  : 0/0
   700 ;;		Unchanged: 0/0
   701 ;; Data sizes:     COMMON   BANK0   BANK1   BANK3   BANK2
   702 ;;      Params:         0       0       0       0       0
   703 ;;      Locals:         0       0       0       0       0
   704 ;;      Temps:          0       0       0       0       0
   705 ;;      Totals:         0       0       0       0       0
   706 ;;Total ram usage:        0 bytes
   707 ;; Hardware stack levels used: 1
   708 ;; Hardware stack levels required when called: 5
   709 ;; This function calls:
   710 ;;		Nothing
   711 ;; This function is called by:
   712 ;;		_main
   713 ;; This function uses a non-reentrant model
   714 ;;
   715                           
   716     0FA5                     _InitADC:	
   717                           ;psect for function _InitADC
   718                           
   719     0FA5                     l1521:	
   720                           ;incstack = 0
   721                           ; Regs used in _InitADC: [wreg]
   722                           
   723                           
   724                           ;btvn adc quynh.c: 49:     ADCON1=0xC4;
   725     0FA5  30C4               	movlw	196
   726     0FA6  1683               	bsf	3,5	;RP0=1, select bank1
   727     0FA7  1303               	bcf	3,6	;RP1=0, select bank1
   728     0FA8  009F               	movwf	31	;volatile
   729                           
   730                           ;btvn adc quynh.c: 50:     ADCON0=0x80;
   731     0FA9  3080               	movlw	128
   732     0FAA  1283               	bcf	3,5	;RP0=0, select bank0
   733     0FAB  1303               	bcf	3,6	;RP1=0, select bank0
   734     0FAC  009F               	movwf	31	;volatile
   735     0FAD                     l59:
   736     0FAD  0008               	return
   737     0FAE                     __end_of_InitADC:
   738                           
   739                           	psect	text3
   740     0620                     __ptext3:	
   741 ;; *************** function _Count_Up *****************
   742 ;; Defined at:
   743 ;;		line 99 in file "btvn adc quynh.c"
   744 ;; Parameters:    Size  Location     Type
   745 ;;		None
   746 ;; Auto vars:     Size  Location     Type
   747 ;;		None
   748 ;; Return value:  Size  Location     Type
   749 ;;                  1    wreg      void 
   750 ;; Registers used:
   751 ;;		wreg, fsr0l, fsr0h, status,2, status,0, btemp+1, pclath, cstack
   752 ;; Tracked objects:
   753 ;;		On entry : 0/0
   754 ;;		On exit  : 0/0
   755 ;;		Unchanged: 0/0
   756 ;; Data sizes:     COMMON   BANK0   BANK1   BANK3   BANK2
   757 ;;      Params:         0       0       0       0       0
   758 ;;      Locals:         0       0       0       0       0
   759 ;;      Temps:          0       5       0       0       0
   760 ;;      Totals:         0       5       0       0       0
   761 ;;Total ram usage:        5 bytes
   762 ;; Hardware stack levels used: 1
   763 ;; Hardware stack levels required when called: 4
   764 ;; This function calls:
   765 ;;		_HienThi_7seg
   766 ;;		___flge
   767 ;; This function is called by:
   768 ;;		Interrupt level 1
   769 ;; This function uses a non-reentrant model
   770 ;;
   771                           
   772     0620                     _Count_Up:	
   773                           ;psect for function _Count_Up
   774                           
   775     0620                     i1l1577:
   776                           
   777                           ;btvn adc quynh.c: 100:     if(TMR0IE && TMR0IF){
   778     0620  1E8B               	btfss	11,5	;volatile
   779     0621  2E23               	goto	u194_21
   780     0622  2E24               	goto	u194_20
   781     0623                     u194_21:
   782     0623  2E9F               	goto	i1l93
   783     0624                     u194_20:
   784     0624                     i1l1579:
   785     0624  1D0B               	btfss	11,2	;volatile
   786     0625  2E27               	goto	u195_21
   787     0626  2E28               	goto	u195_20
   788     0627                     u195_21:
   789     0627  2E9F               	goto	i1l93
   790     0628                     u195_20:
   791     0628                     i1l1581:
   792                           
   793                           ;btvn adc quynh.c: 101:         TMR0=5;
   794     0628  3005               	movlw	5
   795     0629  0081               	movwf	1	;volatile
   796     062A                     i1l1583:
   797                           
   798                           ;btvn adc quynh.c: 102:         TMR0IF=0;
   799     062A  110B               	bcf	11,2	;volatile
   800     062B                     i1l1585:
   801                           
   802                           ;btvn adc quynh.c: 103:         i++;
   803     062B  3001               	movlw	1
   804     062C  00C6               	movwf	??_Count_Up
   805     062D  0846               	movf	??_Count_Up,w
   806     062E  07D4               	addwf	_i,f
   807     062F                     i1l1587:
   808                           
   809                           ;btvn adc quynh.c: 104:         j++;
   810     062F  3001               	movlw	1
   811     0630  07D1               	addwf	_j,f
   812     0631  1803               	skipnc
   813     0632  0AD2               	incf	_j+1,f
   814     0633  3000               	movlw	0
   815     0634  07D2               	addwf	_j+1,f
   816                           
   817                           ;btvn adc quynh.c: 106:             if(i==5){
   818     0635  3005               	movlw	5
   819     0636  0654               	xorwf	_i,w
   820     0637  1D03               	btfss	3,2
   821     0638  2E3A               	goto	u196_21
   822     0639  2E3B               	goto	u196_20
   823     063A                     u196_21:
   824     063A  2E4E               	goto	i1l1597
   825     063B                     u196_20:
   826     063B                     i1l1589:
   827                           
   828                           ;btvn adc quynh.c: 107:                 digit++;
   829     063B  3001               	movlw	1
   830     063C  00C6               	movwf	??_Count_Up
   831     063D  0846               	movf	??_Count_Up,w
   832     063E  07D3               	addwf	_digit,f
   833                           
   834                           ;btvn adc quynh.c: 108:                 if(digit==4)
   835     063F  3004               	movlw	4
   836     0640  0653               	xorwf	_digit,w
   837     0641  1D03               	btfss	3,2
   838     0642  2E44               	goto	u197_21
   839     0643  2E45               	goto	u197_20
   840     0644                     u197_21:
   841     0644  2E46               	goto	i1l1593
   842     0645                     u197_20:
   843     0645                     i1l1591:
   844                           
   845                           ;btvn adc quynh.c: 109:                     digit=0;
   846     0645  01D3               	clrf	_digit
   847     0646                     i1l1593:
   848                           
   849                           ;btvn adc quynh.c: 110:                 HienThi_7seg();
   850     0646  120A  118A  242E  120A  118A  	fcall	_HienThi_7seg
   851     064B                     i1l1595:
   852                           
   853                           ;btvn adc quynh.c: 111:                 i=0;
   854     064B  1283               	bcf	3,5	;RP0=0, select bank0
   855     064C  1303               	bcf	3,6	;RP1=0, select bank0
   856     064D  01D4               	clrf	_i
   857     064E                     i1l1597:
   858                           
   859                           ;btvn adc quynh.c: 121:         if(nhiet_do >=100){
   860     064E  084E               	movf	_nhiet_do+3,w
   861     064F  00F3               	movwf	___flge@ff1+3
   862     0650  084D               	movf	_nhiet_do+2,w
   863     0651  00F2               	movwf	___flge@ff1+2
   864     0652  084C               	movf	_nhiet_do+1,w
   865     0653  00F1               	movwf	___flge@ff1+1
   866     0654  084B               	movf	_nhiet_do,w
   867     0655  00F0               	movwf	___flge@ff1
   868     0656  3042               	movlw	66
   869     0657  00F7               	movwf	___flge@ff2+3
   870     0658  30C8               	movlw	200
   871     0659  00F6               	movwf	___flge@ff2+2
   872     065A  3000               	movlw	0
   873     065B  00F5               	movwf	___flge@ff2+1
   874     065C  3000               	movlw	0
   875     065D  00F4               	movwf	___flge@ff2
   876     065E  120A  118A  257E  120A  118A  	fcall	___flge
   877     0663  1C03               	btfss	3,0
   878     0664  2E66               	goto	u198_21
   879     0665  2E67               	goto	u198_20
   880     0666                     u198_21:
   881     0666  2E7F               	goto	i1l1603
   882     0667                     u198_20:
   883     0667                     i1l1599:
   884                           
   885                           ;btvn adc quynh.c: 122:             if(j==500){
   886     0667  30F4               	movlw	244
   887     0668  1283               	bcf	3,5	;RP0=0, select bank0
   888     0669  1303               	bcf	3,6	;RP1=0, select bank0
   889     066A  0651               	xorwf	_j,w
   890     066B  1D03               	skipz
   891     066C  2E71               	goto	u199_21
   892     066D  0352               	decf	_j+1,w
   893     066E  1D03               	btfss	3,2
   894     066F  2E71               	goto	u199_21
   895     0670  2E72               	goto	u199_20
   896     0671                     u199_21:
   897     0671  2E7F               	goto	i1l1603
   898     0672                     u199_20:
   899     0672                     i1l1601:
   900                           
   901                           ;btvn adc quynh.c: 123:                 PORTCbits.RC0=~PORTCbits.RC0;
   902     0672  1003               	clrc
   903     0673  1C07               	btfss	7,0	;volatile
   904     0674  1403               	setc
   905     0675  1803               	btfsc	3,0
   906     0676  2E78               	goto	u200_21
   907     0677  2E7C               	goto	u200_20
   908     0678                     u200_21:
   909     0678  1283               	bcf	3,5	;RP0=0, select bank0
   910     0679  1303               	bcf	3,6	;RP1=0, select bank0
   911     067A  1407               	bsf	7,0	;volatile
   912     067B  2E7F               	goto	u201_24
   913     067C                     u200_20:
   914     067C  1283               	bcf	3,5	;RP0=0, select bank0
   915     067D  1303               	bcf	3,6	;RP1=0, select bank0
   916     067E  1007               	bcf	7,0	;volatile
   917     067F                     u201_24:
   918     067F                     i1l1603:
   919                           
   920                           ;btvn adc quynh.c: 126:         j=0;
   921     067F  1283               	bcf	3,5	;RP0=0, select bank0
   922     0680  1303               	bcf	3,6	;RP1=0, select bank0
   923     0681  01D1               	clrf	_j
   924     0682  01D2               	clrf	_j+1
   925     0683                     i1l1605:
   926                           
   927                           ;btvn adc quynh.c: 127:         if(nhiet_do<100){
   928     0683  084E               	movf	_nhiet_do+3,w
   929     0684  00F3               	movwf	___flge@ff1+3
   930     0685  084D               	movf	_nhiet_do+2,w
   931     0686  00F2               	movwf	___flge@ff1+2
   932     0687  084C               	movf	_nhiet_do+1,w
   933     0688  00F1               	movwf	___flge@ff1+1
   934     0689  084B               	movf	_nhiet_do,w
   935     068A  00F0               	movwf	___flge@ff1
   936     068B  3042               	movlw	66
   937     068C  00F7               	movwf	___flge@ff2+3
   938     068D  30C8               	movlw	200
   939     068E  00F6               	movwf	___flge@ff2+2
   940     068F  3000               	movlw	0
   941     0690  00F5               	movwf	___flge@ff2+1
   942     0691  3000               	movlw	0
   943     0692  00F4               	movwf	___flge@ff2
   944     0693  120A  118A  257E  120A  118A  	fcall	___flge
   945     0698  1803               	btfsc	3,0
   946     0699  2E9B               	goto	u202_21
   947     069A  2E9C               	goto	u202_20
   948     069B                     u202_21:
   949     069B  2E9F               	goto	i1l93
   950     069C                     u202_20:
   951     069C                     i1l1607:
   952                           
   953                           ;btvn adc quynh.c: 128:             PORTCbits.RC0=1;
   954     069C  1283               	bcf	3,5	;RP0=0, select bank0
   955     069D  1303               	bcf	3,6	;RP1=0, select bank0
   956     069E  1407               	bsf	7,0	;volatile
   957     069F                     i1l93:
   958     069F  1283               	bcf	3,5	;RP0=0, select bank0
   959     06A0  1303               	bcf	3,6	;RP1=0, select bank0
   960     06A1  084A               	movf	??_Count_Up+4,w
   961     06A2  00FF               	movwf	btemp+1
   962     06A3  0849               	movf	??_Count_Up+3,w
   963     06A4  008A               	movwf	10
   964     06A5  0848               	movf	??_Count_Up+2,w
   965     06A6  0084               	movwf	4
   966     06A7  0E47               	swapf	??_Count_Up+1,w
   967     06A8  0083               	movwf	3
   968     06A9  0EFE               	swapf	btemp,f
   969     06AA  0E7E               	swapf	btemp,w
   970     06AB  0009               	retfie
   971     06AC                     __end_of_Count_Up:
   972                           
   973                           	psect	intentry
   974     0004                     __pintentry:	
   975                           ;incstack = 0
   976                           ; Regs used in _Count_Up: [wreg-fsr0h+status,2+status,0+btemp+1+pclath+cstack]
   977                           
   978     0004                     interrupt_function:
   979     007E                     saved_w	set	btemp
   980     0004  00FE               	movwf	btemp
   981     0005  0E03               	swapf	3,w
   982     0006  1283               	bcf	3,5	;RP0=0, select bank0
   983     0007  1303               	bcf	3,6	;RP1=0, select bank0
   984     0008  00C7               	movwf	??_Count_Up+1
   985     0009  0804               	movf	4,w
   986     000A  00C8               	movwf	??_Count_Up+2
   987     000B  080A               	movf	10,w
   988     000C  00C9               	movwf	??_Count_Up+3
   989     000D  087F               	movf	btemp+1,w
   990     000E  00CA               	movwf	??_Count_Up+4
   991     000F  120A  118A  2E20   	ljmp	_Count_Up
   992                           
   993                           	psect	text4
   994     057E                     __ptext4:	
   995 ;; *************** function ___flge *****************
   996 ;; Defined at:
   997 ;;		line 4 in file "C:\Program Files\Microchip\xc8\v2.40\pic\sources\c90\common\flge.c"
   998 ;; Parameters:    Size  Location     Type
   999 ;;  ff1             4    0[COMMON] void 
  1000 ;;  ff2             4    4[COMMON] void 
  1001 ;; Auto vars:     Size  Location     Type
  1002 ;;		None
  1003 ;; Return value:  Size  Location     Type
  1004 ;;		None               void
  1005 ;; Registers used:
  1006 ;;		wreg, status,2, status,0
  1007 ;; Tracked objects:
  1008 ;;		On entry : 0/0
  1009 ;;		On exit  : 0/0
  1010 ;;		Unchanged: 0/0
  1011 ;; Data sizes:     COMMON   BANK0   BANK1   BANK3   BANK2
  1012 ;;      Params:         8       0       0       0       0
  1013 ;;      Locals:         0       0       0       0       0
  1014 ;;      Temps:          4       0       0       0       0
  1015 ;;      Totals:        12       0       0       0       0
  1016 ;;Total ram usage:       12 bytes
  1017 ;; Hardware stack levels used: 1
  1018 ;; This function calls:
  1019 ;;		Nothing
  1020 ;; This function is called by:
  1021 ;;		_Count_Up
  1022 ;; This function uses a non-reentrant model
  1023 ;;
  1024                           
  1025     057E                     ___flge:	
  1026                           ;psect for function ___flge
  1027                           
  1028     057E                     i1l1557:	
  1029                           ;incstack = 0
  1030                           ; Regs used in ___flge: [wreg+status,2+status,0]
  1031                           
  1032     057E  3000               	movlw	0
  1033     057F  0570               	andwf	___flge@ff1,w
  1034     0580  00F8               	movwf	??___flge
  1035     0581  3000               	movlw	0
  1036     0582  0571               	andwf	___flge@ff1+1,w
  1037     0583  00F9               	movwf	??___flge+1
  1038     0584  3080               	movlw	128
  1039     0585  0572               	andwf	___flge@ff1+2,w
  1040     0586  00FA               	movwf	??___flge+2
  1041     0587  307F               	movlw	127
  1042     0588  0573               	andwf	___flge@ff1+3,w
  1043     0589  00FB               	movwf	??___flge+3
  1044     058A  087B               	movf	??___flge+3,w
  1045     058B  047A               	iorwf	??___flge+2,w
  1046     058C  0479               	iorwf	??___flge+1,w
  1047     058D  0478               	iorwf	??___flge,w
  1048     058E  1D03               	skipz
  1049     058F  2D91               	goto	u187_21
  1050     0590  2D92               	goto	u187_20
  1051     0591                     u187_21:
  1052     0591  2D9A               	goto	i1l361
  1053     0592                     u187_20:
  1054     0592                     i1l1559:
  1055     0592  3000               	movlw	0
  1056     0593  00F3               	movwf	___flge@ff1+3
  1057     0594  3000               	movlw	0
  1058     0595  00F2               	movwf	___flge@ff1+2
  1059     0596  3000               	movlw	0
  1060     0597  00F1               	movwf	___flge@ff1+1
  1061     0598  3000               	movlw	0
  1062     0599  00F0               	movwf	___flge@ff1
  1063     059A                     i1l361:
  1064     059A  3000               	movlw	0
  1065     059B  0574               	andwf	___flge@ff2,w
  1066     059C  00F8               	movwf	??___flge
  1067     059D  3000               	movlw	0
  1068     059E  0575               	andwf	___flge@ff2+1,w
  1069     059F  00F9               	movwf	??___flge+1
  1070     05A0  3080               	movlw	128
  1071     05A1  0576               	andwf	___flge@ff2+2,w
  1072     05A2  00FA               	movwf	??___flge+2
  1073     05A3  307F               	movlw	127
  1074     05A4  0577               	andwf	___flge@ff2+3,w
  1075     05A5  00FB               	movwf	??___flge+3
  1076     05A6  087B               	movf	??___flge+3,w
  1077     05A7  047A               	iorwf	??___flge+2,w
  1078     05A8  0479               	iorwf	??___flge+1,w
  1079     05A9  0478               	iorwf	??___flge,w
  1080     05AA  1D03               	skipz
  1081     05AB  2DAD               	goto	u188_21
  1082     05AC  2DAE               	goto	u188_20
  1083     05AD                     u188_21:
  1084     05AD  2DB6               	goto	i1l1563
  1085     05AE                     u188_20:
  1086     05AE                     i1l1561:
  1087     05AE  3000               	movlw	0
  1088     05AF  00F7               	movwf	___flge@ff2+3
  1089     05B0  3000               	movlw	0
  1090     05B1  00F6               	movwf	___flge@ff2+2
  1091     05B2  3000               	movlw	0
  1092     05B3  00F5               	movwf	___flge@ff2+1
  1093     05B4  3000               	movlw	0
  1094     05B5  00F4               	movwf	___flge@ff2
  1095     05B6                     i1l1563:
  1096     05B6  1FF3               	btfss	___flge@ff1+3,7
  1097     05B7  2DB9               	goto	u189_21
  1098     05B8  2DBA               	goto	u189_20
  1099     05B9                     u189_21:
  1100     05B9  2DDE               	goto	i1l1567
  1101     05BA                     u189_20:
  1102     05BA                     i1l1565:
  1103     05BA  3000               	movlw	0
  1104     05BB  00F8               	movwf	??___flge
  1105     05BC  3000               	movlw	0
  1106     05BD  00F9               	movwf	??___flge+1
  1107     05BE  3000               	movlw	0
  1108     05BF  00FA               	movwf	??___flge+2
  1109     05C0  3080               	movlw	128
  1110     05C1  00FB               	movwf	??___flge+3
  1111     05C2  0870               	movf	___flge@ff1,w
  1112     05C3  02F8               	subwf	??___flge,f
  1113     05C4  0871               	movf	___flge@ff1+1,w
  1114     05C5  1C03               	skipc
  1115     05C6  0F71               	incfsz	___flge@ff1+1,w
  1116     05C7  2DC9               	goto	u190_21
  1117     05C8  2DCA               	goto	u190_22
  1118     05C9                     u190_21:
  1119     05C9  02F9               	subwf	??___flge+1,f
  1120     05CA                     u190_22:
  1121     05CA  0872               	movf	___flge@ff1+2,w
  1122     05CB  1C03               	skipc
  1123     05CC  0F72               	incfsz	___flge@ff1+2,w
  1124     05CD  2DCF               	goto	u190_23
  1125     05CE  2DD0               	goto	u190_24
  1126     05CF                     u190_23:
  1127     05CF  02FA               	subwf	??___flge+2,f
  1128     05D0                     u190_24:
  1129     05D0  0873               	movf	___flge@ff1+3,w
  1130     05D1  1C03               	skipc
  1131     05D2  0F73               	incfsz	___flge@ff1+3,w
  1132     05D3  2DD5               	goto	u190_25
  1133     05D4  2DD6               	goto	u190_26
  1134     05D5                     u190_25:
  1135     05D5  02FB               	subwf	??___flge+3,f
  1136     05D6                     u190_26:
  1137     05D6  087B               	movf	??___flge+3,w
  1138     05D7  00F3               	movwf	___flge@ff1+3
  1139     05D8  087A               	movf	??___flge+2,w
  1140     05D9  00F2               	movwf	___flge@ff1+2
  1141     05DA  0879               	movf	??___flge+1,w
  1142     05DB  00F1               	movwf	___flge@ff1+1
  1143     05DC  0878               	movf	??___flge,w
  1144     05DD  00F0               	movwf	___flge@ff1
  1145     05DE                     i1l1567:
  1146     05DE  1FF7               	btfss	___flge@ff2+3,7
  1147     05DF  2DE1               	goto	u191_21
  1148     05E0  2DE2               	goto	u191_20
  1149     05E1                     u191_21:
  1150     05E1  2E06               	goto	i1l364
  1151     05E2                     u191_20:
  1152     05E2                     i1l1569:
  1153     05E2  3000               	movlw	0
  1154     05E3  00F8               	movwf	??___flge
  1155     05E4  3000               	movlw	0
  1156     05E5  00F9               	movwf	??___flge+1
  1157     05E6  3000               	movlw	0
  1158     05E7  00FA               	movwf	??___flge+2
  1159     05E8  3080               	movlw	128
  1160     05E9  00FB               	movwf	??___flge+3
  1161     05EA  0874               	movf	___flge@ff2,w
  1162     05EB  02F8               	subwf	??___flge,f
  1163     05EC  0875               	movf	___flge@ff2+1,w
  1164     05ED  1C03               	skipc
  1165     05EE  0F75               	incfsz	___flge@ff2+1,w
  1166     05EF  2DF1               	goto	u192_21
  1167     05F0  2DF2               	goto	u192_22
  1168     05F1                     u192_21:
  1169     05F1  02F9               	subwf	??___flge+1,f
  1170     05F2                     u192_22:
  1171     05F2  0876               	movf	___flge@ff2+2,w
  1172     05F3  1C03               	skipc
  1173     05F4  0F76               	incfsz	___flge@ff2+2,w
  1174     05F5  2DF7               	goto	u192_23
  1175     05F6  2DF8               	goto	u192_24
  1176     05F7                     u192_23:
  1177     05F7  02FA               	subwf	??___flge+2,f
  1178     05F8                     u192_24:
  1179     05F8  0877               	movf	___flge@ff2+3,w
  1180     05F9  1C03               	skipc
  1181     05FA  0F77               	incfsz	___flge@ff2+3,w
  1182     05FB  2DFD               	goto	u192_25
  1183     05FC  2DFE               	goto	u192_26
  1184     05FD                     u192_25:
  1185     05FD  02FB               	subwf	??___flge+3,f
  1186     05FE                     u192_26:
  1187     05FE  087B               	movf	??___flge+3,w
  1188     05FF  00F7               	movwf	___flge@ff2+3
  1189     0600  087A               	movf	??___flge+2,w
  1190     0601  00F6               	movwf	___flge@ff2+2
  1191     0602  0879               	movf	??___flge+1,w
  1192     0603  00F5               	movwf	___flge@ff2+1
  1193     0604  0878               	movf	??___flge,w
  1194     0605  00F4               	movwf	___flge@ff2
  1195     0606                     i1l364:
  1196     0606  3080               	movlw	128
  1197     0607  06F3               	xorwf	___flge@ff1+3,f
  1198     0608  3080               	movlw	128
  1199     0609  06F7               	xorwf	___flge@ff2+3,f
  1200     060A  0877               	movf	___flge@ff2+3,w
  1201     060B  0273               	subwf	___flge@ff1+3,w
  1202     060C  1D03               	skipz
  1203     060D  2E18               	goto	u193_25
  1204     060E  0876               	movf	___flge@ff2+2,w
  1205     060F  0272               	subwf	___flge@ff1+2,w
  1206     0610  1D03               	skipz
  1207     0611  2E18               	goto	u193_25
  1208     0612  0875               	movf	___flge@ff2+1,w
  1209     0613  0271               	subwf	___flge@ff1+1,w
  1210     0614  1D03               	skipz
  1211     0615  2E18               	goto	u193_25
  1212     0616  0874               	movf	___flge@ff2,w
  1213     0617  0270               	subwf	___flge@ff1,w
  1214     0618                     u193_25:
  1215     0618  1803               	skipnc
  1216     0619  2E1B               	goto	u193_21
  1217     061A  2E1C               	goto	u193_20
  1218     061B                     u193_21:
  1219     061B  2E1E               	goto	i1l1573
  1220     061C                     u193_20:
  1221     061C                     i1l1571:
  1222     061C  1003               	clrc
  1223     061D  2E1F               	goto	i1l365
  1224     061E                     i1l1573:
  1225     061E  1403               	setc
  1226     061F                     i1l365:
  1227     061F  0008               	return
  1228     0620                     __end_of___flge:
  1229                           
  1230                           	psect	text5
  1231     042E                     __ptext5:	
  1232 ;; *************** function _HienThi_7seg *****************
  1233 ;; Defined at:
  1234 ;;		line 67 in file "btvn adc quynh.c"
  1235 ;; Parameters:    Size  Location     Type
  1236 ;;		None
  1237 ;; Auto vars:     Size  Location     Type
  1238 ;;  num             1   37[BANK0 ] unsigned char 
  1239 ;;  donvi           1   36[BANK0 ] unsigned char 
  1240 ;;  chuc            1   35[BANK0 ] unsigned char 
  1241 ;;  tram            1   34[BANK0 ] unsigned char 
  1242 ;; Return value:  Size  Location     Type
  1243 ;;                  1    wreg      void 
  1244 ;; Registers used:
  1245 ;;		wreg, fsr0l, fsr0h, status,2, status,0, btemp+1, pclath, cstack
  1246 ;; Tracked objects:
  1247 ;;		On entry : 0/0
  1248 ;;		On exit  : 0/0
  1249 ;;		Unchanged: 0/0
  1250 ;; Data sizes:     COMMON   BANK0   BANK1   BANK3   BANK2
  1251 ;;      Params:         0       0       0       0       0
  1252 ;;      Locals:         0       6       0       0       0
  1253 ;;      Temps:          0       2       0       0       0
  1254 ;;      Totals:         0       8       0       0       0
  1255 ;;Total ram usage:        8 bytes
  1256 ;; Hardware stack levels used: 1
  1257 ;; Hardware stack levels required when called: 3
  1258 ;; This function calls:
  1259 ;;		_ReadADC
  1260 ;;		___awdiv
  1261 ;;		___awmod
  1262 ;;		___fltol
  1263 ;; This function is called by:
  1264 ;;		_Count_Up
  1265 ;; This function uses a non-reentrant model
  1266 ;;
  1267                           
  1268     042E                     _HienThi_7seg:	
  1269                           ;psect for function _HienThi_7seg
  1270                           
  1271     042E                     i1l1523:	
  1272                           ;incstack = 0
  1273                           ; Regs used in _HienThi_7seg: [wreg-fsr0h+status,2+status,0+btemp+1+pclath+cstack]
  1274                           
  1275                           
  1276                           ;btvn adc quynh.c: 68:     unsigned char tram,chuc,donvi,num;;btvn adc quynh.c: 69:     
      +                          PORTB =0xff;
  1277     042E  30FF               	movlw	255
  1278     042F  1283               	bcf	3,5	;RP0=0, select bank0
  1279     0430  1303               	bcf	3,6	;RP1=0, select bank0
  1280     0431  0086               	movwf	6	;volatile
  1281     0432                     i1l1525:
  1282                           
  1283                           ;btvn adc quynh.c: 70:     ReadADC(0);
  1284     0432  3000               	movlw	0
  1285     0433  120A  118A  24DA  120A  118A  	fcall	_ReadADC
  1286     0438                     i1l1527:
  1287                           
  1288                           ;btvn adc quynh.c: 71:     num = (unsigned char)nhiet_do;
  1289     0438  1283               	bcf	3,5	;RP0=0, select bank0
  1290     0439  1303               	bcf	3,6	;RP1=0, select bank0
  1291     043A  084E               	movf	_nhiet_do+3,w
  1292     043B  00F3               	movwf	___fltol@f1+3
  1293     043C  084D               	movf	_nhiet_do+2,w
  1294     043D  00F2               	movwf	___fltol@f1+2
  1295     043E  084C               	movf	_nhiet_do+1,w
  1296     043F  00F1               	movwf	___fltol@f1+1
  1297     0440  084B               	movf	_nhiet_do,w
  1298     0441  00F0               	movwf	___fltol@f1
  1299     0442  120A  118A  26AC  120A  118A  	fcall	___fltol
  1300     0447  0870               	movf	?___fltol,w
  1301     0448  1283               	bcf	3,5	;RP0=0, select bank0
  1302     0449  1303               	bcf	3,6	;RP1=0, select bank0
  1303     044A  00C5               	movwf	HienThi_7seg@num
  1304     044B                     i1l1529:
  1305                           
  1306                           ;btvn adc quynh.c: 72:     tram = num/100;
  1307     044B  3064               	movlw	100
  1308     044C  00F7               	movwf	___awdiv@divisor
  1309     044D  3000               	movlw	0
  1310     044E  00F8               	movwf	___awdiv@divisor+1
  1311     044F  0845               	movf	HienThi_7seg@num,w
  1312     0450  00BE               	movwf	??_HienThi_7seg
  1313     0451  01BF               	clrf	??_HienThi_7seg+1
  1314     0452  083E               	movf	??_HienThi_7seg,w
  1315     0453  00F9               	movwf	___awdiv@dividend
  1316     0454  083F               	movf	??_HienThi_7seg+1,w
  1317     0455  00FA               	movwf	___awdiv@dividend+1
  1318     0456  120A  118A  2722  120A  118A  	fcall	___awdiv
  1319     045B  0877               	movf	?___awdiv,w
  1320     045C  1283               	bcf	3,5	;RP0=0, select bank0
  1321     045D  1303               	bcf	3,6	;RP1=0, select bank0
  1322     045E  00C2               	movwf	HienThi_7seg@tram
  1323     045F                     i1l1531:
  1324                           
  1325                           ;btvn adc quynh.c: 73:     chuc = (num%100)/10;
  1326     045F  300A               	movlw	10
  1327     0460  00F7               	movwf	___awdiv@divisor
  1328     0461  3000               	movlw	0
  1329     0462  00F8               	movwf	___awdiv@divisor+1
  1330     0463  0845               	movf	HienThi_7seg@num,w
  1331     0464  00BE               	movwf	??_HienThi_7seg
  1332     0465  01BF               	clrf	??_HienThi_7seg+1
  1333     0466  083E               	movf	??_HienThi_7seg,w
  1334     0467  00F2               	movwf	___awmod@dividend
  1335     0468  083F               	movf	??_HienThi_7seg+1,w
  1336     0469  00F3               	movwf	___awmod@dividend+1
  1337     046A  3064               	movlw	100
  1338     046B  00F0               	movwf	___awmod@divisor
  1339     046C  3000               	movlw	0
  1340     046D  00F1               	movwf	___awmod@divisor+1
  1341     046E  120A  118A  278B  120A  118A  	fcall	___awmod
  1342     0473  0871               	movf	?___awmod+1,w
  1343     0474  00FA               	movwf	___awdiv@dividend+1
  1344     0475  0870               	movf	?___awmod,w
  1345     0476  00F9               	movwf	___awdiv@dividend
  1346     0477  120A  118A  2722  120A  118A  	fcall	___awdiv
  1347     047C  0877               	movf	?___awdiv,w
  1348     047D  1283               	bcf	3,5	;RP0=0, select bank0
  1349     047E  1303               	bcf	3,6	;RP1=0, select bank0
  1350     047F  00C3               	movwf	HienThi_7seg@chuc
  1351     0480                     i1l1533:
  1352                           
  1353                           ;btvn adc quynh.c: 74:     donvi=(num%100)%10;
  1354     0480  0845               	movf	HienThi_7seg@num,w
  1355     0481  00BE               	movwf	??_HienThi_7seg
  1356     0482  01BF               	clrf	??_HienThi_7seg+1
  1357     0483  083E               	movf	??_HienThi_7seg,w
  1358     0484  00F2               	movwf	___awmod@dividend
  1359     0485  083F               	movf	??_HienThi_7seg+1,w
  1360     0486  00F3               	movwf	___awmod@dividend+1
  1361     0487  3064               	movlw	100
  1362     0488  00F0               	movwf	___awmod@divisor
  1363     0489  3000               	movlw	0
  1364     048A  00F1               	movwf	___awmod@divisor+1
  1365     048B  120A  118A  278B  120A  118A  	fcall	___awmod
  1366     0490  0871               	movf	?___awmod+1,w
  1367     0491  1283               	bcf	3,5	;RP0=0, select bank0
  1368     0492  1303               	bcf	3,6	;RP1=0, select bank0
  1369     0493  00C1               	movwf	_HienThi_7seg$745+1
  1370     0494  0870               	movf	?___awmod,w
  1371     0495  00C0               	movwf	_HienThi_7seg$745
  1372     0496                     i1l1535:
  1373                           
  1374                           ;btvn adc quynh.c: 74:     donvi=(num%100)%10;
  1375     0496  300A               	movlw	10
  1376     0497  00F0               	movwf	___awmod@divisor
  1377     0498  3000               	movlw	0
  1378     0499  00F1               	movwf	___awmod@divisor+1
  1379     049A  0841               	movf	_HienThi_7seg$745+1,w
  1380     049B  00F3               	movwf	___awmod@dividend+1
  1381     049C  0840               	movf	_HienThi_7seg$745,w
  1382     049D  00F2               	movwf	___awmod@dividend
  1383     049E  120A  118A  278B  120A  118A  	fcall	___awmod
  1384     04A3  0870               	movf	?___awmod,w
  1385     04A4  1283               	bcf	3,5	;RP0=0, select bank0
  1386     04A5  1303               	bcf	3,6	;RP1=0, select bank0
  1387     04A6  00C4               	movwf	HienThi_7seg@donvi
  1388                           
  1389                           ;btvn adc quynh.c: 75:     switch (digit){
  1390     04A7  2CC6               	goto	i1l1543
  1391     04A8                     i1l75:	
  1392                           ;btvn adc quynh.c: 76:         case 0:
  1393                           
  1394                           
  1395                           ;btvn adc quynh.c: 77:             PORTCbits.RC3=0;PORTCbits.RC2=1;PORTCbits.RC1=1;
  1396     04A8  1187               	bcf	7,3	;volatile
  1397     04A9  1507               	bsf	7,2	;volatile
  1398     04AA  1487               	bsf	7,1	;volatile
  1399     04AB                     i1l1537:
  1400                           
  1401                           ;btvn adc quynh.c: 78:             PORTB=ma[tram];
  1402     04AB  0842               	movf	HienThi_7seg@tram,w
  1403     04AC  3E55               	addlw	(low (_ma| 0))& (0+255)
  1404     04AD  0084               	movwf	4
  1405     04AE  1383               	bcf	3,7	;select IRP bank0
  1406     04AF  0800               	movf	0,w
  1407     04B0  0086               	movwf	6	;volatile
  1408                           
  1409                           ;btvn adc quynh.c: 79:         break;
  1410     04B1  2CD9               	goto	i1l79
  1411     04B2                     i1l77:	
  1412                           ;btvn adc quynh.c: 80:         case 1:
  1413                           
  1414                           
  1415                           ;btvn adc quynh.c: 81:             PORTCbits.RC3=1;PORTCbits.RC2=0;PORTCbits.RC1=1;
  1416     04B2  1587               	bsf	7,3	;volatile
  1417     04B3  1107               	bcf	7,2	;volatile
  1418     04B4  1487               	bsf	7,1	;volatile
  1419     04B5                     i1l1539:
  1420                           
  1421                           ;btvn adc quynh.c: 82:             PORTB=ma[chuc];
  1422     04B5  0843               	movf	HienThi_7seg@chuc,w
  1423     04B6  3E55               	addlw	(low (_ma| 0))& (0+255)
  1424     04B7  0084               	movwf	4
  1425     04B8  1383               	bcf	3,7	;select IRP bank0
  1426     04B9  0800               	movf	0,w
  1427     04BA  0086               	movwf	6	;volatile
  1428                           
  1429                           ;btvn adc quynh.c: 83:         break;
  1430     04BB  2CD9               	goto	i1l79
  1431     04BC                     i1l78:	
  1432                           ;btvn adc quynh.c: 84:         case 2:
  1433                           
  1434                           
  1435                           ;btvn adc quynh.c: 85:             PORTCbits.RC3=1;PORTCbits.RC2=1;PORTCbits.RC1=0;
  1436     04BC  1587               	bsf	7,3	;volatile
  1437     04BD  1507               	bsf	7,2	;volatile
  1438     04BE  1087               	bcf	7,1	;volatile
  1439     04BF                     i1l1541:
  1440                           
  1441                           ;btvn adc quynh.c: 86:             PORTB=ma[donvi];
  1442     04BF  0844               	movf	HienThi_7seg@donvi,w
  1443     04C0  3E55               	addlw	(low (_ma| 0))& (0+255)
  1444     04C1  0084               	movwf	4
  1445     04C2  1383               	bcf	3,7	;select IRP bank0
  1446     04C3  0800               	movf	0,w
  1447     04C4  0086               	movwf	6	;volatile
  1448                           
  1449                           ;btvn adc quynh.c: 87:     }
  1450     04C5  2CD9               	goto	i1l79
  1451     04C6                     i1l1543:
  1452     04C6  0853               	movf	_digit,w
  1453     04C7  00BE               	movwf	??_HienThi_7seg
  1454     04C8  01BF               	clrf	??_HienThi_7seg+1
  1455                           
  1456                           ; Switch on 2 bytes has been partitioned into a top level switch of size 1, and 1 sub-sw
      +                          itches
  1457                           ; Switch size 1, requested type "simple"
  1458                           ; Number of cases is 1, Range of values is 0 to 0
  1459                           ; switch strategies available:
  1460                           ; Name         Instructions Cycles
  1461                           ; simple_byte            4     3 (average)
  1462                           ; direct_byte           11     8 (fixed)
  1463                           ; jumptable            260     6 (fixed)
  1464                           ;	Chosen strategy is simple_byte
  1465     04C9  083F               	movf	??_HienThi_7seg+1,w
  1466     04CA  3A00               	xorlw	0	; case 0
  1467     04CB  1903               	skipnz
  1468     04CC  2CCE               	goto	i1l1673
  1469     04CD  2CD9               	goto	i1l79
  1470     04CE                     i1l1673:
  1471                           
  1472                           ; Switch size 1, requested type "simple"
  1473                           ; Number of cases is 3, Range of values is 0 to 2
  1474                           ; switch strategies available:
  1475                           ; Name         Instructions Cycles
  1476                           ; simple_byte           10     6 (average)
  1477                           ; direct_byte           17     8 (fixed)
  1478                           ; jumptable            260     6 (fixed)
  1479                           ;	Chosen strategy is simple_byte
  1480     04CE  083E               	movf	??_HienThi_7seg,w
  1481     04CF  3A00               	xorlw	0	; case 0
  1482     04D0  1903               	skipnz
  1483     04D1  2CA8               	goto	i1l75
  1484     04D2  3A01               	xorlw	1	; case 1
  1485     04D3  1903               	skipnz
  1486     04D4  2CB2               	goto	i1l77
  1487     04D5  3A03               	xorlw	3	; case 2
  1488     04D6  1903               	skipnz
  1489     04D7  2CBC               	goto	i1l78
  1490     04D8  2CD9               	goto	i1l79
  1491     04D9                     i1l79:
  1492     04D9  0008               	return
  1493     04DA                     __end_of_HienThi_7seg:
  1494                           
  1495                           	psect	text6
  1496     06AC                     __ptext6:	
  1497 ;; *************** function ___fltol *****************
  1498 ;; Defined at:
  1499 ;;		line 43 in file "C:\Program Files\Microchip\xc8\v2.40\pic\sources\c90\common\fltol.c"
  1500 ;; Parameters:    Size  Location     Type
  1501 ;;  f1              4    0[COMMON] void 
  1502 ;; Auto vars:     Size  Location     Type
  1503 ;;  exp1            1    9[COMMON] unsigned char 
  1504 ;;  sign1           1    8[COMMON] unsigned char 
  1505 ;; Return value:  Size  Location     Type
  1506 ;;                  4    0[COMMON] long 
  1507 ;; Registers used:
  1508 ;;		wreg, status,2, status,0
  1509 ;; Tracked objects:
  1510 ;;		On entry : 0/0
  1511 ;;		On exit  : 0/0
  1512 ;;		Unchanged: 0/0
  1513 ;; Data sizes:     COMMON   BANK0   BANK1   BANK3   BANK2
  1514 ;;      Params:         4       0       0       0       0
  1515 ;;      Locals:         2       0       0       0       0
  1516 ;;      Temps:          4       0       0       0       0
  1517 ;;      Totals:        10       0       0       0       0
  1518 ;;Total ram usage:       10 bytes
  1519 ;; Hardware stack levels used: 1
  1520 ;; This function calls:
  1521 ;;		Nothing
  1522 ;; This function is called by:
  1523 ;;		_HienThi_7seg
  1524 ;; This function uses a non-reentrant model
  1525 ;;
  1526                           
  1527     06AC                     ___fltol:	
  1528                           ;psect for function ___fltol
  1529                           
  1530     06AC                     i1l1485:	
  1531                           ;incstack = 0
  1532                           ; Regs used in ___fltol: [wreg+status,2+status,0]
  1533                           
  1534     06AC  1003               	clrc
  1535     06AD  0D72               	rlf	___fltol@f1+2,w
  1536     06AE  0D73               	rlf	___fltol@f1+3,w
  1537     06AF  00F9               	movwf	___fltol@exp1
  1538     06B0  0879               	movf	___fltol@exp1,w
  1539     06B1  1D03               	btfss	3,2
  1540     06B2  2EB4               	goto	u177_21
  1541     06B3  2EB5               	goto	u177_20
  1542     06B4                     u177_21:
  1543     06B4  2EBE               	goto	i1l1491
  1544     06B5                     u177_20:
  1545     06B5                     i1l1487:
  1546     06B5  3000               	movlw	0
  1547     06B6  00F3               	movwf	?___fltol+3
  1548     06B7  3000               	movlw	0
  1549     06B8  00F2               	movwf	?___fltol+2
  1550     06B9  3000               	movlw	0
  1551     06BA  00F1               	movwf	?___fltol+1
  1552     06BB  3000               	movlw	0
  1553     06BC  00F0               	movwf	?___fltol
  1554     06BD  2F21               	goto	i1l373
  1555     06BE                     i1l1491:
  1556     06BE  0870               	movf	___fltol@f1,w
  1557     06BF  00F4               	movwf	??___fltol
  1558     06C0  0871               	movf	___fltol@f1+1,w
  1559     06C1  00F5               	movwf	??___fltol+1
  1560     06C2  0872               	movf	___fltol@f1+2,w
  1561     06C3  00F6               	movwf	??___fltol+2
  1562     06C4  0873               	movf	___fltol@f1+3,w
  1563     06C5  00F7               	movwf	??___fltol+3
  1564     06C6  301F               	movlw	31
  1565     06C7                     u178_25:
  1566     06C7  1003               	clrc
  1567     06C8  0CF7               	rrf	??___fltol+3,f
  1568     06C9  0CF6               	rrf	??___fltol+2,f
  1569     06CA  0CF5               	rrf	??___fltol+1,f
  1570     06CB  0CF4               	rrf	??___fltol,f
  1571     06CC                     u178_20:
  1572     06CC  3EFF               	addlw	-1
  1573     06CD  1D03               	skipz
  1574     06CE  2EC7               	goto	u178_25
  1575     06CF  0874               	movf	??___fltol,w
  1576     06D0  00F8               	movwf	___fltol@sign1
  1577     06D1                     i1l1493:
  1578     06D1  17F2               	bsf	___fltol@f1+2,7
  1579     06D2                     i1l1495:
  1580     06D2  30FF               	movlw	255
  1581     06D3  05F0               	andwf	___fltol@f1,f
  1582     06D4  30FF               	movlw	255
  1583     06D5  05F1               	andwf	___fltol@f1+1,f
  1584     06D6  30FF               	movlw	255
  1585     06D7  05F2               	andwf	___fltol@f1+2,f
  1586     06D8  3000               	movlw	0
  1587     06D9  05F3               	andwf	___fltol@f1+3,f
  1588     06DA                     i1l1497:
  1589     06DA  3096               	movlw	150
  1590     06DB  02F9               	subwf	___fltol@exp1,f
  1591     06DC                     i1l1499:
  1592     06DC  1FF9               	btfss	___fltol@exp1,7
  1593     06DD  2EDF               	goto	u179_21
  1594     06DE  2EE0               	goto	u179_20
  1595     06DF                     u179_21:
  1596     06DF  2EFA               	goto	i1l1509
  1597     06E0                     u179_20:
  1598     06E0                     i1l1501:
  1599     06E0  0879               	movf	___fltol@exp1,w
  1600     06E1  3A80               	xorlw	128
  1601     06E2  3E97               	addlw	151
  1602     06E3  1803               	skipnc
  1603     06E4  2EE6               	goto	u180_21
  1604     06E5  2EE7               	goto	u180_20
  1605     06E6                     u180_21:
  1606     06E6  2EE8               	goto	i1l1507
  1607     06E7                     u180_20:
  1608     06E7  2EB5               	goto	i1l1487
  1609     06E8                     i1l1507:
  1610     06E8  3001               	movlw	1
  1611     06E9                     u181_25:
  1612     06E9  1003               	clrc
  1613     06EA  0CF3               	rrf	___fltol@f1+3,f
  1614     06EB  0CF2               	rrf	___fltol@f1+2,f
  1615     06EC  0CF1               	rrf	___fltol@f1+1,f
  1616     06ED  0CF0               	rrf	___fltol@f1,f
  1617     06EE  3EFF               	addlw	-1
  1618     06EF  1D03               	skipz
  1619     06F0  2EE9               	goto	u181_25
  1620     06F1  3001               	movlw	1
  1621     06F2  00F4               	movwf	??___fltol
  1622     06F3  0874               	movf	??___fltol,w
  1623     06F4  07F9               	addwf	___fltol@exp1,f
  1624     06F5  1D03               	btfss	3,2
  1625     06F6  2EF8               	goto	u182_21
  1626     06F7  2EF9               	goto	u182_20
  1627     06F8                     u182_21:
  1628     06F8  2EE8               	goto	i1l1507
  1629     06F9                     u182_20:
  1630     06F9  2F11               	goto	i1l1517
  1631     06FA                     i1l1509:
  1632     06FA  3020               	movlw	32
  1633     06FB  0279               	subwf	___fltol@exp1,w
  1634     06FC  1C03               	skipc
  1635     06FD  2EFF               	goto	u183_21
  1636     06FE  2F00               	goto	u183_20
  1637     06FF                     u183_21:
  1638     06FF  2F0C               	goto	i1l380
  1639     0700                     u183_20:
  1640     0700  2EB5               	goto	i1l1487
  1641     0701                     i1l1515:
  1642     0701  3001               	movlw	1
  1643     0702  00F4               	movwf	??___fltol
  1644     0703                     u184_25:
  1645     0703  1003               	clrc
  1646     0704  0DF0               	rlf	___fltol@f1,f
  1647     0705  0DF1               	rlf	___fltol@f1+1,f
  1648     0706  0DF2               	rlf	___fltol@f1+2,f
  1649     0707  0DF3               	rlf	___fltol@f1+3,f
  1650     0708  0BF4               	decfsz	??___fltol,f
  1651     0709  2F03               	goto	u184_25
  1652     070A  3001               	movlw	1
  1653     070B  02F9               	subwf	___fltol@exp1,f
  1654     070C                     i1l380:
  1655     070C  0879               	movf	___fltol@exp1,w
  1656     070D  1D03               	btfss	3,2
  1657     070E  2F10               	goto	u185_21
  1658     070F  2F11               	goto	u185_20
  1659     0710                     u185_21:
  1660     0710  2F01               	goto	i1l1515
  1661     0711                     u185_20:
  1662     0711                     i1l1517:
  1663     0711  0878               	movf	___fltol@sign1,w
  1664     0712  1903               	btfsc	3,2
  1665     0713  2F15               	goto	u186_21
  1666     0714  2F16               	goto	u186_20
  1667     0715                     u186_21:
  1668     0715  2F21               	goto	i1l383
  1669     0716                     u186_20:
  1670     0716                     i1l1519:
  1671     0716  09F0               	comf	___fltol@f1,f
  1672     0717  09F1               	comf	___fltol@f1+1,f
  1673     0718  09F2               	comf	___fltol@f1+2,f
  1674     0719  09F3               	comf	___fltol@f1+3,f
  1675     071A  0AF0               	incf	___fltol@f1,f
  1676     071B  1903               	skipnz
  1677     071C  0AF1               	incf	___fltol@f1+1,f
  1678     071D  1903               	skipnz
  1679     071E  0AF2               	incf	___fltol@f1+2,f
  1680     071F  1903               	skipnz
  1681     0720  0AF3               	incf	___fltol@f1+3,f
  1682     0721                     i1l383:
  1683     0721                     i1l373:
  1684     0721  0008               	return
  1685     0722                     __end_of___fltol:
  1686                           
  1687                           	psect	text7
  1688     078B                     __ptext7:	
  1689 ;; *************** function ___awmod *****************
  1690 ;; Defined at:
  1691 ;;		line 5 in file "C:\Program Files\Microchip\xc8\v2.40\pic\sources\c90\common\awmod.c"
  1692 ;; Parameters:    Size  Location     Type
  1693 ;;  divisor         2    0[COMMON] int 
  1694 ;;  dividend        2    2[COMMON] int 
  1695 ;; Auto vars:     Size  Location     Type
  1696 ;;  sign            1    6[COMMON] unsigned char 
  1697 ;;  counter         1    5[COMMON] unsigned char 
  1698 ;; Return value:  Size  Location     Type
  1699 ;;                  2    0[COMMON] int 
  1700 ;; Registers used:
  1701 ;;		wreg, status,2, status,0
  1702 ;; Tracked objects:
  1703 ;;		On entry : 0/0
  1704 ;;		On exit  : 0/0
  1705 ;;		Unchanged: 0/0
  1706 ;; Data sizes:     COMMON   BANK0   BANK1   BANK3   BANK2
  1707 ;;      Params:         4       0       0       0       0
  1708 ;;      Locals:         2       0       0       0       0
  1709 ;;      Temps:          1       0       0       0       0
  1710 ;;      Totals:         7       0       0       0       0
  1711 ;;Total ram usage:        7 bytes
  1712 ;; Hardware stack levels used: 1
  1713 ;; This function calls:
  1714 ;;		Nothing
  1715 ;; This function is called by:
  1716 ;;		_HienThi_7seg
  1717 ;; This function uses a non-reentrant model
  1718 ;;
  1719                           
  1720     078B                     ___awmod:	
  1721                           ;psect for function ___awmod
  1722                           
  1723     078B                     i1l1447:	
  1724                           ;incstack = 0
  1725                           ; Regs used in ___awmod: [wreg+status,2+status,0]
  1726                           
  1727     078B  01F6               	clrf	___awmod@sign
  1728     078C                     i1l1449:
  1729     078C  1FF3               	btfss	___awmod@dividend+1,7
  1730     078D  2F8F               	goto	u168_21
  1731     078E  2F90               	goto	u168_20
  1732     078F                     u168_21:
  1733     078F  2F97               	goto	i1l1455
  1734     0790                     u168_20:
  1735     0790                     i1l1451:
  1736     0790  09F2               	comf	___awmod@dividend,f
  1737     0791  09F3               	comf	___awmod@dividend+1,f
  1738     0792  0AF2               	incf	___awmod@dividend,f
  1739     0793  1903               	skipnz
  1740     0794  0AF3               	incf	___awmod@dividend+1,f
  1741     0795                     i1l1453:
  1742     0795  01F6               	clrf	___awmod@sign
  1743     0796  0AF6               	incf	___awmod@sign,f
  1744     0797                     i1l1455:
  1745     0797  1FF1               	btfss	___awmod@divisor+1,7
  1746     0798  2F9A               	goto	u169_21
  1747     0799  2F9B               	goto	u169_20
  1748     079A                     u169_21:
  1749     079A  2FA0               	goto	i1l1459
  1750     079B                     u169_20:
  1751     079B                     i1l1457:
  1752     079B  09F0               	comf	___awmod@divisor,f
  1753     079C  09F1               	comf	___awmod@divisor+1,f
  1754     079D  0AF0               	incf	___awmod@divisor,f
  1755     079E  1903               	skipnz
  1756     079F  0AF1               	incf	___awmod@divisor+1,f
  1757     07A0                     i1l1459:
  1758     07A0  0870               	movf	___awmod@divisor,w
  1759     07A1  0471               	iorwf	___awmod@divisor+1,w
  1760     07A2  1903               	btfsc	3,2
  1761     07A3  2FA5               	goto	u170_21
  1762     07A4  2FA6               	goto	u170_20
  1763     07A5                     u170_21:
  1764     07A5  2FD5               	goto	i1l1477
  1765     07A6                     u170_20:
  1766     07A6                     i1l1461:
  1767     07A6  01F5               	clrf	___awmod@counter
  1768     07A7  0AF5               	incf	___awmod@counter,f
  1769     07A8  2FB4               	goto	i1l1467
  1770     07A9                     i1l1463:
  1771     07A9  3001               	movlw	1
  1772     07AA                     u171_25:
  1773     07AA  1003               	clrc
  1774     07AB  0DF0               	rlf	___awmod@divisor,f
  1775     07AC  0DF1               	rlf	___awmod@divisor+1,f
  1776     07AD  3EFF               	addlw	-1
  1777     07AE  1D03               	skipz
  1778     07AF  2FAA               	goto	u171_25
  1779     07B0                     i1l1465:
  1780     07B0  3001               	movlw	1
  1781     07B1  00F4               	movwf	??___awmod
  1782     07B2  0874               	movf	??___awmod,w
  1783     07B3  07F5               	addwf	___awmod@counter,f
  1784     07B4                     i1l1467:
  1785     07B4  1FF1               	btfss	___awmod@divisor+1,7
  1786     07B5  2FB7               	goto	u172_21
  1787     07B6  2FB8               	goto	u172_20
  1788     07B7                     u172_21:
  1789     07B7  2FA9               	goto	i1l1463
  1790     07B8                     u172_20:
  1791     07B8                     i1l1469:
  1792     07B8  0871               	movf	___awmod@divisor+1,w
  1793     07B9  0273               	subwf	___awmod@dividend+1,w
  1794     07BA  1D03               	skipz
  1795     07BB  2FBE               	goto	u173_25
  1796     07BC  0870               	movf	___awmod@divisor,w
  1797     07BD  0272               	subwf	___awmod@dividend,w
  1798     07BE                     u173_25:
  1799     07BE  1C03               	skipc
  1800     07BF  2FC1               	goto	u173_21
  1801     07C0  2FC2               	goto	u173_20
  1802     07C1                     u173_21:
  1803     07C1  2FC8               	goto	i1l1473
  1804     07C2                     u173_20:
  1805     07C2                     i1l1471:
  1806     07C2  0870               	movf	___awmod@divisor,w
  1807     07C3  02F2               	subwf	___awmod@dividend,f
  1808     07C4  0871               	movf	___awmod@divisor+1,w
  1809     07C5  1C03               	skipc
  1810     07C6  03F3               	decf	___awmod@dividend+1,f
  1811     07C7  02F3               	subwf	___awmod@dividend+1,f
  1812     07C8                     i1l1473:
  1813     07C8  3001               	movlw	1
  1814     07C9                     u174_25:
  1815     07C9  1003               	clrc
  1816     07CA  0CF1               	rrf	___awmod@divisor+1,f
  1817     07CB  0CF0               	rrf	___awmod@divisor,f
  1818     07CC  3EFF               	addlw	-1
  1819     07CD  1D03               	skipz
  1820     07CE  2FC9               	goto	u174_25
  1821     07CF                     i1l1475:
  1822     07CF  3001               	movlw	1
  1823     07D0  02F5               	subwf	___awmod@counter,f
  1824     07D1  1D03               	btfss	3,2
  1825     07D2  2FD4               	goto	u175_21
  1826     07D3  2FD5               	goto	u175_20
  1827     07D4                     u175_21:
  1828     07D4  2FB8               	goto	i1l1469
  1829     07D5                     u175_20:
  1830     07D5                     i1l1477:
  1831     07D5  0876               	movf	___awmod@sign,w
  1832     07D6  1903               	btfsc	3,2
  1833     07D7  2FD9               	goto	u176_21
  1834     07D8  2FDA               	goto	u176_20
  1835     07D9                     u176_21:
  1836     07D9  2FDF               	goto	i1l1481
  1837     07DA                     u176_20:
  1838     07DA                     i1l1479:
  1839     07DA  09F2               	comf	___awmod@dividend,f
  1840     07DB  09F3               	comf	___awmod@dividend+1,f
  1841     07DC  0AF2               	incf	___awmod@dividend,f
  1842     07DD  1903               	skipnz
  1843     07DE  0AF3               	incf	___awmod@dividend+1,f
  1844     07DF                     i1l1481:
  1845     07DF  0873               	movf	___awmod@dividend+1,w
  1846     07E0  00F1               	movwf	?___awmod+1
  1847     07E1  0872               	movf	___awmod@dividend,w
  1848     07E2  00F0               	movwf	?___awmod
  1849     07E3                     i1l353:
  1850     07E3  0008               	return
  1851     07E4                     __end_of___awmod:
  1852                           
  1853                           	psect	text8
  1854     0722                     __ptext8:	
  1855 ;; *************** function ___awdiv *****************
  1856 ;; Defined at:
  1857 ;;		line 5 in file "C:\Program Files\Microchip\xc8\v2.40\pic\sources\c90\common\awdiv.c"
  1858 ;; Parameters:    Size  Location     Type
  1859 ;;  divisor         2    7[COMMON] int 
  1860 ;;  dividend        2    9[COMMON] int 
  1861 ;; Auto vars:     Size  Location     Type
  1862 ;;  quotient        2    2[BANK0 ] int 
  1863 ;;  sign            1    1[BANK0 ] unsigned char 
  1864 ;;  counter         1    0[BANK0 ] unsigned char 
  1865 ;; Return value:  Size  Location     Type
  1866 ;;                  2    7[COMMON] int 
  1867 ;; Registers used:
  1868 ;;		wreg, status,2, status,0
  1869 ;; Tracked objects:
  1870 ;;		On entry : 0/0
  1871 ;;		On exit  : 0/0
  1872 ;;		Unchanged: 0/0
  1873 ;; Data sizes:     COMMON   BANK0   BANK1   BANK3   BANK2
  1874 ;;      Params:         4       0       0       0       0
  1875 ;;      Locals:         0       4       0       0       0
  1876 ;;      Temps:          1       0       0       0       0
  1877 ;;      Totals:         5       4       0       0       0
  1878 ;;Total ram usage:        9 bytes
  1879 ;; Hardware stack levels used: 1
  1880 ;; This function calls:
  1881 ;;		Nothing
  1882 ;; This function is called by:
  1883 ;;		_HienThi_7seg
  1884 ;; This function uses a non-reentrant model
  1885 ;;
  1886                           
  1887     0722                     ___awdiv:	
  1888                           ;psect for function ___awdiv
  1889                           
  1890     0722                     i1l1403:	
  1891                           ;incstack = 0
  1892                           ; Regs used in ___awdiv: [wreg+status,2+status,0]
  1893                           
  1894     0722  1283               	bcf	3,5	;RP0=0, select bank0
  1895     0723  1303               	bcf	3,6	;RP1=0, select bank0
  1896     0724  01A1               	clrf	___awdiv@sign
  1897     0725                     i1l1405:
  1898     0725  1FF8               	btfss	___awdiv@divisor+1,7
  1899     0726  2F28               	goto	u158_21
  1900     0727  2F29               	goto	u158_20
  1901     0728                     u158_21:
  1902     0728  2F30               	goto	i1l1411
  1903     0729                     u158_20:
  1904     0729                     i1l1407:
  1905     0729  09F7               	comf	___awdiv@divisor,f
  1906     072A  09F8               	comf	___awdiv@divisor+1,f
  1907     072B  0AF7               	incf	___awdiv@divisor,f
  1908     072C  1903               	skipnz
  1909     072D  0AF8               	incf	___awdiv@divisor+1,f
  1910     072E                     i1l1409:
  1911     072E  01A1               	clrf	___awdiv@sign
  1912     072F  0AA1               	incf	___awdiv@sign,f
  1913     0730                     i1l1411:
  1914     0730  1FFA               	btfss	___awdiv@dividend+1,7
  1915     0731  2F33               	goto	u159_21
  1916     0732  2F34               	goto	u159_20
  1917     0733                     u159_21:
  1918     0733  2F3D               	goto	i1l1417
  1919     0734                     u159_20:
  1920     0734                     i1l1413:
  1921     0734  09F9               	comf	___awdiv@dividend,f
  1922     0735  09FA               	comf	___awdiv@dividend+1,f
  1923     0736  0AF9               	incf	___awdiv@dividend,f
  1924     0737  1903               	skipnz
  1925     0738  0AFA               	incf	___awdiv@dividend+1,f
  1926     0739                     i1l1415:
  1927     0739  3001               	movlw	1
  1928     073A  00FB               	movwf	??___awdiv
  1929     073B  087B               	movf	??___awdiv,w
  1930     073C  06A1               	xorwf	___awdiv@sign,f
  1931     073D                     i1l1417:
  1932     073D  01A2               	clrf	___awdiv@quotient
  1933     073E  01A3               	clrf	___awdiv@quotient+1
  1934     073F                     i1l1419:
  1935     073F  0877               	movf	___awdiv@divisor,w
  1936     0740  0478               	iorwf	___awdiv@divisor+1,w
  1937     0741  1903               	btfsc	3,2
  1938     0742  2F44               	goto	u160_21
  1939     0743  2F45               	goto	u160_20
  1940     0744                     u160_21:
  1941     0744  2F7C               	goto	i1l1439
  1942     0745                     u160_20:
  1943     0745                     i1l1421:
  1944     0745  01A0               	clrf	___awdiv@counter
  1945     0746  0AA0               	incf	___awdiv@counter,f
  1946     0747  2F53               	goto	i1l1427
  1947     0748                     i1l1423:
  1948     0748  3001               	movlw	1
  1949     0749                     u161_25:
  1950     0749  1003               	clrc
  1951     074A  0DF7               	rlf	___awdiv@divisor,f
  1952     074B  0DF8               	rlf	___awdiv@divisor+1,f
  1953     074C  3EFF               	addlw	-1
  1954     074D  1D03               	skipz
  1955     074E  2F49               	goto	u161_25
  1956     074F                     i1l1425:
  1957     074F  3001               	movlw	1
  1958     0750  00FB               	movwf	??___awdiv
  1959     0751  087B               	movf	??___awdiv,w
  1960     0752  07A0               	addwf	___awdiv@counter,f
  1961     0753                     i1l1427:
  1962     0753  1FF8               	btfss	___awdiv@divisor+1,7
  1963     0754  2F56               	goto	u162_21
  1964     0755  2F57               	goto	u162_20
  1965     0756                     u162_21:
  1966     0756  2F48               	goto	i1l1423
  1967     0757                     u162_20:
  1968     0757                     i1l1429:
  1969     0757  3001               	movlw	1
  1970     0758                     u163_25:
  1971     0758  1003               	clrc
  1972     0759  0DA2               	rlf	___awdiv@quotient,f
  1973     075A  0DA3               	rlf	___awdiv@quotient+1,f
  1974     075B  3EFF               	addlw	-1
  1975     075C  1D03               	skipz
  1976     075D  2F58               	goto	u163_25
  1977     075E  0878               	movf	___awdiv@divisor+1,w
  1978     075F  027A               	subwf	___awdiv@dividend+1,w
  1979     0760  1D03               	skipz
  1980     0761  2F64               	goto	u164_25
  1981     0762  0877               	movf	___awdiv@divisor,w
  1982     0763  0279               	subwf	___awdiv@dividend,w
  1983     0764                     u164_25:
  1984     0764  1C03               	skipc
  1985     0765  2F67               	goto	u164_21
  1986     0766  2F68               	goto	u164_20
  1987     0767                     u164_21:
  1988     0767  2F6F               	goto	i1l1435
  1989     0768                     u164_20:
  1990     0768                     i1l1431:
  1991     0768  0877               	movf	___awdiv@divisor,w
  1992     0769  02F9               	subwf	___awdiv@dividend,f
  1993     076A  0878               	movf	___awdiv@divisor+1,w
  1994     076B  1C03               	skipc
  1995     076C  03FA               	decf	___awdiv@dividend+1,f
  1996     076D  02FA               	subwf	___awdiv@dividend+1,f
  1997     076E                     i1l1433:
  1998     076E  1422               	bsf	___awdiv@quotient,0
  1999     076F                     i1l1435:
  2000     076F  3001               	movlw	1
  2001     0770                     u165_25:
  2002     0770  1003               	clrc
  2003     0771  0CF8               	rrf	___awdiv@divisor+1,f
  2004     0772  0CF7               	rrf	___awdiv@divisor,f
  2005     0773  3EFF               	addlw	-1
  2006     0774  1D03               	skipz
  2007     0775  2F70               	goto	u165_25
  2008     0776                     i1l1437:
  2009     0776  3001               	movlw	1
  2010     0777  02A0               	subwf	___awdiv@counter,f
  2011     0778  1D03               	btfss	3,2
  2012     0779  2F7B               	goto	u166_21
  2013     077A  2F7C               	goto	u166_20
  2014     077B                     u166_21:
  2015     077B  2F57               	goto	i1l1429
  2016     077C                     u166_20:
  2017     077C                     i1l1439:
  2018     077C  0821               	movf	___awdiv@sign,w
  2019     077D  1903               	btfsc	3,2
  2020     077E  2F80               	goto	u167_21
  2021     077F  2F81               	goto	u167_20
  2022     0780                     u167_21:
  2023     0780  2F86               	goto	i1l1443
  2024     0781                     u167_20:
  2025     0781                     i1l1441:
  2026     0781  09A2               	comf	___awdiv@quotient,f
  2027     0782  09A3               	comf	___awdiv@quotient+1,f
  2028     0783  0AA2               	incf	___awdiv@quotient,f
  2029     0784  1903               	skipnz
  2030     0785  0AA3               	incf	___awdiv@quotient+1,f
  2031     0786                     i1l1443:
  2032     0786  0823               	movf	___awdiv@quotient+1,w
  2033     0787  00F8               	movwf	?___awdiv+1
  2034     0788  0822               	movf	___awdiv@quotient,w
  2035     0789  00F7               	movwf	?___awdiv
  2036     078A                     i1l340:
  2037     078A  0008               	return
  2038     078B                     __end_of___awdiv:
  2039                           
  2040                           	psect	text9
  2041     04DA                     __ptext9:	
  2042 ;; *************** function _ReadADC *****************
  2043 ;; Defined at:
  2044 ;;		line 52 in file "btvn adc quynh.c"
  2045 ;; Parameters:    Size  Location     Type
  2046 ;;  channel         1    wreg     unsigned char 
  2047 ;; Auto vars:     Size  Location     Type
  2048 ;;  channel         1   29[BANK0 ] unsigned char 
  2049 ;; Return value:  Size  Location     Type
  2050 ;;                  1    wreg      void 
  2051 ;; Registers used:
  2052 ;;		wreg, fsr0l, fsr0h, status,2, status,0, btemp+1, pclath, cstack
  2053 ;; Tracked objects:
  2054 ;;		On entry : 0/0
  2055 ;;		On exit  : 0/0
  2056 ;;		Unchanged: 0/0
  2057 ;; Data sizes:     COMMON   BANK0   BANK1   BANK3   BANK2
  2058 ;;      Params:         0       0       0       0       0
  2059 ;;      Locals:         0       1       0       0       0
  2060 ;;      Temps:          0       3       0       0       0
  2061 ;;      Totals:         0       4       0       0       0
  2062 ;;Total ram usage:        4 bytes
  2063 ;; Hardware stack levels used: 1
  2064 ;; Hardware stack levels required when called: 2
  2065 ;; This function calls:
  2066 ;;		___flmul
  2067 ;;		___xxtofl
  2068 ;; This function is called by:
  2069 ;;		_HienThi_7seg
  2070 ;; This function uses a non-reentrant model
  2071 ;;
  2072                           
  2073     04DA                     _ReadADC:	
  2074                           ;psect for function _ReadADC
  2075                           
  2076                           
  2077                           ;incstack = 0
  2078                           ; Regs used in _ReadADC: [wreg-fsr0h+status,2+status,0+btemp+1+pclath+cstack]
  2079                           ;ReadADC@channel stored from wreg
  2080     04DA  1283               	bcf	3,5	;RP0=0, select bank0
  2081     04DB  1303               	bcf	3,6	;RP1=0, select bank0
  2082     04DC  00BD               	movwf	ReadADC@channel
  2083     04DD                     i1l1383:
  2084                           
  2085                           ;btvn adc quynh.c: 53:     switch(channel){
  2086     04DD  2CE6               	goto	i1l1385
  2087     04DE                     i1l63:	
  2088                           ;btvn adc quynh.c: 54:         case 0 : CHS0=0;CHS1=0;CHS2=0 ;break;
  2089                           
  2090     04DE  119F               	bcf	31,3	;volatile
  2091     04DF  121F               	bcf	31,4	;volatile
  2092     04E0  129F               	bcf	31,5	;volatile
  2093     04E1  2CF6               	goto	i1l64
  2094     04E2                     i1l65:	
  2095                           ;btvn adc quynh.c: 55:         case 1 : CHS0=1;CHS1=0;CHS2=0;
  2096                           
  2097     04E2  159F               	bsf	31,3	;volatile
  2098     04E3  121F               	bcf	31,4	;volatile
  2099     04E4  129F               	bcf	31,5	;volatile
  2100                           
  2101                           ;btvn adc quynh.c: 56:     }
  2102     04E5  2CF6               	goto	i1l64
  2103     04E6                     i1l1385:
  2104     04E6  083D               	movf	ReadADC@channel,w
  2105     04E7  00BA               	movwf	??_ReadADC
  2106     04E8  01BB               	clrf	??_ReadADC+1
  2107                           
  2108                           ; Switch on 2 bytes has been partitioned into a top level switch of size 1, and 1 sub-sw
      +                          itches
  2109                           ; Switch size 1, requested type "simple"
  2110                           ; Number of cases is 1, Range of values is 0 to 0
  2111                           ; switch strategies available:
  2112                           ; Name         Instructions Cycles
  2113                           ; simple_byte            4     3 (average)
  2114                           ; direct_byte           11     8 (fixed)
  2115                           ; jumptable            260     6 (fixed)
  2116                           ;	Chosen strategy is simple_byte
  2117     04E9  083B               	movf	??_ReadADC+1,w
  2118     04EA  3A00               	xorlw	0	; case 0
  2119     04EB  1903               	skipnz
  2120     04EC  2CEE               	goto	i1l1675
  2121     04ED  2CF6               	goto	i1l64
  2122     04EE                     i1l1675:
  2123                           
  2124                           ; Switch size 1, requested type "simple"
  2125                           ; Number of cases is 2, Range of values is 0 to 1
  2126                           ; switch strategies available:
  2127                           ; Name         Instructions Cycles
  2128                           ; simple_byte            7     4 (average)
  2129                           ; direct_byte           14     8 (fixed)
  2130                           ; jumptable            260     6 (fixed)
  2131                           ;	Chosen strategy is simple_byte
  2132     04EE  083A               	movf	??_ReadADC,w
  2133     04EF  3A00               	xorlw	0	; case 0
  2134     04F0  1903               	skipnz
  2135     04F1  2CDE               	goto	i1l63
  2136     04F2  3A01               	xorlw	1	; case 1
  2137     04F3  1903               	skipnz
  2138     04F4  2CE2               	goto	i1l65
  2139     04F5  2CF6               	goto	i1l64
  2140     04F6                     i1l64:
  2141                           
  2142                           ;btvn adc quynh.c: 57:     ADON=1;
  2143     04F6  141F               	bsf	31,0	;volatile
  2144     04F7                     i1l1387:
  2145                           
  2146                           ;btvn adc quynh.c: 58:     _delay((unsigned long)((50)*(20000000/4000.0)));
  2147     04F7  3002               	movlw	2
  2148     04F8  1283               	bcf	3,5	;RP0=0, select bank0
  2149     04F9  1303               	bcf	3,6	;RP1=0, select bank0
  2150     04FA  00BC               	movwf	??_ReadADC+2
  2151     04FB  3045               	movlw	69
  2152     04FC  00BB               	movwf	??_ReadADC+1
  2153     04FD  30A9               	movlw	169
  2154     04FE  00BA               	movwf	??_ReadADC
  2155     04FF                     u203_27:
  2156     04FF  0BBA               	decfsz	??_ReadADC,f
  2157     0500  2CFF               	goto	u203_27
  2158     0501  0BBB               	decfsz	??_ReadADC+1,f
  2159     0502  2CFF               	goto	u203_27
  2160     0503  0BBC               	decfsz	??_ReadADC+2,f
  2161     0504  2CFF               	goto	u203_27
  2162     0505                     i1l1389:
  2163                           
  2164                           ;btvn adc quynh.c: 59:     GO_DONE =1;
  2165     0505  1283               	bcf	3,5	;RP0=0, select bank0
  2166     0506  1303               	bcf	3,6	;RP1=0, select bank0
  2167     0507  151F               	bsf	31,2	;volatile
  2168     0508                     i1l66:	
  2169                           ;btvn adc quynh.c: 60:     while(GO_DONE);
  2170                           
  2171     0508  191F               	btfsc	31,2	;volatile
  2172     0509  2D0B               	goto	u156_21
  2173     050A  2D0C               	goto	u156_20
  2174     050B                     u156_21:
  2175     050B  2D08               	goto	i1l66
  2176     050C                     u156_20:
  2177     050C                     i1l1391:
  2178                           
  2179                           ;btvn adc quynh.c: 61:     adc_value = ((ADRESH<<8)|(ADRESH));
  2180     050C  081E               	movf	30,w	;volatile
  2181     050D  00D0               	movwf	_adc_value+1
  2182     050E  081E               	movf	30,w	;volatile
  2183     050F  00CF               	movwf	_adc_value
  2184                           
  2185                           ;btvn adc quynh.c: 62:     if(adc_value >= 205){
  2186     0510  3000               	movlw	0
  2187     0511  0250               	subwf	_adc_value+1,w
  2188     0512  30CD               	movlw	205
  2189     0513  1903               	skipnz
  2190     0514  024F               	subwf	_adc_value,w
  2191     0515  1C03               	skipc
  2192     0516  2D18               	goto	u157_21
  2193     0517  2D19               	goto	u157_20
  2194     0518                     u157_21:
  2195     0518  2D4B               	goto	i1l1395
  2196     0519                     u157_20:
  2197     0519                     i1l1393:
  2198                           
  2199                           ;btvn adc quynh.c: 63:         nhiet_do = (adc_value-205)*0.2444;
  2200     0519  303E               	movlw	62
  2201     051A  00A3               	movwf	___flmul@b+3
  2202     051B  307A               	movlw	122
  2203     051C  00A2               	movwf	___flmul@b+2
  2204     051D  3043               	movlw	67
  2205     051E  00A1               	movwf	___flmul@b+1
  2206     051F  30FE               	movlw	254
  2207     0520  00A0               	movwf	___flmul@b
  2208     0521  084F               	movf	_adc_value,w
  2209     0522  3E33               	addlw	51
  2210     0523  00F0               	movwf	___xxtofl@val
  2211     0524  0850               	movf	_adc_value+1,w
  2212     0525  1803               	skipnc
  2213     0526  3E01               	addlw	1
  2214     0527  3EFF               	addlw	255
  2215     0528  00F1               	movwf	___xxtofl@val+1
  2216     0529  01F2               	clrf	___xxtofl@val+2
  2217     052A  01F3               	clrf	___xxtofl@val+3
  2218     052B  3000               	movlw	0
  2219     052C  120A  118A  2376  120A  118A  	fcall	___xxtofl
  2220     0531  0873               	movf	?___xxtofl+3,w
  2221     0532  1283               	bcf	3,5	;RP0=0, select bank0
  2222     0533  1303               	bcf	3,6	;RP1=0, select bank0
  2223     0534  00A7               	movwf	___flmul@a+3
  2224     0535  0872               	movf	?___xxtofl+2,w
  2225     0536  00A6               	movwf	___flmul@a+2
  2226     0537  0871               	movf	?___xxtofl+1,w
  2227     0538  00A5               	movwf	___flmul@a+1
  2228     0539  0870               	movf	?___xxtofl,w
  2229     053A  00A4               	movwf	___flmul@a
  2230     053B  120A  118A  2031  120A  118A  	fcall	___flmul
  2231     0540  1283               	bcf	3,5	;RP0=0, select bank0
  2232     0541  1303               	bcf	3,6	;RP1=0, select bank0
  2233     0542  0823               	movf	?___flmul+3,w
  2234     0543  00CE               	movwf	_nhiet_do+3
  2235     0544  0822               	movf	?___flmul+2,w
  2236     0545  00CD               	movwf	_nhiet_do+2
  2237     0546  0821               	movf	?___flmul+1,w
  2238     0547  00CC               	movwf	_nhiet_do+1
  2239     0548  0820               	movf	?___flmul,w
  2240     0549  00CB               	movwf	_nhiet_do
  2241                           
  2242                           ;btvn adc quynh.c: 64:     }
  2243     054A  2D7D               	goto	i1l71
  2244     054B                     i1l1395:
  2245     054B  303E               	movlw	62
  2246     054C  00A3               	movwf	___flmul@b+3
  2247     054D  307A               	movlw	122
  2248     054E  00A2               	movwf	___flmul@b+2
  2249     054F  3043               	movlw	67
  2250     0550  00A1               	movwf	___flmul@b+1
  2251     0551  30FE               	movlw	254
  2252     0552  00A0               	movwf	___flmul@b
  2253     0553  30CD               	movlw	205
  2254     0554  00BA               	movwf	??_ReadADC
  2255     0555  084F               	movf	_adc_value,w
  2256     0556  023A               	subwf	??_ReadADC,w
  2257     0557  00F0               	movwf	___xxtofl@val
  2258     0558  0950               	comf	_adc_value+1,w
  2259     0559  1803               	skipnc
  2260     055A  3E01               	addlw	1
  2261     055B  00F1               	movwf	___xxtofl@val+1
  2262     055C  01F2               	clrf	___xxtofl@val+2
  2263     055D  01F3               	clrf	___xxtofl@val+3
  2264     055E  3000               	movlw	0
  2265     055F  120A  118A  2376  120A  118A  	fcall	___xxtofl
  2266     0564  0873               	movf	?___xxtofl+3,w
  2267     0565  1283               	bcf	3,5	;RP0=0, select bank0
  2268     0566  1303               	bcf	3,6	;RP1=0, select bank0
  2269     0567  00A7               	movwf	___flmul@a+3
  2270     0568  0872               	movf	?___xxtofl+2,w
  2271     0569  00A6               	movwf	___flmul@a+2
  2272     056A  0871               	movf	?___xxtofl+1,w
  2273     056B  00A5               	movwf	___flmul@a+1
  2274     056C  0870               	movf	?___xxtofl,w
  2275     056D  00A4               	movwf	___flmul@a
  2276     056E  120A  118A  2031  120A  118A  	fcall	___flmul
  2277     0573  1283               	bcf	3,5	;RP0=0, select bank0
  2278     0574  1303               	bcf	3,6	;RP1=0, select bank0
  2279     0575  0823               	movf	?___flmul+3,w
  2280     0576  00CE               	movwf	_nhiet_do+3
  2281     0577  0822               	movf	?___flmul+2,w
  2282     0578  00CD               	movwf	_nhiet_do+2
  2283     0579  0821               	movf	?___flmul+1,w
  2284     057A  00CC               	movwf	_nhiet_do+1
  2285     057B  0820               	movf	?___flmul,w
  2286     057C  00CB               	movwf	_nhiet_do
  2287     057D                     i1l71:
  2288     057D  0008               	return
  2289     057E                     __end_of_ReadADC:
  2290                           
  2291                           	psect	text10
  2292     0376                     __ptext10:	
  2293 ;; *************** function ___xxtofl *****************
  2294 ;; Defined at:
  2295 ;;		line 10 in file "C:\Program Files\Microchip\xc8\v2.40\pic\sources\c90\common\xxtofl.c"
  2296 ;; Parameters:    Size  Location     Type
  2297 ;;  sign            1    wreg     unsigned char 
  2298 ;;  val             4    0[COMMON] long 
  2299 ;; Auto vars:     Size  Location     Type
  2300 ;;  sign            1    8[COMMON] unsigned char 
  2301 ;;  arg             4   10[COMMON] unsigned long 
  2302 ;;  exp             1    9[COMMON] unsigned char 
  2303 ;; Return value:  Size  Location     Type
  2304 ;;                  4    0[COMMON] unsigned char 
  2305 ;; Registers used:
  2306 ;;		wreg, status,2, status,0
  2307 ;; Tracked objects:
  2308 ;;		On entry : 0/0
  2309 ;;		On exit  : 0/0
  2310 ;;		Unchanged: 0/0
  2311 ;; Data sizes:     COMMON   BANK0   BANK1   BANK3   BANK2
  2312 ;;      Params:         4       0       0       0       0
  2313 ;;      Locals:         6       0       0       0       0
  2314 ;;      Temps:          4       0       0       0       0
  2315 ;;      Totals:        14       0       0       0       0
  2316 ;;Total ram usage:       14 bytes
  2317 ;; Hardware stack levels used: 1
  2318 ;; This function calls:
  2319 ;;		Nothing
  2320 ;; This function is called by:
  2321 ;;		_ReadADC
  2322 ;; This function uses a non-reentrant model
  2323 ;;
  2324                           
  2325     0376                     ___xxtofl:	
  2326                           ;psect for function ___xxtofl
  2327                           
  2328                           
  2329                           ;incstack = 0
  2330                           ; Regs used in ___xxtofl: [wreg+status,2+status,0]
  2331                           ;___xxtofl@sign stored from wreg
  2332     0376  00F8               	movwf	___xxtofl@sign
  2333     0377                     i1l1339:
  2334     0377  0878               	movf	___xxtofl@sign,w
  2335     0378  1903               	btfsc	3,2
  2336     0379  2B7B               	goto	u142_21
  2337     037A  2B7C               	goto	u142_20
  2338     037B                     u142_21:
  2339     037B  2B90               	goto	i1l1345
  2340     037C                     u142_20:
  2341     037C                     i1l1341:
  2342     037C  1FF3               	btfss	___xxtofl@val+3,7
  2343     037D  2B7F               	goto	u143_21
  2344     037E  2B80               	goto	u143_20
  2345     037F                     u143_21:
  2346     037F  2B90               	goto	i1l1345
  2347     0380                     u143_20:
  2348     0380                     i1l1343:
  2349     0380  0970               	comf	___xxtofl@val,w
  2350     0381  00FA               	movwf	___xxtofl@arg
  2351     0382  0971               	comf	___xxtofl@val+1,w
  2352     0383  00FB               	movwf	___xxtofl@arg+1
  2353     0384  0972               	comf	___xxtofl@val+2,w
  2354     0385  00FC               	movwf	___xxtofl@arg+2
  2355     0386  0973               	comf	___xxtofl@val+3,w
  2356     0387  00FD               	movwf	___xxtofl@arg+3
  2357     0388  0AFA               	incf	___xxtofl@arg,f
  2358     0389  1903               	skipnz
  2359     038A  0AFB               	incf	___xxtofl@arg+1,f
  2360     038B  1903               	skipnz
  2361     038C  0AFC               	incf	___xxtofl@arg+2,f
  2362     038D  1903               	skipnz
  2363     038E  0AFD               	incf	___xxtofl@arg+3,f
  2364     038F  2B98               	goto	i1l620
  2365     0390                     i1l1345:
  2366     0390  0873               	movf	___xxtofl@val+3,w
  2367     0391  00FD               	movwf	___xxtofl@arg+3
  2368     0392  0872               	movf	___xxtofl@val+2,w
  2369     0393  00FC               	movwf	___xxtofl@arg+2
  2370     0394  0871               	movf	___xxtofl@val+1,w
  2371     0395  00FB               	movwf	___xxtofl@arg+1
  2372     0396  0870               	movf	___xxtofl@val,w
  2373     0397  00FA               	movwf	___xxtofl@arg
  2374     0398                     i1l620:
  2375     0398  0873               	movf	___xxtofl@val+3,w
  2376     0399  0472               	iorwf	___xxtofl@val+2,w
  2377     039A  0471               	iorwf	___xxtofl@val+1,w
  2378     039B  0470               	iorwf	___xxtofl@val,w
  2379     039C  1D03               	skipz
  2380     039D  2B9F               	goto	u144_21
  2381     039E  2BA0               	goto	u144_20
  2382     039F                     u144_21:
  2383     039F  2BA9               	goto	i1l1351
  2384     03A0                     u144_20:
  2385     03A0                     i1l1347:
  2386     03A0  3000               	movlw	0
  2387     03A1  00F3               	movwf	?___xxtofl+3
  2388     03A2  3000               	movlw	0
  2389     03A3  00F2               	movwf	?___xxtofl+2
  2390     03A4  3000               	movlw	0
  2391     03A5  00F1               	movwf	?___xxtofl+1
  2392     03A6  3000               	movlw	0
  2393     03A7  00F0               	movwf	?___xxtofl
  2394     03A8  2C2D               	goto	i1l622
  2395     03A9                     i1l1351:
  2396     03A9  3096               	movlw	150
  2397     03AA  00F9               	movwf	___xxtofl@exp
  2398     03AB  2BB9               	goto	i1l1355
  2399     03AC                     i1l1353:
  2400     03AC  3001               	movlw	1
  2401     03AD  00F4               	movwf	??___xxtofl
  2402     03AE  0874               	movf	??___xxtofl,w
  2403     03AF  07F9               	addwf	___xxtofl@exp,f
  2404     03B0  3001               	movlw	1
  2405     03B1                     u145_25:
  2406     03B1  1003               	clrc
  2407     03B2  0CFD               	rrf	___xxtofl@arg+3,f
  2408     03B3  0CFC               	rrf	___xxtofl@arg+2,f
  2409     03B4  0CFB               	rrf	___xxtofl@arg+1,f
  2410     03B5  0CFA               	rrf	___xxtofl@arg,f
  2411     03B6  3EFF               	addlw	-1
  2412     03B7  1D03               	skipz
  2413     03B8  2BB1               	goto	u145_25
  2414     03B9                     i1l1355:
  2415     03B9  30FE               	movlw	254
  2416     03BA  057D               	andwf	___xxtofl@arg+3,w
  2417     03BB  1D03               	btfss	3,2
  2418     03BC  2BBE               	goto	u146_21
  2419     03BD  2BBF               	goto	u146_20
  2420     03BE                     u146_21:
  2421     03BE  2BAC               	goto	i1l1353
  2422     03BF                     u146_20:
  2423     03BF  2BDB               	goto	i1l626
  2424     03C0                     i1l1357:
  2425     03C0  3001               	movlw	1
  2426     03C1  00F4               	movwf	??___xxtofl
  2427     03C2  0874               	movf	??___xxtofl,w
  2428     03C3  07F9               	addwf	___xxtofl@exp,f
  2429     03C4                     i1l1359:
  2430     03C4  3001               	movlw	1
  2431     03C5  07FA               	addwf	___xxtofl@arg,f
  2432     03C6  3000               	movlw	0
  2433     03C7  1803               	skipnc
  2434     03C8  3001               	movlw	1
  2435     03C9  07FB               	addwf	___xxtofl@arg+1,f
  2436     03CA  3000               	movlw	0
  2437     03CB  1803               	skipnc
  2438     03CC  3001               	movlw	1
  2439     03CD  07FC               	addwf	___xxtofl@arg+2,f
  2440     03CE  3000               	movlw	0
  2441     03CF  1803               	skipnc
  2442     03D0  3001               	movlw	1
  2443     03D1  07FD               	addwf	___xxtofl@arg+3,f
  2444     03D2                     i1l1361:
  2445     03D2  3001               	movlw	1
  2446     03D3                     u147_25:
  2447     03D3  1003               	clrc
  2448     03D4  0CFD               	rrf	___xxtofl@arg+3,f
  2449     03D5  0CFC               	rrf	___xxtofl@arg+2,f
  2450     03D6  0CFB               	rrf	___xxtofl@arg+1,f
  2451     03D7  0CFA               	rrf	___xxtofl@arg,f
  2452     03D8  3EFF               	addlw	-1
  2453     03D9  1D03               	skipz
  2454     03DA  2BD3               	goto	u147_25
  2455     03DB                     i1l626:
  2456     03DB  30FF               	movlw	255
  2457     03DC  057D               	andwf	___xxtofl@arg+3,w
  2458     03DD  1D03               	btfss	3,2
  2459     03DE  2BE0               	goto	u148_21
  2460     03DF  2BE1               	goto	u148_20
  2461     03E0                     u148_21:
  2462     03E0  2BC0               	goto	i1l1357
  2463     03E1                     u148_20:
  2464     03E1  2BED               	goto	i1l1365
  2465     03E2                     i1l1363:
  2466     03E2  3001               	movlw	1
  2467     03E3  02F9               	subwf	___xxtofl@exp,f
  2468     03E4  3001               	movlw	1
  2469     03E5  00F4               	movwf	??___xxtofl
  2470     03E6                     u149_25:
  2471     03E6  1003               	clrc
  2472     03E7  0DFA               	rlf	___xxtofl@arg,f
  2473     03E8  0DFB               	rlf	___xxtofl@arg+1,f
  2474     03E9  0DFC               	rlf	___xxtofl@arg+2,f
  2475     03EA  0DFD               	rlf	___xxtofl@arg+3,f
  2476     03EB  0BF4               	decfsz	??___xxtofl,f
  2477     03EC  2BE6               	goto	u149_25
  2478     03ED                     i1l1365:
  2479     03ED  1BFC               	btfsc	___xxtofl@arg+2,7
  2480     03EE  2BF0               	goto	u150_21
  2481     03EF  2BF1               	goto	u150_20
  2482     03F0                     u150_21:
  2483     03F0  2BF7               	goto	i1l633
  2484     03F1                     u150_20:
  2485     03F1                     i1l1367:
  2486     03F1  3002               	movlw	2
  2487     03F2  0279               	subwf	___xxtofl@exp,w
  2488     03F3  1803               	skipnc
  2489     03F4  2BF6               	goto	u151_21
  2490     03F5  2BF7               	goto	u151_20
  2491     03F6                     u151_21:
  2492     03F6  2BE2               	goto	i1l1363
  2493     03F7                     u151_20:
  2494     03F7                     i1l633:
  2495     03F7  1879               	btfsc	___xxtofl@exp,0
  2496     03F8  2BFA               	goto	u152_21
  2497     03F9  2BFB               	goto	u152_20
  2498     03FA                     u152_21:
  2499     03FA  2C03               	goto	i1l634
  2500     03FB                     u152_20:
  2501     03FB                     i1l1369:
  2502     03FB  30FF               	movlw	255
  2503     03FC  05FA               	andwf	___xxtofl@arg,f
  2504     03FD  30FF               	movlw	255
  2505     03FE  05FB               	andwf	___xxtofl@arg+1,f
  2506     03FF  307F               	movlw	127
  2507     0400  05FC               	andwf	___xxtofl@arg+2,f
  2508     0401  30FF               	movlw	255
  2509     0402  05FD               	andwf	___xxtofl@arg+3,f
  2510     0403                     i1l634:
  2511     0403  1003               	clrc
  2512     0404  0CF9               	rrf	___xxtofl@exp,f
  2513     0405                     i1l1371:
  2514     0405  0879               	movf	___xxtofl@exp,w
  2515     0406  00F4               	movwf	??___xxtofl
  2516     0407  01F5               	clrf	??___xxtofl+1
  2517     0408  01F6               	clrf	??___xxtofl+2
  2518     0409  01F7               	clrf	??___xxtofl+3
  2519     040A  3018               	movlw	24
  2520     040B                     u153_25:
  2521     040B  1003               	clrc
  2522     040C  0DF4               	rlf	??___xxtofl,f
  2523     040D  0DF5               	rlf	??___xxtofl+1,f
  2524     040E  0DF6               	rlf	??___xxtofl+2,f
  2525     040F  0DF7               	rlf	??___xxtofl+3,f
  2526     0410                     u153_20:
  2527     0410  3EFF               	addlw	-1
  2528     0411  1D03               	skipz
  2529     0412  2C0B               	goto	u153_25
  2530     0413  0874               	movf	??___xxtofl,w
  2531     0414  04FA               	iorwf	___xxtofl@arg,f
  2532     0415  0875               	movf	??___xxtofl+1,w
  2533     0416  04FB               	iorwf	___xxtofl@arg+1,f
  2534     0417  0876               	movf	??___xxtofl+2,w
  2535     0418  04FC               	iorwf	___xxtofl@arg+2,f
  2536     0419  0877               	movf	??___xxtofl+3,w
  2537     041A  04FD               	iorwf	___xxtofl@arg+3,f
  2538     041B                     i1l1373:
  2539     041B  0878               	movf	___xxtofl@sign,w
  2540     041C  1903               	btfsc	3,2
  2541     041D  2C1F               	goto	u154_21
  2542     041E  2C20               	goto	u154_20
  2543     041F                     u154_21:
  2544     041F  2C25               	goto	i1l1379
  2545     0420                     u154_20:
  2546     0420                     i1l1375:
  2547     0420  1FF3               	btfss	___xxtofl@val+3,7
  2548     0421  2C23               	goto	u155_21
  2549     0422  2C24               	goto	u155_20
  2550     0423                     u155_21:
  2551     0423  2C25               	goto	i1l1379
  2552     0424                     u155_20:
  2553     0424                     i1l1377:
  2554     0424  17FD               	bsf	___xxtofl@arg+3,7
  2555     0425                     i1l1379:
  2556     0425  087D               	movf	___xxtofl@arg+3,w
  2557     0426  00F3               	movwf	?___xxtofl+3
  2558     0427  087C               	movf	___xxtofl@arg+2,w
  2559     0428  00F2               	movwf	?___xxtofl+2
  2560     0429  087B               	movf	___xxtofl@arg+1,w
  2561     042A  00F1               	movwf	?___xxtofl+1
  2562     042B  087A               	movf	___xxtofl@arg,w
  2563     042C  00F0               	movwf	?___xxtofl
  2564     042D                     i1l622:
  2565     042D  0008               	return
  2566     042E                     __end_of___xxtofl:
  2567                           
  2568                           	psect	text11
  2569     0031                     __ptext11:	
  2570 ;; *************** function ___flmul *****************
  2571 ;; Defined at:
  2572 ;;		line 8 in file "C:\Program Files\Microchip\xc8\v2.40\pic\sources\c90\common\sprcmul.c"
  2573 ;; Parameters:    Size  Location     Type
  2574 ;;  b               4    0[BANK0 ] unsigned char 
  2575 ;;  a               4    4[BANK0 ] unsigned char 
  2576 ;; Auto vars:     Size  Location     Type
  2577 ;;  prod            4   20[BANK0 ] struct .
  2578 ;;  grs             4   14[BANK0 ] unsigned long 
  2579 ;;  temp            2   24[BANK0 ] struct .
  2580 ;;  bexp            1   19[BANK0 ] unsigned char 
  2581 ;;  aexp            1   18[BANK0 ] unsigned char 
  2582 ;;  sign            1   13[BANK0 ] unsigned char 
  2583 ;; Return value:  Size  Location     Type
  2584 ;;                  4    0[BANK0 ] unsigned char 
  2585 ;; Registers used:
  2586 ;;		wreg, status,2, status,0, btemp+1, pclath, cstack
  2587 ;; Tracked objects:
  2588 ;;		On entry : 0/0
  2589 ;;		On exit  : 0/0
  2590 ;;		Unchanged: 0/0
  2591 ;; Data sizes:     COMMON   BANK0   BANK1   BANK3   BANK2
  2592 ;;      Params:         0       8       0       0       0
  2593 ;;      Locals:         0      13       0       0       0
  2594 ;;      Temps:          0       5       0       0       0
  2595 ;;      Totals:         0      26       0       0       0
  2596 ;;Total ram usage:       26 bytes
  2597 ;; Hardware stack levels used: 1
  2598 ;; Hardware stack levels required when called: 1
  2599 ;; This function calls:
  2600 ;;		__Umul8_16
  2601 ;; This function is called by:
  2602 ;;		_ReadADC
  2603 ;; This function uses a non-reentrant model
  2604 ;;
  2605                           
  2606     0031                     ___flmul:	
  2607                           ;psect for function ___flmul
  2608                           
  2609     0031                     i1l1199:	
  2610                           ;incstack = 0
  2611                           ; Regs used in ___flmul: [wreg+status,2+status,0+btemp+1+pclath+cstack]
  2612                           
  2613     0031  1283               	bcf	3,5	;RP0=0, select bank0
  2614     0032  1303               	bcf	3,6	;RP1=0, select bank0
  2615     0033  0823               	movf	___flmul@b+3,w
  2616     0034  3980               	andlw	128
  2617     0035  00AD               	movwf	___flmul@sign
  2618     0036                     i1l1201:
  2619     0036  0823               	movf	___flmul@b+3,w
  2620     0037  00A8               	movwf	??___flmul
  2621     0038  0728               	addwf	??___flmul,w
  2622     0039  00B3               	movwf	___flmul@bexp
  2623     003A                     i1l1203:
  2624     003A  1FA2               	btfss	___flmul@b+2,7
  2625     003B  283D               	goto	u105_21
  2626     003C  283E               	goto	u105_20
  2627     003D                     u105_21:
  2628     003D  283F               	goto	i1l1207
  2629     003E                     u105_20:
  2630     003E                     i1l1205:
  2631     003E  1433               	bsf	___flmul@bexp,0
  2632     003F                     i1l1207:
  2633     003F  0833               	movf	___flmul@bexp,w
  2634     0040  1903               	btfsc	3,2
  2635     0041  2843               	goto	u106_21
  2636     0042  2844               	goto	u106_20
  2637     0043                     u106_21:
  2638     0043  2853               	goto	i1l1215
  2639     0044                     u106_20:
  2640     0044                     i1l1209:
  2641     0044  0A33               	incf	___flmul@bexp,w
  2642     0045  1D03               	btfss	3,2
  2643     0046  2848               	goto	u107_21
  2644     0047  2849               	goto	u107_20
  2645     0048                     u107_21:
  2646     0048  2851               	goto	i1l1213
  2647     0049                     u107_20:
  2648     0049                     i1l1211:
  2649     0049  3000               	movlw	0
  2650     004A  00A3               	movwf	___flmul@b+3
  2651     004B  3000               	movlw	0
  2652     004C  00A2               	movwf	___flmul@b+2
  2653     004D  3000               	movlw	0
  2654     004E  00A1               	movwf	___flmul@b+1
  2655     004F  3000               	movlw	0
  2656     0050  00A0               	movwf	___flmul@b
  2657     0051                     i1l1213:
  2658     0051  17A2               	bsf	___flmul@b+2,7
  2659     0052  285B               	goto	i1l1217
  2660     0053                     i1l1215:
  2661     0053  3000               	movlw	0
  2662     0054  00A3               	movwf	___flmul@b+3
  2663     0055  3000               	movlw	0
  2664     0056  00A2               	movwf	___flmul@b+2
  2665     0057  3000               	movlw	0
  2666     0058  00A1               	movwf	___flmul@b+1
  2667     0059  3000               	movlw	0
  2668     005A  00A0               	movwf	___flmul@b
  2669     005B                     i1l1217:
  2670     005B  0827               	movf	___flmul@a+3,w
  2671     005C  3980               	andlw	128
  2672     005D  00A8               	movwf	??___flmul
  2673     005E  0828               	movf	??___flmul,w
  2674     005F  06AD               	xorwf	___flmul@sign,f
  2675     0060                     i1l1219:
  2676     0060  0827               	movf	___flmul@a+3,w
  2677     0061  00A8               	movwf	??___flmul
  2678     0062  0728               	addwf	??___flmul,w
  2679     0063  00B2               	movwf	___flmul@aexp
  2680     0064                     i1l1221:
  2681     0064  1FA6               	btfss	___flmul@a+2,7
  2682     0065  2867               	goto	u108_21
  2683     0066  2868               	goto	u108_20
  2684     0067                     u108_21:
  2685     0067  2869               	goto	i1l1225
  2686     0068                     u108_20:
  2687     0068                     i1l1223:
  2688     0068  1432               	bsf	___flmul@aexp,0
  2689     0069                     i1l1225:
  2690     0069  0832               	movf	___flmul@aexp,w
  2691     006A  1903               	btfsc	3,2
  2692     006B  286D               	goto	u109_21
  2693     006C  286E               	goto	u109_20
  2694     006D                     u109_21:
  2695     006D  287D               	goto	i1l1233
  2696     006E                     u109_20:
  2697     006E                     i1l1227:
  2698     006E  0A32               	incf	___flmul@aexp,w
  2699     006F  1D03               	btfss	3,2
  2700     0070  2872               	goto	u110_21
  2701     0071  2873               	goto	u110_20
  2702     0072                     u110_21:
  2703     0072  287B               	goto	i1l1231
  2704     0073                     u110_20:
  2705     0073                     i1l1229:
  2706     0073  3000               	movlw	0
  2707     0074  00A7               	movwf	___flmul@a+3
  2708     0075  3000               	movlw	0
  2709     0076  00A6               	movwf	___flmul@a+2
  2710     0077  3000               	movlw	0
  2711     0078  00A5               	movwf	___flmul@a+1
  2712     0079  3000               	movlw	0
  2713     007A  00A4               	movwf	___flmul@a
  2714     007B                     i1l1231:
  2715     007B  17A6               	bsf	___flmul@a+2,7
  2716     007C  2885               	goto	i1l1235
  2717     007D                     i1l1233:
  2718     007D  3000               	movlw	0
  2719     007E  00A7               	movwf	___flmul@a+3
  2720     007F  3000               	movlw	0
  2721     0080  00A6               	movwf	___flmul@a+2
  2722     0081  3000               	movlw	0
  2723     0082  00A5               	movwf	___flmul@a+1
  2724     0083  3000               	movlw	0
  2725     0084  00A4               	movwf	___flmul@a
  2726     0085                     i1l1235:
  2727     0085  0832               	movf	___flmul@aexp,w
  2728     0086  1903               	btfsc	3,2
  2729     0087  2889               	goto	u111_21
  2730     0088  288A               	goto	u111_20
  2731     0089                     u111_21:
  2732     0089  288F               	goto	i1l1239
  2733     008A                     u111_20:
  2734     008A                     i1l1237:
  2735     008A  0833               	movf	___flmul@bexp,w
  2736     008B  1D03               	btfss	3,2
  2737     008C  288E               	goto	u112_21
  2738     008D  288F               	goto	u112_20
  2739     008E                     u112_21:
  2740     008E  2898               	goto	i1l1243
  2741     008F                     u112_20:
  2742     008F                     i1l1239:
  2743     008F  3000               	movlw	0
  2744     0090  00A3               	movwf	?___flmul+3
  2745     0091  3000               	movlw	0
  2746     0092  00A2               	movwf	?___flmul+2
  2747     0093  3000               	movlw	0
  2748     0094  00A1               	movwf	?___flmul+1
  2749     0095  3000               	movlw	0
  2750     0096  00A0               	movwf	?___flmul
  2751     0097  2B75               	goto	i1l576
  2752     0098                     i1l1243:
  2753     0098  0820               	movf	___flmul@b,w
  2754     0099  00F0               	movwf	__Umul8_16@multiplicand
  2755     009A  0826               	movf	___flmul@a+2,w
  2756     009B  120A  158A  27D9  120A  118A  	fcall	__Umul8_16
  2757     00A0  0871               	movf	?__Umul8_16+1,w
  2758     00A1  1283               	bcf	3,5	;RP0=0, select bank0
  2759     00A2  1303               	bcf	3,6	;RP1=0, select bank0
  2760     00A3  00B9               	movwf	___flmul@temp+1
  2761     00A4  0870               	movf	?__Umul8_16,w
  2762     00A5  00B8               	movwf	___flmul@temp
  2763     00A6                     i1l1245:
  2764     00A6  0838               	movf	___flmul@temp,w
  2765     00A7  00A8               	movwf	??___flmul
  2766     00A8  01A9               	clrf	??___flmul+1
  2767     00A9  01AA               	clrf	??___flmul+2
  2768     00AA  01AB               	clrf	??___flmul+3
  2769     00AB  082B               	movf	??___flmul+3,w
  2770     00AC  00B1               	movwf	___flmul@grs+3
  2771     00AD  082A               	movf	??___flmul+2,w
  2772     00AE  00B0               	movwf	___flmul@grs+2
  2773     00AF  0829               	movf	??___flmul+1,w
  2774     00B0  00AF               	movwf	___flmul@grs+1
  2775     00B1  0828               	movf	??___flmul,w
  2776     00B2  00AE               	movwf	___flmul@grs
  2777     00B3                     i1l1247:
  2778     00B3  0839               	movf	___flmul@temp+1,w
  2779     00B4  00A8               	movwf	??___flmul
  2780     00B5  01A9               	clrf	??___flmul+1
  2781     00B6  01AA               	clrf	??___flmul+2
  2782     00B7  01AB               	clrf	??___flmul+3
  2783     00B8  082B               	movf	??___flmul+3,w
  2784     00B9  00B7               	movwf	___flmul@prod+3
  2785     00BA  082A               	movf	??___flmul+2,w
  2786     00BB  00B6               	movwf	___flmul@prod+2
  2787     00BC  0829               	movf	??___flmul+1,w
  2788     00BD  00B5               	movwf	___flmul@prod+1
  2789     00BE  0828               	movf	??___flmul,w
  2790     00BF  00B4               	movwf	___flmul@prod
  2791     00C0  0821               	movf	___flmul@b+1,w
  2792     00C1  00F0               	movwf	__Umul8_16@multiplicand
  2793     00C2  0825               	movf	___flmul@a+1,w
  2794     00C3  120A  158A  27D9  120A  118A  	fcall	__Umul8_16
  2795     00C8  0871               	movf	?__Umul8_16+1,w
  2796     00C9  1283               	bcf	3,5	;RP0=0, select bank0
  2797     00CA  1303               	bcf	3,6	;RP1=0, select bank0
  2798     00CB  00B9               	movwf	___flmul@temp+1
  2799     00CC  0870               	movf	?__Umul8_16,w
  2800     00CD  00B8               	movwf	___flmul@temp
  2801     00CE                     i1l1249:
  2802     00CE  0838               	movf	___flmul@temp,w
  2803     00CF  00A8               	movwf	??___flmul
  2804     00D0  01A9               	clrf	??___flmul+1
  2805     00D1  01AA               	clrf	??___flmul+2
  2806     00D2  01AB               	clrf	??___flmul+3
  2807     00D3  0828               	movf	??___flmul,w
  2808     00D4  07AE               	addwf	___flmul@grs,f
  2809     00D5  0829               	movf	??___flmul+1,w
  2810     00D6  1103               	clrz
  2811     00D7  1803               	skipnc
  2812     00D8  3E01               	addlw	1
  2813     00D9  1903               	skipnz
  2814     00DA  28DC               	goto	u113_21
  2815     00DB  07AF               	addwf	___flmul@grs+1,f
  2816     00DC                     u113_21:
  2817     00DC  082A               	movf	??___flmul+2,w
  2818     00DD  1103               	clrz
  2819     00DE  1803               	skipnc
  2820     00DF  3E01               	addlw	1
  2821     00E0  1903               	skipnz
  2822     00E1  28E3               	goto	u113_22
  2823     00E2  07B0               	addwf	___flmul@grs+2,f
  2824     00E3                     u113_22:
  2825     00E3  082B               	movf	??___flmul+3,w
  2826     00E4  1103               	clrz
  2827     00E5  1803               	skipnc
  2828     00E6  3E01               	addlw	1
  2829     00E7  1903               	skipnz
  2830     00E8  28EA               	goto	u113_23
  2831     00E9  07B1               	addwf	___flmul@grs+3,f
  2832     00EA                     u113_23:
  2833     00EA                     i1l1251:
  2834     00EA  0839               	movf	___flmul@temp+1,w
  2835     00EB  00A8               	movwf	??___flmul
  2836     00EC  01A9               	clrf	??___flmul+1
  2837     00ED  01AA               	clrf	??___flmul+2
  2838     00EE  01AB               	clrf	??___flmul+3
  2839     00EF  0828               	movf	??___flmul,w
  2840     00F0  07B4               	addwf	___flmul@prod,f
  2841     00F1  0829               	movf	??___flmul+1,w
  2842     00F2  1103               	clrz
  2843     00F3  1803               	skipnc
  2844     00F4  3E01               	addlw	1
  2845     00F5  1903               	skipnz
  2846     00F6  28F8               	goto	u114_21
  2847     00F7  07B5               	addwf	___flmul@prod+1,f
  2848     00F8                     u114_21:
  2849     00F8  082A               	movf	??___flmul+2,w
  2850     00F9  1103               	clrz
  2851     00FA  1803               	skipnc
  2852     00FB  3E01               	addlw	1
  2853     00FC  1903               	skipnz
  2854     00FD  28FF               	goto	u114_22
  2855     00FE  07B6               	addwf	___flmul@prod+2,f
  2856     00FF                     u114_22:
  2857     00FF  082B               	movf	??___flmul+3,w
  2858     0100  1103               	clrz
  2859     0101  1803               	skipnc
  2860     0102  3E01               	addlw	1
  2861     0103  1903               	skipnz
  2862     0104  2906               	goto	u114_23
  2863     0105  07B7               	addwf	___flmul@prod+3,f
  2864     0106                     u114_23:
  2865     0106  0822               	movf	___flmul@b+2,w
  2866     0107  00F0               	movwf	__Umul8_16@multiplicand
  2867     0108  0824               	movf	___flmul@a,w
  2868     0109  120A  158A  27D9  120A  118A  	fcall	__Umul8_16
  2869     010E  0871               	movf	?__Umul8_16+1,w
  2870     010F  1283               	bcf	3,5	;RP0=0, select bank0
  2871     0110  1303               	bcf	3,6	;RP1=0, select bank0
  2872     0111  00B9               	movwf	___flmul@temp+1
  2873     0112  0870               	movf	?__Umul8_16,w
  2874     0113  00B8               	movwf	___flmul@temp
  2875     0114                     i1l1253:
  2876     0114  0838               	movf	___flmul@temp,w
  2877     0115  00A8               	movwf	??___flmul
  2878     0116  01A9               	clrf	??___flmul+1
  2879     0117  01AA               	clrf	??___flmul+2
  2880     0118  01AB               	clrf	??___flmul+3
  2881     0119  0828               	movf	??___flmul,w
  2882     011A  07AE               	addwf	___flmul@grs,f
  2883     011B  0829               	movf	??___flmul+1,w
  2884     011C  1103               	clrz
  2885     011D  1803               	skipnc
  2886     011E  3E01               	addlw	1
  2887     011F  1903               	skipnz
  2888     0120  2922               	goto	u115_21
  2889     0121  07AF               	addwf	___flmul@grs+1,f
  2890     0122                     u115_21:
  2891     0122  082A               	movf	??___flmul+2,w
  2892     0123  1103               	clrz
  2893     0124  1803               	skipnc
  2894     0125  3E01               	addlw	1
  2895     0126  1903               	skipnz
  2896     0127  2929               	goto	u115_22
  2897     0128  07B0               	addwf	___flmul@grs+2,f
  2898     0129                     u115_22:
  2899     0129  082B               	movf	??___flmul+3,w
  2900     012A  1103               	clrz
  2901     012B  1803               	skipnc
  2902     012C  3E01               	addlw	1
  2903     012D  1903               	skipnz
  2904     012E  2930               	goto	u115_23
  2905     012F  07B1               	addwf	___flmul@grs+3,f
  2906     0130                     u115_23:
  2907     0130                     i1l1255:
  2908     0130  0839               	movf	___flmul@temp+1,w
  2909     0131  00A8               	movwf	??___flmul
  2910     0132  01A9               	clrf	??___flmul+1
  2911     0133  01AA               	clrf	??___flmul+2
  2912     0134  01AB               	clrf	??___flmul+3
  2913     0135  0828               	movf	??___flmul,w
  2914     0136  07B4               	addwf	___flmul@prod,f
  2915     0137  0829               	movf	??___flmul+1,w
  2916     0138  1103               	clrz
  2917     0139  1803               	skipnc
  2918     013A  3E01               	addlw	1
  2919     013B  1903               	skipnz
  2920     013C  293E               	goto	u116_21
  2921     013D  07B5               	addwf	___flmul@prod+1,f
  2922     013E                     u116_21:
  2923     013E  082A               	movf	??___flmul+2,w
  2924     013F  1103               	clrz
  2925     0140  1803               	skipnc
  2926     0141  3E01               	addlw	1
  2927     0142  1903               	skipnz
  2928     0143  2945               	goto	u116_22
  2929     0144  07B6               	addwf	___flmul@prod+2,f
  2930     0145                     u116_22:
  2931     0145  082B               	movf	??___flmul+3,w
  2932     0146  1103               	clrz
  2933     0147  1803               	skipnc
  2934     0148  3E01               	addlw	1
  2935     0149  1903               	skipnz
  2936     014A  294C               	goto	u116_23
  2937     014B  07B7               	addwf	___flmul@prod+3,f
  2938     014C                     u116_23:
  2939     014C                     i1l1257:
  2940     014C  3008               	movlw	8
  2941     014D  00A8               	movwf	??___flmul
  2942     014E                     u117_25:
  2943     014E  1003               	clrc
  2944     014F  0DAE               	rlf	___flmul@grs,f
  2945     0150  0DAF               	rlf	___flmul@grs+1,f
  2946     0151  0DB0               	rlf	___flmul@grs+2,f
  2947     0152  0DB1               	rlf	___flmul@grs+3,f
  2948     0153  0BA8               	decfsz	??___flmul,f
  2949     0154  294E               	goto	u117_25
  2950     0155                     i1l1259:
  2951     0155  0821               	movf	___flmul@b+1,w
  2952     0156  00F0               	movwf	__Umul8_16@multiplicand
  2953     0157  0824               	movf	___flmul@a,w
  2954     0158  120A  158A  27D9  120A  118A  	fcall	__Umul8_16
  2955     015D  0871               	movf	?__Umul8_16+1,w
  2956     015E  1283               	bcf	3,5	;RP0=0, select bank0
  2957     015F  1303               	bcf	3,6	;RP1=0, select bank0
  2958     0160  00B9               	movwf	___flmul@temp+1
  2959     0161  0870               	movf	?__Umul8_16,w
  2960     0162  00B8               	movwf	___flmul@temp
  2961     0163                     i1l1261:
  2962     0163  0838               	movf	___flmul@temp,w
  2963     0164  00A8               	movwf	??___flmul
  2964     0165  0839               	movf	___flmul@temp+1,w
  2965     0166  00A9               	movwf	??___flmul+1
  2966     0167  01AA               	clrf	??___flmul+2
  2967     0168  01AB               	clrf	??___flmul+3
  2968     0169  0828               	movf	??___flmul,w
  2969     016A  07AE               	addwf	___flmul@grs,f
  2970     016B  0829               	movf	??___flmul+1,w
  2971     016C  1103               	clrz
  2972     016D  1803               	skipnc
  2973     016E  3E01               	addlw	1
  2974     016F  1903               	skipnz
  2975     0170  2972               	goto	u118_21
  2976     0171  07AF               	addwf	___flmul@grs+1,f
  2977     0172                     u118_21:
  2978     0172  082A               	movf	??___flmul+2,w
  2979     0173  1103               	clrz
  2980     0174  1803               	skipnc
  2981     0175  3E01               	addlw	1
  2982     0176  1903               	skipnz
  2983     0177  2979               	goto	u118_22
  2984     0178  07B0               	addwf	___flmul@grs+2,f
  2985     0179                     u118_22:
  2986     0179  082B               	movf	??___flmul+3,w
  2987     017A  1103               	clrz
  2988     017B  1803               	skipnc
  2989     017C  3E01               	addlw	1
  2990     017D  1903               	skipnz
  2991     017E  2980               	goto	u118_23
  2992     017F  07B1               	addwf	___flmul@grs+3,f
  2993     0180                     u118_23:
  2994     0180                     i1l1263:
  2995     0180  0820               	movf	___flmul@b,w
  2996     0181  00F0               	movwf	__Umul8_16@multiplicand
  2997     0182  0825               	movf	___flmul@a+1,w
  2998     0183  120A  158A  27D9  120A  118A  	fcall	__Umul8_16
  2999     0188  0871               	movf	?__Umul8_16+1,w
  3000     0189  1283               	bcf	3,5	;RP0=0, select bank0
  3001     018A  1303               	bcf	3,6	;RP1=0, select bank0
  3002     018B  00B9               	movwf	___flmul@temp+1
  3003     018C  0870               	movf	?__Umul8_16,w
  3004     018D  00B8               	movwf	___flmul@temp
  3005     018E                     i1l1265:
  3006     018E  0838               	movf	___flmul@temp,w
  3007     018F  00A8               	movwf	??___flmul
  3008     0190  0839               	movf	___flmul@temp+1,w
  3009     0191  00A9               	movwf	??___flmul+1
  3010     0192  01AA               	clrf	??___flmul+2
  3011     0193  01AB               	clrf	??___flmul+3
  3012     0194  0828               	movf	??___flmul,w
  3013     0195  07AE               	addwf	___flmul@grs,f
  3014     0196  0829               	movf	??___flmul+1,w
  3015     0197  1103               	clrz
  3016     0198  1803               	skipnc
  3017     0199  3E01               	addlw	1
  3018     019A  1903               	skipnz
  3019     019B  299D               	goto	u119_21
  3020     019C  07AF               	addwf	___flmul@grs+1,f
  3021     019D                     u119_21:
  3022     019D  082A               	movf	??___flmul+2,w
  3023     019E  1103               	clrz
  3024     019F  1803               	skipnc
  3025     01A0  3E01               	addlw	1
  3026     01A1  1903               	skipnz
  3027     01A2  29A4               	goto	u119_22
  3028     01A3  07B0               	addwf	___flmul@grs+2,f
  3029     01A4                     u119_22:
  3030     01A4  082B               	movf	??___flmul+3,w
  3031     01A5  1103               	clrz
  3032     01A6  1803               	skipnc
  3033     01A7  3E01               	addlw	1
  3034     01A8  1903               	skipnz
  3035     01A9  29AB               	goto	u119_23
  3036     01AA  07B1               	addwf	___flmul@grs+3,f
  3037     01AB                     u119_23:
  3038     01AB                     i1l1267:
  3039     01AB  3008               	movlw	8
  3040     01AC  00A8               	movwf	??___flmul
  3041     01AD                     u120_25:
  3042     01AD  1003               	clrc
  3043     01AE  0DAE               	rlf	___flmul@grs,f
  3044     01AF  0DAF               	rlf	___flmul@grs+1,f
  3045     01B0  0DB0               	rlf	___flmul@grs+2,f
  3046     01B1  0DB1               	rlf	___flmul@grs+3,f
  3047     01B2  0BA8               	decfsz	??___flmul,f
  3048     01B3  29AD               	goto	u120_25
  3049     01B4  0820               	movf	___flmul@b,w
  3050     01B5  00F0               	movwf	__Umul8_16@multiplicand
  3051     01B6  0824               	movf	___flmul@a,w
  3052     01B7  120A  158A  27D9  120A  118A  	fcall	__Umul8_16
  3053     01BC  0871               	movf	?__Umul8_16+1,w
  3054     01BD  1283               	bcf	3,5	;RP0=0, select bank0
  3055     01BE  1303               	bcf	3,6	;RP1=0, select bank0
  3056     01BF  00B9               	movwf	___flmul@temp+1
  3057     01C0  0870               	movf	?__Umul8_16,w
  3058     01C1  00B8               	movwf	___flmul@temp
  3059     01C2                     i1l1269:
  3060     01C2  0838               	movf	___flmul@temp,w
  3061     01C3  00A8               	movwf	??___flmul
  3062     01C4  0839               	movf	___flmul@temp+1,w
  3063     01C5  00A9               	movwf	??___flmul+1
  3064     01C6  01AA               	clrf	??___flmul+2
  3065     01C7  01AB               	clrf	??___flmul+3
  3066     01C8  0828               	movf	??___flmul,w
  3067     01C9  07AE               	addwf	___flmul@grs,f
  3068     01CA  0829               	movf	??___flmul+1,w
  3069     01CB  1103               	clrz
  3070     01CC  1803               	skipnc
  3071     01CD  3E01               	addlw	1
  3072     01CE  1903               	skipnz
  3073     01CF  29D1               	goto	u121_21
  3074     01D0  07AF               	addwf	___flmul@grs+1,f
  3075     01D1                     u121_21:
  3076     01D1  082A               	movf	??___flmul+2,w
  3077     01D2  1103               	clrz
  3078     01D3  1803               	skipnc
  3079     01D4  3E01               	addlw	1
  3080     01D5  1903               	skipnz
  3081     01D6  29D8               	goto	u121_22
  3082     01D7  07B0               	addwf	___flmul@grs+2,f
  3083     01D8                     u121_22:
  3084     01D8  082B               	movf	??___flmul+3,w
  3085     01D9  1103               	clrz
  3086     01DA  1803               	skipnc
  3087     01DB  3E01               	addlw	1
  3088     01DC  1903               	skipnz
  3089     01DD  29DF               	goto	u121_23
  3090     01DE  07B1               	addwf	___flmul@grs+3,f
  3091     01DF                     u121_23:
  3092     01DF                     i1l1271:
  3093     01DF  0821               	movf	___flmul@b+1,w
  3094     01E0  00F0               	movwf	__Umul8_16@multiplicand
  3095     01E1  0826               	movf	___flmul@a+2,w
  3096     01E2  120A  158A  27D9  120A  118A  	fcall	__Umul8_16
  3097     01E7  0871               	movf	?__Umul8_16+1,w
  3098     01E8  1283               	bcf	3,5	;RP0=0, select bank0
  3099     01E9  1303               	bcf	3,6	;RP1=0, select bank0
  3100     01EA  00B9               	movwf	___flmul@temp+1
  3101     01EB  0870               	movf	?__Umul8_16,w
  3102     01EC  00B8               	movwf	___flmul@temp
  3103     01ED  0838               	movf	___flmul@temp,w
  3104     01EE  00A8               	movwf	??___flmul
  3105     01EF  0839               	movf	___flmul@temp+1,w
  3106     01F0  00A9               	movwf	??___flmul+1
  3107     01F1  01AA               	clrf	??___flmul+2
  3108     01F2  01AB               	clrf	??___flmul+3
  3109     01F3  0828               	movf	??___flmul,w
  3110     01F4  07B4               	addwf	___flmul@prod,f
  3111     01F5  0829               	movf	??___flmul+1,w
  3112     01F6  1103               	clrz
  3113     01F7  1803               	skipnc
  3114     01F8  3E01               	addlw	1
  3115     01F9  1903               	skipnz
  3116     01FA  29FC               	goto	u122_21
  3117     01FB  07B5               	addwf	___flmul@prod+1,f
  3118     01FC                     u122_21:
  3119     01FC  082A               	movf	??___flmul+2,w
  3120     01FD  1103               	clrz
  3121     01FE  1803               	skipnc
  3122     01FF  3E01               	addlw	1
  3123     0200  1903               	skipnz
  3124     0201  2A03               	goto	u122_22
  3125     0202  07B6               	addwf	___flmul@prod+2,f
  3126     0203                     u122_22:
  3127     0203  082B               	movf	??___flmul+3,w
  3128     0204  1103               	clrz
  3129     0205  1803               	skipnc
  3130     0206  3E01               	addlw	1
  3131     0207  1903               	skipnz
  3132     0208  2A0A               	goto	u122_23
  3133     0209  07B7               	addwf	___flmul@prod+3,f
  3134     020A                     u122_23:
  3135     020A                     i1l1273:
  3136     020A  0822               	movf	___flmul@b+2,w
  3137     020B  00F0               	movwf	__Umul8_16@multiplicand
  3138     020C  0825               	movf	___flmul@a+1,w
  3139     020D  120A  158A  27D9  120A  118A  	fcall	__Umul8_16
  3140     0212  0871               	movf	?__Umul8_16+1,w
  3141     0213  1283               	bcf	3,5	;RP0=0, select bank0
  3142     0214  1303               	bcf	3,6	;RP1=0, select bank0
  3143     0215  00B9               	movwf	___flmul@temp+1
  3144     0216  0870               	movf	?__Umul8_16,w
  3145     0217  00B8               	movwf	___flmul@temp
  3146     0218                     i1l1275:
  3147     0218  0838               	movf	___flmul@temp,w
  3148     0219  00A8               	movwf	??___flmul
  3149     021A  0839               	movf	___flmul@temp+1,w
  3150     021B  00A9               	movwf	??___flmul+1
  3151     021C  01AA               	clrf	??___flmul+2
  3152     021D  01AB               	clrf	??___flmul+3
  3153     021E  0828               	movf	??___flmul,w
  3154     021F  07B4               	addwf	___flmul@prod,f
  3155     0220  0829               	movf	??___flmul+1,w
  3156     0221  1103               	clrz
  3157     0222  1803               	skipnc
  3158     0223  3E01               	addlw	1
  3159     0224  1903               	skipnz
  3160     0225  2A27               	goto	u123_21
  3161     0226  07B5               	addwf	___flmul@prod+1,f
  3162     0227                     u123_21:
  3163     0227  082A               	movf	??___flmul+2,w
  3164     0228  1103               	clrz
  3165     0229  1803               	skipnc
  3166     022A  3E01               	addlw	1
  3167     022B  1903               	skipnz
  3168     022C  2A2E               	goto	u123_22
  3169     022D  07B6               	addwf	___flmul@prod+2,f
  3170     022E                     u123_22:
  3171     022E  082B               	movf	??___flmul+3,w
  3172     022F  1103               	clrz
  3173     0230  1803               	skipnc
  3174     0231  3E01               	addlw	1
  3175     0232  1903               	skipnz
  3176     0233  2A35               	goto	u123_23
  3177     0234  07B7               	addwf	___flmul@prod+3,f
  3178     0235                     u123_23:
  3179     0235  0822               	movf	___flmul@b+2,w
  3180     0236  00F0               	movwf	__Umul8_16@multiplicand
  3181     0237  0826               	movf	___flmul@a+2,w
  3182     0238  120A  158A  27D9  120A  118A  	fcall	__Umul8_16
  3183     023D  0871               	movf	?__Umul8_16+1,w
  3184     023E  1283               	bcf	3,5	;RP0=0, select bank0
  3185     023F  1303               	bcf	3,6	;RP1=0, select bank0
  3186     0240  00B9               	movwf	___flmul@temp+1
  3187     0241  0870               	movf	?__Umul8_16,w
  3188     0242  00B8               	movwf	___flmul@temp
  3189     0243                     i1l1277:
  3190     0243  0838               	movf	___flmul@temp,w
  3191     0244  00A8               	movwf	??___flmul
  3192     0245  0839               	movf	___flmul@temp+1,w
  3193     0246  00A9               	movwf	??___flmul+1
  3194     0247  01AA               	clrf	??___flmul+2
  3195     0248  01AB               	clrf	??___flmul+3
  3196     0249  3008               	movlw	8
  3197     024A                     u124_25:
  3198     024A  1003               	clrc
  3199     024B  0DA8               	rlf	??___flmul,f
  3200     024C  0DA9               	rlf	??___flmul+1,f
  3201     024D  0DAA               	rlf	??___flmul+2,f
  3202     024E  0DAB               	rlf	??___flmul+3,f
  3203     024F                     u124_20:
  3204     024F  3EFF               	addlw	-1
  3205     0250  1D03               	skipz
  3206     0251  2A4A               	goto	u124_25
  3207     0252  0828               	movf	??___flmul,w
  3208     0253  07B4               	addwf	___flmul@prod,f
  3209     0254  0829               	movf	??___flmul+1,w
  3210     0255  1103               	clrz
  3211     0256  1803               	skipnc
  3212     0257  3E01               	addlw	1
  3213     0258  1903               	skipnz
  3214     0259  2A5B               	goto	u125_21
  3215     025A  07B5               	addwf	___flmul@prod+1,f
  3216     025B                     u125_21:
  3217     025B  082A               	movf	??___flmul+2,w
  3218     025C  1103               	clrz
  3219     025D  1803               	skipnc
  3220     025E  3E01               	addlw	1
  3221     025F  1903               	skipnz
  3222     0260  2A62               	goto	u125_22
  3223     0261  07B6               	addwf	___flmul@prod+2,f
  3224     0262                     u125_22:
  3225     0262  082B               	movf	??___flmul+3,w
  3226     0263  1103               	clrz
  3227     0264  1803               	skipnc
  3228     0265  3E01               	addlw	1
  3229     0266  1903               	skipnz
  3230     0267  2A69               	goto	u125_23
  3231     0268  07B7               	addwf	___flmul@prod+3,f
  3232     0269                     u125_23:
  3233     0269                     i1l1279:
  3234     0269  082E               	movf	___flmul@grs,w
  3235     026A  00A8               	movwf	??___flmul
  3236     026B  082F               	movf	___flmul@grs+1,w
  3237     026C  00A9               	movwf	??___flmul+1
  3238     026D  0830               	movf	___flmul@grs+2,w
  3239     026E  00AA               	movwf	??___flmul+2
  3240     026F  0831               	movf	___flmul@grs+3,w
  3241     0270  00AB               	movwf	??___flmul+3
  3242     0271  3018               	movlw	24
  3243     0272                     u126_25:
  3244     0272  1003               	clrc
  3245     0273  0CAB               	rrf	??___flmul+3,f
  3246     0274  0CAA               	rrf	??___flmul+2,f
  3247     0275  0CA9               	rrf	??___flmul+1,f
  3248     0276  0CA8               	rrf	??___flmul,f
  3249     0277                     u126_20:
  3250     0277  3EFF               	addlw	-1
  3251     0278  1D03               	skipz
  3252     0279  2A72               	goto	u126_25
  3253     027A  0828               	movf	??___flmul,w
  3254     027B  07B4               	addwf	___flmul@prod,f
  3255     027C  0829               	movf	??___flmul+1,w
  3256     027D  1103               	clrz
  3257     027E  1803               	skipnc
  3258     027F  3E01               	addlw	1
  3259     0280  1903               	skipnz
  3260     0281  2A83               	goto	u127_21
  3261     0282  07B5               	addwf	___flmul@prod+1,f
  3262     0283                     u127_21:
  3263     0283  082A               	movf	??___flmul+2,w
  3264     0284  1103               	clrz
  3265     0285  1803               	skipnc
  3266     0286  3E01               	addlw	1
  3267     0287  1903               	skipnz
  3268     0288  2A8A               	goto	u127_22
  3269     0289  07B6               	addwf	___flmul@prod+2,f
  3270     028A                     u127_22:
  3271     028A  082B               	movf	??___flmul+3,w
  3272     028B  1103               	clrz
  3273     028C  1803               	skipnc
  3274     028D  3E01               	addlw	1
  3275     028E  1903               	skipnz
  3276     028F  2A91               	goto	u127_23
  3277     0290  07B7               	addwf	___flmul@prod+3,f
  3278     0291                     u127_23:
  3279     0291                     i1l1281:
  3280     0291  3008               	movlw	8
  3281     0292  00A8               	movwf	??___flmul
  3282     0293                     u128_25:
  3283     0293  1003               	clrc
  3284     0294  0DAE               	rlf	___flmul@grs,f
  3285     0295  0DAF               	rlf	___flmul@grs+1,f
  3286     0296  0DB0               	rlf	___flmul@grs+2,f
  3287     0297  0DB1               	rlf	___flmul@grs+3,f
  3288     0298  0BA8               	decfsz	??___flmul,f
  3289     0299  2A93               	goto	u128_25
  3290     029A                     i1l1283:
  3291     029A  0833               	movf	___flmul@bexp,w
  3292     029B  0732               	addwf	___flmul@aexp,w
  3293     029C  00A8               	movwf	??___flmul
  3294     029D  01A9               	clrf	??___flmul+1
  3295     029E  0DA9               	rlf	??___flmul+1,f
  3296     029F  0828               	movf	??___flmul,w
  3297     02A0  3E82               	addlw	130
  3298     02A1  00B8               	movwf	___flmul@temp
  3299     02A2  0829               	movf	??___flmul+1,w
  3300     02A3  1803               	skipnc
  3301     02A4  3E01               	addlw	1
  3302     02A5  3EFF               	addlw	255
  3303     02A6  00B9               	movwf	___flmul@temp+1
  3304     02A7  2AC5               	goto	i1l1295
  3305     02A8                     i1l1285:
  3306     02A8  3001               	movlw	1
  3307     02A9  00A8               	movwf	??___flmul
  3308     02AA                     u129_25:
  3309     02AA  1003               	clrc
  3310     02AB  0DB4               	rlf	___flmul@prod,f
  3311     02AC  0DB5               	rlf	___flmul@prod+1,f
  3312     02AD  0DB6               	rlf	___flmul@prod+2,f
  3313     02AE  0DB7               	rlf	___flmul@prod+3,f
  3314     02AF  0BA8               	decfsz	??___flmul,f
  3315     02B0  2AAA               	goto	u129_25
  3316     02B1                     i1l1287:
  3317     02B1  1FB1               	btfss	___flmul@grs+3,7
  3318     02B2  2AB4               	goto	u130_21
  3319     02B3  2AB5               	goto	u130_20
  3320     02B4                     u130_21:
  3321     02B4  2AB6               	goto	i1l1291
  3322     02B5                     u130_20:
  3323     02B5                     i1l1289:
  3324     02B5  1434               	bsf	___flmul@prod,0
  3325     02B6                     i1l1291:
  3326     02B6  3001               	movlw	1
  3327     02B7  00A8               	movwf	??___flmul
  3328     02B8                     u131_25:
  3329     02B8  1003               	clrc
  3330     02B9  0DAE               	rlf	___flmul@grs,f
  3331     02BA  0DAF               	rlf	___flmul@grs+1,f
  3332     02BB  0DB0               	rlf	___flmul@grs+2,f
  3333     02BC  0DB1               	rlf	___flmul@grs+3,f
  3334     02BD  0BA8               	decfsz	??___flmul,f
  3335     02BE  2AB8               	goto	u131_25
  3336     02BF                     i1l1293:
  3337     02BF  30FF               	movlw	255
  3338     02C0  07B8               	addwf	___flmul@temp,f
  3339     02C1  1803               	skipnc
  3340     02C2  0AB9               	incf	___flmul@temp+1,f
  3341     02C3  30FF               	movlw	255
  3342     02C4  07B9               	addwf	___flmul@temp+1,f
  3343     02C5                     i1l1295:
  3344     02C5  1FB6               	btfss	___flmul@prod+2,7
  3345     02C6  2AC8               	goto	u132_21
  3346     02C7  2AC9               	goto	u132_20
  3347     02C8                     u132_21:
  3348     02C8  2AA8               	goto	i1l1285
  3349     02C9                     u132_20:
  3350     02C9                     i1l1297:
  3351     02C9  01B2               	clrf	___flmul@aexp
  3352     02CA                     i1l1299:
  3353     02CA  1FB1               	btfss	___flmul@grs+3,7
  3354     02CB  2ACD               	goto	u133_21
  3355     02CC  2ACE               	goto	u133_20
  3356     02CD                     u133_21:
  3357     02CD  2AEA               	goto	i1l1307
  3358     02CE                     u133_20:
  3359     02CE                     i1l1301:
  3360     02CE  30FF               	movlw	255
  3361     02CF  052E               	andwf	___flmul@grs,w
  3362     02D0  00A8               	movwf	??___flmul
  3363     02D1  30FF               	movlw	255
  3364     02D2  052F               	andwf	___flmul@grs+1,w
  3365     02D3  00A9               	movwf	??___flmul+1
  3366     02D4  30FF               	movlw	255
  3367     02D5  0530               	andwf	___flmul@grs+2,w
  3368     02D6  00AA               	movwf	??___flmul+2
  3369     02D7  307F               	movlw	127
  3370     02D8  0531               	andwf	___flmul@grs+3,w
  3371     02D9  00AB               	movwf	??___flmul+3
  3372     02DA  082B               	movf	??___flmul+3,w
  3373     02DB  042A               	iorwf	??___flmul+2,w
  3374     02DC  0429               	iorwf	??___flmul+1,w
  3375     02DD  0428               	iorwf	??___flmul,w
  3376     02DE  1903               	skipnz
  3377     02DF  2AE1               	goto	u134_21
  3378     02E0  2AE2               	goto	u134_20
  3379     02E1                     u134_21:
  3380     02E1  2AE5               	goto	i1l582
  3381     02E2                     u134_20:
  3382     02E2                     i1l1303:
  3383     02E2  01B2               	clrf	___flmul@aexp
  3384     02E3  0AB2               	incf	___flmul@aexp,f
  3385     02E4  2AEA               	goto	i1l1307
  3386     02E5                     i1l582:
  3387     02E5  1C34               	btfss	___flmul@prod,0
  3388     02E6  2AE8               	goto	u135_21
  3389     02E7  2AE9               	goto	u135_20
  3390     02E8                     u135_21:
  3391     02E8  2AEA               	goto	i1l1307
  3392     02E9                     u135_20:
  3393     02E9  2AE2               	goto	i1l1303
  3394     02EA                     i1l1307:
  3395     02EA  0832               	movf	___flmul@aexp,w
  3396     02EB  1903               	btfsc	3,2
  3397     02EC  2AEE               	goto	u136_21
  3398     02ED  2AEF               	goto	u136_20
  3399     02EE                     u136_21:
  3400     02EE  2B20               	goto	i1l1317
  3401     02EF                     u136_20:
  3402     02EF                     i1l1309:
  3403     02EF  3001               	movlw	1
  3404     02F0  07B4               	addwf	___flmul@prod,f
  3405     02F1  3000               	movlw	0
  3406     02F2  1803               	skipnc
  3407     02F3  3001               	movlw	1
  3408     02F4  07B5               	addwf	___flmul@prod+1,f
  3409     02F5  3000               	movlw	0
  3410     02F6  1803               	skipnc
  3411     02F7  3001               	movlw	1
  3412     02F8  07B6               	addwf	___flmul@prod+2,f
  3413     02F9  3000               	movlw	0
  3414     02FA  1803               	skipnc
  3415     02FB  3001               	movlw	1
  3416     02FC  07B7               	addwf	___flmul@prod+3,f
  3417     02FD                     i1l1311:
  3418     02FD  1C37               	btfss	___flmul@prod+3,0
  3419     02FE  2B00               	goto	u137_21
  3420     02FF  2B01               	goto	u137_20
  3421     0300                     u137_21:
  3422     0300  2B20               	goto	i1l1317
  3423     0301                     u137_20:
  3424     0301                     i1l1313:
  3425     0301  0834               	movf	___flmul@prod,w
  3426     0302  00A8               	movwf	??___flmul
  3427     0303  0835               	movf	___flmul@prod+1,w
  3428     0304  00A9               	movwf	??___flmul+1
  3429     0305  0836               	movf	___flmul@prod+2,w
  3430     0306  00AA               	movwf	??___flmul+2
  3431     0307  0837               	movf	___flmul@prod+3,w
  3432     0308  00AB               	movwf	??___flmul+3
  3433     0309  3001               	movlw	1
  3434     030A  00AC               	movwf	??___flmul+4
  3435     030B                     u138_25:
  3436     030B  0D2B               	rlf	??___flmul+3,w
  3437     030C  0CAB               	rrf	??___flmul+3,f
  3438     030D  0CAA               	rrf	??___flmul+2,f
  3439     030E  0CA9               	rrf	??___flmul+1,f
  3440     030F  0CA8               	rrf	??___flmul,f
  3441     0310                     u138_20:
  3442     0310  0BAC               	decfsz	??___flmul+4,f
  3443     0311  2B0B               	goto	u138_25
  3444     0312  082B               	movf	??___flmul+3,w
  3445     0313  00B7               	movwf	___flmul@prod+3
  3446     0314  082A               	movf	??___flmul+2,w
  3447     0315  00B6               	movwf	___flmul@prod+2
  3448     0316  0829               	movf	??___flmul+1,w
  3449     0317  00B5               	movwf	___flmul@prod+1
  3450     0318  0828               	movf	??___flmul,w
  3451     0319  00B4               	movwf	___flmul@prod
  3452     031A                     i1l1315:
  3453     031A  3001               	movlw	1
  3454     031B  07B8               	addwf	___flmul@temp,f
  3455     031C  1803               	skipnc
  3456     031D  0AB9               	incf	___flmul@temp+1,f
  3457     031E  3000               	movlw	0
  3458     031F  07B9               	addwf	___flmul@temp+1,f
  3459     0320                     i1l1317:
  3460     0320  0839               	movf	___flmul@temp+1,w
  3461     0321  3A80               	xorlw	128
  3462     0322  00FF               	movwf	btemp+1
  3463     0323  3080               	movlw	128
  3464     0324  027F               	subwf	btemp+1,w
  3465     0325  1D03               	skipz
  3466     0326  2B29               	goto	u139_25
  3467     0327  30FF               	movlw	255
  3468     0328  0238               	subwf	___flmul@temp,w
  3469     0329                     u139_25:
  3470     0329  1C03               	skipc
  3471     032A  2B2C               	goto	u139_21
  3472     032B  2B2D               	goto	u139_20
  3473     032C                     u139_21:
  3474     032C  2B38               	goto	i1l1321
  3475     032D                     u139_20:
  3476     032D                     i1l1319:
  3477     032D  307F               	movlw	127
  3478     032E  1283               	bcf	3,5	;RP0=0, select bank0
  3479     032F  1303               	bcf	3,6	;RP1=0, select bank0
  3480     0330  00B7               	movwf	___flmul@prod+3
  3481     0331  3080               	movlw	128
  3482     0332  00B6               	movwf	___flmul@prod+2
  3483     0333  3000               	movlw	0
  3484     0334  00B5               	movwf	___flmul@prod+1
  3485     0335  3000               	movlw	0
  3486     0336  00B4               	movwf	___flmul@prod
  3487     0337  2B69               	goto	i1l588
  3488     0338                     i1l1321:
  3489     0338  1283               	bcf	3,5	;RP0=0, select bank0
  3490     0339  1303               	bcf	3,6	;RP1=0, select bank0
  3491     033A  0839               	movf	___flmul@temp+1,w
  3492     033B  3A80               	xorlw	128
  3493     033C  00FF               	movwf	btemp+1
  3494     033D  3080               	movlw	128
  3495     033E  027F               	subwf	btemp+1,w
  3496     033F  1D03               	skipz
  3497     0340  2B43               	goto	u140_25
  3498     0341  3001               	movlw	1
  3499     0342  0238               	subwf	___flmul@temp,w
  3500     0343                     u140_25:
  3501     0343  1803               	skipnc
  3502     0344  2B46               	goto	u140_21
  3503     0345  2B47               	goto	u140_20
  3504     0346                     u140_21:
  3505     0346  2B53               	goto	i1l1327
  3506     0347                     u140_20:
  3507     0347                     i1l1323:
  3508     0347  3000               	movlw	0
  3509     0348  1283               	bcf	3,5	;RP0=0, select bank0
  3510     0349  1303               	bcf	3,6	;RP1=0, select bank0
  3511     034A  00B7               	movwf	___flmul@prod+3
  3512     034B  3000               	movlw	0
  3513     034C  00B6               	movwf	___flmul@prod+2
  3514     034D  3000               	movlw	0
  3515     034E  00B5               	movwf	___flmul@prod+1
  3516     034F  3000               	movlw	0
  3517     0350  00B4               	movwf	___flmul@prod
  3518     0351                     i1l1325:
  3519     0351  01AD               	clrf	___flmul@sign
  3520     0352  2B69               	goto	i1l588
  3521     0353                     i1l1327:
  3522     0353  1283               	bcf	3,5	;RP0=0, select bank0
  3523     0354  1303               	bcf	3,6	;RP1=0, select bank0
  3524     0355  0838               	movf	___flmul@temp,w
  3525     0356  00B3               	movwf	___flmul@bexp
  3526     0357  30FF               	movlw	255
  3527     0358  05B4               	andwf	___flmul@prod,f
  3528     0359  30FF               	movlw	255
  3529     035A  05B5               	andwf	___flmul@prod+1,f
  3530     035B  307F               	movlw	127
  3531     035C  05B6               	andwf	___flmul@prod+2,f
  3532     035D  3000               	movlw	0
  3533     035E  05B7               	andwf	___flmul@prod+3,f
  3534     035F                     i1l1329:
  3535     035F  1C33               	btfss	___flmul@bexp,0
  3536     0360  2B62               	goto	u141_21
  3537     0361  2B63               	goto	u141_20
  3538     0362                     u141_21:
  3539     0362  2B64               	goto	i1l1333
  3540     0363                     u141_20:
  3541     0363                     i1l1331:
  3542     0363  17B6               	bsf	___flmul@prod+2,7
  3543     0364                     i1l1333:
  3544     0364  0833               	movf	___flmul@bexp,w
  3545     0365  00A8               	movwf	??___flmul
  3546     0366  1003               	clrc
  3547     0367  0C28               	rrf	??___flmul,w
  3548     0368  00B7               	movwf	___flmul@prod+3
  3549     0369                     i1l588:
  3550     0369  082D               	movf	___flmul@sign,w
  3551     036A  00A8               	movwf	??___flmul
  3552     036B  0828               	movf	??___flmul,w
  3553     036C  04B7               	iorwf	___flmul@prod+3,f
  3554     036D                     i1l1335:
  3555     036D  0837               	movf	___flmul@prod+3,w
  3556     036E  00A3               	movwf	?___flmul+3
  3557     036F  0836               	movf	___flmul@prod+2,w
  3558     0370  00A2               	movwf	?___flmul+2
  3559     0371  0835               	movf	___flmul@prod+1,w
  3560     0372  00A1               	movwf	?___flmul+1
  3561     0373  0834               	movf	___flmul@prod,w
  3562     0374  00A0               	movwf	?___flmul
  3563     0375                     i1l576:
  3564     0375  0008               	return
  3565     0376                     __end_of___flmul:
  3566                           
  3567                           	psect	text12
  3568     0FD9                     __ptext12:	
  3569 ;; *************** function __Umul8_16 *****************
  3570 ;; Defined at:
  3571 ;;		line 4 in file "C:\Program Files\Microchip\xc8\v2.40\pic\sources\c90\common\Umul8_16.c"
  3572 ;; Parameters:    Size  Location     Type
  3573 ;;  multiplier      1    wreg     unsigned char 
  3574 ;;  multiplicand    1    0[COMMON] unsigned char 
  3575 ;; Auto vars:     Size  Location     Type
  3576 ;;  multiplier      1    8[COMMON] unsigned char 
  3577 ;;  word_mpld       2    6[COMMON] unsigned int 
  3578 ;;  product         2    4[COMMON] unsigned int 
  3579 ;; Return value:  Size  Location     Type
  3580 ;;                  2    0[COMMON] unsigned int 
  3581 ;; Registers used:
  3582 ;;		wreg, status,2, status,0
  3583 ;; Tracked objects:
  3584 ;;		On entry : 0/0
  3585 ;;		On exit  : 0/0
  3586 ;;		Unchanged: 0/0
  3587 ;; Data sizes:     COMMON   BANK0   BANK1   BANK3   BANK2
  3588 ;;      Params:         2       0       0       0       0
  3589 ;;      Locals:         5       0       0       0       0
  3590 ;;      Temps:          2       0       0       0       0
  3591 ;;      Totals:         9       0       0       0       0
  3592 ;;Total ram usage:        9 bytes
  3593 ;; Hardware stack levels used: 1
  3594 ;; This function calls:
  3595 ;;		Nothing
  3596 ;; This function is called by:
  3597 ;;		___flmul
  3598 ;; This function uses a non-reentrant model
  3599 ;;
  3600                           
  3601     0FD9                     __Umul8_16:	
  3602                           ;psect for function __Umul8_16
  3603                           
  3604                           
  3605                           ;incstack = 0
  3606                           ; Regs used in __Umul8_16: [wreg+status,2+status,0]
  3607                           ;__Umul8_16@multiplier stored from wreg
  3608     0FD9  00F8               	movwf	__Umul8_16@multiplier
  3609     0FDA                     i1l1185:
  3610     0FDA  01F4               	clrf	__Umul8_16@product
  3611     0FDB  01F5               	clrf	__Umul8_16@product+1
  3612     0FDC                     i1l1187:
  3613     0FDC  0870               	movf	__Umul8_16@multiplicand,w
  3614     0FDD  00F2               	movwf	??__Umul8_16
  3615     0FDE  01F3               	clrf	??__Umul8_16+1
  3616     0FDF  0872               	movf	??__Umul8_16,w
  3617     0FE0  00F6               	movwf	__Umul8_16@word_mpld
  3618     0FE1  0873               	movf	??__Umul8_16+1,w
  3619     0FE2  00F7               	movwf	__Umul8_16@word_mpld+1
  3620     0FE3                     i1l1189:
  3621     0FE3  1C78               	btfss	__Umul8_16@multiplier,0
  3622     0FE4  2FE6               	goto	u102_21
  3623     0FE5  2FE7               	goto	u102_20
  3624     0FE6                     u102_21:
  3625     0FE6  2FED               	goto	i1l595
  3626     0FE7                     u102_20:
  3627     0FE7                     i1l1191:
  3628     0FE7  0876               	movf	__Umul8_16@word_mpld,w
  3629     0FE8  07F4               	addwf	__Umul8_16@product,f
  3630     0FE9  1803               	skipnc
  3631     0FEA  0AF5               	incf	__Umul8_16@product+1,f
  3632     0FEB  0877               	movf	__Umul8_16@word_mpld+1,w
  3633     0FEC  07F5               	addwf	__Umul8_16@product+1,f
  3634     0FED                     i1l595:
  3635     0FED  3001               	movlw	1
  3636     0FEE                     u103_25:
  3637     0FEE  1003               	clrc
  3638     0FEF  0DF6               	rlf	__Umul8_16@word_mpld,f
  3639     0FF0  0DF7               	rlf	__Umul8_16@word_mpld+1,f
  3640     0FF1  3EFF               	addlw	-1
  3641     0FF2  1D03               	skipz
  3642     0FF3  2FEE               	goto	u103_25
  3643     0FF4  1003               	clrc
  3644     0FF5  0CF8               	rrf	__Umul8_16@multiplier,f
  3645     0FF6                     i1l1193:
  3646     0FF6  0878               	movf	__Umul8_16@multiplier,w
  3647     0FF7  1D03               	btfss	3,2
  3648     0FF8  2FFA               	goto	u104_21
  3649     0FF9  2FFB               	goto	u104_20
  3650     0FFA                     u104_21:
  3651     0FFA  2FE3               	goto	i1l1189
  3652     0FFB                     u104_20:
  3653     0FFB                     i1l1195:
  3654     0FFB  0875               	movf	__Umul8_16@product+1,w
  3655     0FFC  00F1               	movwf	?__Umul8_16+1
  3656     0FFD  0874               	movf	__Umul8_16@product,w
  3657     0FFE  00F0               	movwf	?__Umul8_16
  3658     0FFF                     i1l597:
  3659     0FFF  0008               	return
  3660     1000                     __end_of__Umul8_16:
  3661     007E                     btemp	set	126	;btemp
  3662     007E                     wtemp0	set	126
  3663                           
  3664                           	psect	idloc
  3665                           
  3666                           ;Config register IDLOC0 @ 0x2000
  3667                           ;	unspecified, using default values
  3668     2000                     	org	8192
  3669     2000  3FFF               	dw	16383
  3670                           
  3671                           ;Config register IDLOC1 @ 0x2001
  3672                           ;	unspecified, using default values
  3673     2001                     	org	8193
  3674     2001  3FFF               	dw	16383
  3675                           
  3676                           ;Config register IDLOC2 @ 0x2002
  3677                           ;	unspecified, using default values
  3678     2002                     	org	8194
  3679     2002  3FFF               	dw	16383
  3680                           
  3681                           ;Config register IDLOC3 @ 0x2003
  3682                           ;	unspecified, using default values
  3683     2003                     	org	8195
  3684     2003  3FFF               	dw	16383
  3685                           
  3686                           	psect	config
  3687                           
  3688                           ;Config register CONFIG @ 0x2007
  3689                           ;	Oscillator Selection bits
  3690                           ;	FOSC = HS, HS oscillator
  3691                           ;	Watchdog Timer Enable bit
  3692                           ;	WDTE = OFF, WDT disabled
  3693                           ;	Power-up Timer Enable bit
  3694                           ;	PWRTE = OFF, PWRT disabled
  3695                           ;	Brown-out Reset Enable bit
  3696                           ;	BOREN = ON, BOR enabled
  3697                           ;	Low-Voltage (Single-Supply) In-Circuit Serial Programming Enable bit
  3698                           ;	LVP = ON, RB3/PGM pin has PGM function; low-voltage programming enabled
  3699                           ;	Data EEPROM Memory Code Protection bit
  3700                           ;	CPD = OFF, Data EEPROM code protection off
  3701                           ;	Flash Program Memory Write Enable bits
  3702                           ;	WRT = OFF, Write protection off; all program memory may be written to by EECON control
  3703                           ;	In-Circuit Debugger Mode bit
  3704                           ;	DEBUG = 0x1, unprogrammed default
  3705                           ;	Flash Program Memory Code Protection bit
  3706                           ;	CP = OFF, Code protection off
  3707     2007                     	org	8199
  3708     2007  3FFA               	dw	16378

Data Sizes:
    Strings     0
    Constant    0
    Data        10
    BSS         10
    Persistent  0
    Stack       0

Auto Spaces:
    Space          Size  Autos    Used
    COMMON           14     14      14
    BANK0            80     43      63
    BANK1            80      0       0
    BANK3            96      0       0
    BANK2            96      0       0

Pointer List with Targets:

    None.

Critical Paths under _main in COMMON

    None.

Critical Paths under _Count_Up in COMMON

    ___awdiv->___awmod
    _ReadADC->___xxtofl
    ___flmul->___xxtofl

Critical Paths under _main in BANK0

    None.

Critical Paths under _Count_Up in BANK0

    _Count_Up->_HienThi_7seg
    _HienThi_7seg->_ReadADC
    _ReadADC->___flmul

Critical Paths under _main in BANK1

    None.

Critical Paths under _Count_Up in BANK1

    None.

Critical Paths under _main in BANK3

    None.

Critical Paths under _Count_Up in BANK3

    None.

Critical Paths under _main in BANK2

    None.

Critical Paths under _Count_Up in BANK2

    None.

Call Graph Tables:

 ---------------------------------------------------------------------------------
 (Depth) Function   	        Calls       Base Space   Used Autos Params    Refs
 ---------------------------------------------------------------------------------
 (0) _main                                                 0     0      0       0
                            _InitADC
                    _timer0_inialize
 ---------------------------------------------------------------------------------
 (1) _timer0_inialize                                      0     0      0       0
 ---------------------------------------------------------------------------------
 (1) _InitADC                                              0     0      0       0
 ---------------------------------------------------------------------------------
 Estimated maximum stack depth 1
 ---------------------------------------------------------------------------------
 (Depth) Function   	        Calls       Base Space   Used Autos Params    Refs
 ---------------------------------------------------------------------------------
 (2) _Count_Up                                             5     5      0    5371
                                             38 BANK0      5     5      0
                       _HienThi_7seg
                             ___flge
 ---------------------------------------------------------------------------------
 (3) ___flge                                              12     4      8     486
                                              0 COMMON    12     4      8
 ---------------------------------------------------------------------------------
 (3) _HienThi_7seg                                         8     8      0    4885
                                             30 BANK0      8     8      0
                            _ReadADC
                            ___awdiv
                            ___awmod
                            ___fltol
 ---------------------------------------------------------------------------------
 (4) ___fltol                                             10     6      4     305
                                              0 COMMON    10     6      4
 ---------------------------------------------------------------------------------
 (4) ___awmod                                              7     3      4     752
                                              0 COMMON     7     3      4
 ---------------------------------------------------------------------------------
 (4) ___awdiv                                              9     5      4     604
                                              7 COMMON     5     1      4
                                              0 BANK0      4     4      0
                            ___awmod (ARG)
 ---------------------------------------------------------------------------------
 (4) _ReadADC                                              4     4      0    3065
                                             26 BANK0      4     4      0
                            ___flmul
                           ___xxtofl
 ---------------------------------------------------------------------------------
 (5) ___xxtofl                                            14    10      4     474
                                              0 COMMON    14    10      4
 ---------------------------------------------------------------------------------
 (5) ___flmul                                             26    18      8    2569
                                              0 BANK0     26    18      8
                          __Umul8_16
                           ___xxtofl (ARG)
 ---------------------------------------------------------------------------------
 (6) __Umul8_16                                            9     7      2     799
                                              0 COMMON     9     7      2
 ---------------------------------------------------------------------------------
 Estimated maximum stack depth 6
 ---------------------------------------------------------------------------------

 Call Graph Graphs:

 _main (ROOT)
   _InitADC
   _timer0_inialize

 _Count_Up (ROOT)
   _HienThi_7seg
     _ReadADC
       ___flmul
         __Umul8_16
         ___xxtofl (ARG)
       ___xxtofl
     ___awdiv
       ___awmod (ARG)
     ___awmod
     ___fltol
   ___flge

 Address spaces:
Name               Size   Autos  Total    Cost      Usage
BANK3               60      0       0       9        0.0%
BITBANK3            60      0       0       8        0.0%
SFR3                 0      0       0       4        0.0%
BITSFR3              0      0       0       4        0.0%
BANK2               60      0       0      11        0.0%
BITBANK2            60      0       0      10        0.0%
SFR2                 0      0       0       5        0.0%
BITSFR2              0      0       0       5        0.0%
BANK1               50      0       0       7        0.0%
BITBANK1            50      0       0       6        0.0%
SFR1                 0      0       0       2        0.0%
BITSFR1              0      0       0       2        0.0%
BANK0               50     2B      3F       5       78.8%
BITBANK0            50      0       0       4        0.0%
SFR0                 0      0       0       1        0.0%
BITSFR0              0      0       0       1        0.0%
COMMON               E      E       E       1      100.0%
BITCOMMON            E      0       0       0        0.0%
CODE                 0      0       0       0        0.0%
DATA                 0      0      4D      12        0.0%
ABS                  0      0      4D       3        0.0%
NULL                 0      0       0       0        0.0%
STACK                0      0       0       2        0.0%
EEDATA             100      0       0       0        0.0%


Microchip Technology PIC Macro Assembler V2.40 build 20220703182018 
Symbol Table                                                                                   Mon Mar 20 20:58:44 2023

                      _i 0054                        _j 0051                        pc 0002  
                     l82 0FC5                       l59 0FAD                       l98 07F5  
                     l99 07F5             ___awdiv@sign 0021                       _ma 0055  
                     fsr 0004      __Umul8_16@word_mpld 0076                      _GIE 005F  
                    _PS0 0408                      _PS1 0409                      _PS2 040A  
                    _PSA 040B                      fsr0 0004                      indf 0000  
           ___awmod@sign 0076             ___flmul@aexp 0032             ___flmul@bexp 0033  
           ___flmul@sign 002D             ___flmul@temp 0038             ___flmul@prod 0034  
           ___fltol@exp1 0079                     l1521 0FA5                     l1611 07E7  
                   l1621 07F0                     l1613 07E8                     l1551 0FBF  
                   l1615 07E9                     l1553 0FC3                     l1617 07EA  
                   l1609 07E4                     l1555 0FC4                     l1619 07EB  
                   l1549 0FB8                     _ADON 00F8                     _CHS0 00FB  
                   _CHS1 00FC                     _CHS2 00FD                     _T0CS 040D  
                   i1l71 057D                     i1l63 04DE                     i1l64 04F6  
                   i1l65 04E2                     i1l66 0508                     i1l75 04A8  
                   i1l77 04B2                     i1l93 069F                     i1l78 04BC  
                   i1l79 04D9                     _TMR0 0001                     _main 07E4  
                   btemp 007E                     start 0012          __end_of_InitADC 0FAE  
        __end_of_ReadADC 057E          _timer0_inialize 0FB8            ___fltol@sign1 0078  
                  ?_main 0070          __end_of___awdiv 078B          __end_of___awmod 07E4  
        __end_of___flmul 0376          __end_of___fltol 0722          ___awdiv@divisor 0077  
                  i1l340 078A                    i1l353 07E3                    i1l361 059A  
                  i1l620 0398                    i1l380 070C                    i1l364 0606  
                  i1l373 0721                    i1l365 061F                    i1l622 042D  
                  i1l383 0721                    i1l633 03F7                    i1l634 0403  
                  i1l626 03DB                    i1l582 02E5                    i1l576 0375  
                  i1l595 0FED                    i1l588 0369                    i1l597 0FFF  
        ___awdiv@counter 0020                    _PORTB 0006                    _TRISB 0086  
                  _digit 0053                    pclath 000A                    status 0003  
                  wtemp0 007E     __end_of_HienThi_7seg 04DA          __initialization 0015  
           __end_of_main 07F9         __end_of_Count_Up 06AC           ReadADC@channel 003D  
                 ??_main 0000                   _ADCON0 001F                   _ADCON1 009F  
                 _ADRESH 001E         ___awdiv@dividend 0079                   u102_20 0FE7  
                 u110_20 0073                   u102_21 0FE6                   u110_21 0072  
                 i1l1201 0036                   i1l1211 0049                   i1l1203 003A  
                 i1l1301 02CE                   i1l1221 0064                   i1l1213 0051  
                 i1l1205 003E                   i1l1311 02FD                   i1l1303 02E2  
                 i1l1231 007B                   i1l1223 0068                   i1l1215 0053  
                 i1l1207 003F                   u111_20 008A                   i1l1321 0338  
                 i1l1313 0301                   u111_21 0089                   i1l1233 007D  
                 i1l1225 0069                   i1l1217 005B                   i1l1209 0044  
                 i1l1331 0363                   i1l1323 0347                   i1l1315 031A  
                 i1l1307 02EA                   i1l1251 00EA                   i1l1243 0098  
                 i1l1235 0085                   i1l1227 006E                   i1l1219 0060  
                 i1l1411 0730                   i1l1403 0722                   u103_25 0FEE  
                 i1l1333 0364                   i1l1325 0351                   i1l1309 02EF  
                 i1l1317 0320                   i1l1261 0163                   i1l1253 0114  
                 i1l1245 00A6                   i1l1237 008A                   i1l1229 0073  
                 i1l1341 037C                   i1l1421 0745                   i1l1413 0734  
                 i1l1405 0725                   i1l1501 06E0                   i1l1191 0FE7  
                 i1l1335 036D                   i1l1327 0353                   i1l1319 032D  
                 i1l1271 01DF                   i1l1263 0180                   i1l1255 0130  
                 i1l1247 00B3                   i1l1239 008F                   i1l1351 03A9  
                 i1l1343 0380                   i1l1431 0768                   i1l1423 0748  
                 i1l1415 0739                   i1l1407 0729                   u104_20 0FFB  
                 u112_20 008F                   u200_20 067C                   u104_21 0FFA  
                 i1l1193 0FF6                   i1l1185 0FDA                   i1l1329 035F  
                 i1l1281 0291                   i1l1273 020A                   i1l1265 018E  
                 i1l1257 014C                   i1l1249 00CE                   u112_21 008E  
                 i1l1361 03D2                   i1l1353 03AC                   i1l1345 0390  
                 i1l1441 0781                   i1l1433 076E                   i1l1425 074F  
                 i1l1417 073D                   i1l1409 072E                   u200_21 0678  
                 i1l1601 0672                   i1l1195 0FFB                   i1l1187 0FDC  
                 i1l1291 02B6                   i1l1283 029A                   i1l1275 0218  
                 i1l1267 01AB                   i1l1259 0155                   i1l1371 0405  
                 i1l1363 03E2                   i1l1355 03B9                   i1l1347 03A0  
                 i1l1339 0377                   i1l1443 0786                   i1l1435 076F  
                 i1l1427 0753                   i1l1419 073F                   i1l1451 0790  
                 i1l1515 0701                   i1l1507 06E8                   i1l1531 045F  
                 i1l1523 042E                   i1l1603 067F                   i1l1189 0FE3  
                 i1l1293 02BF                   i1l1285 02A8                   i1l1277 0243  
                 i1l1269 01C2                   u120_25 01AD                   i1l1373 041B  
                 i1l1365 03ED                   i1l1357 03C0                   i1l1437 0776  
                 i1l1429 0757                   i1l1461 07A6                   i1l1453 0795  
                 i1l1517 0711                   i1l1509 06FA                   i1l1541 04BF  
                 i1l1533 0480                   i1l1525 0432                   i1l1605 0683  
                 i1l1287 02B1                   i1l1295 02C5                   i1l1279 0269  
                 i1l1199 0031                   i1l1375 0420                   i1l1367 03F1  
                 i1l1359 03C4                   i1l1391 050C                   i1l1383 04DD  
                 i1l1439 077C                   i1l1471 07C2                   i1l1463 07A9  
                 i1l1455 0797                   i1l1447 078B                   i1l1519 0716  
                 i1l1543 04C6                   i1l1535 0496                   i1l1527 0438  
                 i1l1607 069C                   u105_20 003E                   i1l1297 02C9  
                 i1l1289 02B5                   u121_21 01D1                   u113_21 00DC  
                 u105_21 003D                   i1l1377 0424                   i1l1369 03FB  
                 i1l1393 0519                   i1l1385 04E6                   i1l1481 07DF  
                 i1l1473 07C8                   i1l1465 07B0                   i1l1457 079B  
                 i1l1449 078C                   i1l1537 04AB                   i1l1529 044B  
                 i1l1561 05AE                   u121_22 01D8                   u113_22 00E3  
                 i1l1299 02CA                   u121_23 01DF                   u113_23 00EA  
                 i1l1379 0425                   i1l1395 054B                   i1l1387 04F7  
                 i1l1475 07CF                   i1l1467 07B4                   i1l1459 07A0  
                 i1l1491 06BE                   i1l1539 04B5                   i1l1571 061C  
                 i1l1563 05B6                   u201_24 067F                   i1l1389 0505  
                 i1l1469 07B8                   i1l1477 07D5                   i1l1493 06D1  
                 i1l1485 06AC                   i1l1573 061E                   i1l1565 05BA  
                 i1l1557 057E                   i1l1581 0628                   i1l1479 07DA  
                 i1l1495 06D2                   i1l1487 06B5                   i1l1567 05DE  
                 i1l1559 0592                   i1l1591 0645                   i1l1583 062A  
                 u130_20 02B5                   u106_20 0044                   u202_20 069C  
                 u130_21 02B4                   u122_21 01FC                   u114_21 00F8  
                 u106_21 0043                   i1l1497 06DA                   i1l1673 04CE  
                 i1l1569 05E2                   u202_21 069B                   i1l1593 0646  
                 i1l1585 062B                   i1l1577 0620                   u122_22 0203  
                 u114_22 00FF                   u122_23 020A                   u114_23 0106  
                 i1l1675 04EE                   i1l1499 06DC                   i1l1595 064B  
                 i1l1587 062F                   i1l1579 0624                   i1l1589 063B  
                 i1l1597 064E                   i1l1599 0667                   u107_20 0049  
                 u123_21 0227                   u115_21 0122                   u107_21 0048  
                 u123_22 022E                   u115_22 0129                   u123_23 0235  
                 u115_23 0130                   u131_25 02B8                   u203_27 04FF  
                 u140_20 0347                   u132_20 02C9                   u124_20 024F  
                 u108_20 0068                   u140_21 0346                   u132_21 02C8  
                 u116_21 013E                   u108_21 0067                   u116_22 0145  
                 u116_23 014C                   u140_25 0343                   u124_25 024A  
                 u141_20 0363                   u133_20 02CE                   u109_20 006E  
                 u141_21 0362                   u133_21 02CD                   u125_21 025B  
                 u109_21 006D                   u125_22 0262                   u125_23 0269  
                 u117_25 014E                   u134_20 02E2                   u126_20 0277  
                 u150_20 03F1                   u142_20 037C                   u134_21 02E1  
                 u118_21 0172                   u150_21 03F0                   u142_21 037B  
                 u118_22 0179                   u118_23 0180                   u126_25 0272  
                 u135_20 02E9                   u151_20 03F7                   u143_20 0380  
                 u135_21 02E8                   u127_21 0283                   u119_21 019D  
                 u151_21 03F6                   u143_21 037F                   u127_22 028A  
                 u119_22 01A4                   u127_23 0291                   u119_23 01AB  
                 u136_20 02EF                   u152_20 03FB                   u144_20 03A0  
                 u160_20 0745                   u136_21 02EE                   u152_21 03FA  
                 u144_21 039F                   u160_21 0744                   u128_25 0293  
                 u137_20 0301                   u153_20 0410                   u137_21 0300  
                 u129_25 02AA                   u153_25 040B                   u145_25 03B1  
                 u161_25 0749                   u138_20 0310                   u154_20 0420  
                 u146_20 03BF                   u162_20 0757                   u170_20 07A6  
                 u154_21 041F                   u146_21 03BE                   u162_21 0756  
                 u170_21 07A5                   u138_25 030B                   u139_20 032D  
                 u155_20 0424                   u139_21 032C                   u155_21 0423  
                 u139_25 0329                   u147_25 03D3                   u163_25 0758  
                 u171_25 07AA                   u148_20 03E1                   u156_20 050C  
                 u164_20 0768                   u172_20 07B8                   u180_20 06E7  
                 u148_21 03E0                   u156_21 050B                   u164_21 0767  
                 u172_21 07B7                   u180_21 06E6                   u164_25 0764  
                 u157_20 0519                   u173_20 07C2                   u157_21 0518  
                 u173_21 07C1                   u149_25 03E6                   u165_25 0770  
                 u173_25 07BE                   u181_25 06E9                   u166_20 077C  
                 u158_20 0729                   u182_20 06F9                   u166_21 077B  
                 u158_21 0728                   u182_21 06F8                   u190_21 05C9  
                 u190_22 05CA                   u190_23 05CF                   u190_24 05D0  
                 u174_25 07C9                   u190_25 05D5                   u190_26 05D6  
                 u167_20 0781                   u159_20 0734                   u175_20 07D5  
                 u183_20 0700                   u191_20 05E2                   u167_21 0780  
                 u159_21 0733                   u175_21 07D4                   u183_21 06FF  
                 u191_21 05E1                   u176_20 07DA                   u168_20 0790  
                 u176_21 07D9                   u168_21 078F                   u192_21 05F1  
                 u192_22 05F2                   u192_23 05F7                   u192_24 05F8  
                 u184_25 0703                   u192_25 05FD                   u192_26 05FE  
                 u169_20 079B                   u185_20 0711                   u177_20 06B5  
                 u193_20 061C                   u169_21 079A                   u185_21 0710  
                 u177_21 06B4                   u193_21 061B                   u193_25 0618  
                 u186_20 0716                   u178_20 06CC                   u194_20 0624  
                 u186_21 0715                   u194_21 0623                   u178_25 06C7  
                 u179_20 06E0                   u187_20 0592                   u195_20 0628  
                 u179_21 06DF                   u187_21 0591                   u195_21 0627  
                 u188_20 05AE                   u196_20 063B                   u188_21 05AD  
                 u196_21 063A                   u189_20 05BA                   u197_20 0645  
                 u189_21 05B9                   u197_21 0644                   u198_20 0667  
                 u198_21 0666                   u199_20 0672                   u199_21 0671  
                 _TMR0IE 005D                   _TMR0IF 005A         __end_of___xxtofl 042E  
              ??_InitADC 0000                ??_ReadADC 003A  __end_of_timer0_inialize 0FC6  
                 ___flge 057E        HienThi_7seg@donvi 0044                ??___awdiv 007B  
              ??___awmod 0074                ??___flmul 0028                ??___fltol 0074  
       ___awdiv@quotient 0022          ___awmod@divisor 0070          ___awmod@counter 0075  
                 saved_w 007E               ___flge@ff1 0070               ___flge@ff2 0074  
           ___xxtofl@arg 007A             ___xxtofl@exp 0079             ___xxtofl@val 0070  
__end_of__initialization 002D               ___fltol@f1 0070           __pcstackCOMMON 0070  
           __pidataBANK0 0FAE               __pbssBANK0 004B                ?_Count_Up 0070  
      __end_of__Umul8_16 1000               __pmaintext 07E4         ?_timer0_inialize 0070  
                ?___flge 0070               __pintentry 0004             _HienThi_7seg 042E  
              ?___xxtofl 0070                  _GO_DONE 00FA               ??_Count_Up 0046  
                _InitADC 0FA5                  _ReadADC 04DA                  ___awdiv 0722  
                ___awmod 078B                  ___flmul 0031                  ___fltol 06AC  
                __ptext1 0FB8                  __ptext2 0FA5                  __ptext3 0620  
                __ptext4 057E                  __ptext5 042E                  __ptext6 06AC  
                __ptext7 078B                  __ptext8 0722                  __ptext9 04DA  
             ??___xxtofl 0074         ___awmod@dividend 0072     end_of_initialization 002D  
              _PORTCbits 0007            ___xxtofl@sign 0078                _TRISCbits 0087  
            ___flmul@grs 002E           __end_of___flge 0620      start_initialization 0015  
       HienThi_7seg@chuc 0043                 ??___flge 0078         HienThi_7seg@tram 0042  
             init_fetch0 0FC6                __Umul8_16 0FD9              __pdataBANK0 0055  
              ___flmul@a 0024                ___flmul@b 0020                ___latbits 0002  
          __pcstackBANK0 0020            __pcstackBANK1 0000                _adc_value 004F  
               ?_InitADC 0070                 ?_ReadADC 0070                 ?___awdiv 0077  
               ?___awmod 0070                 ?___flmul 0020                 ?___fltol 0070  
             ?__Umul8_16 0070         _HienThi_7seg$745 0040        interrupt_function 0004  
               _Count_Up 0620          HienThi_7seg@num 0045              ??__Umul8_16 0072  
               ___xxtofl 0376                 __ptext10 0376                 __ptext11 0031  
               __ptext12 0FD9        ??_timer0_inialize 0000                 _nhiet_do 004B  
          ?_HienThi_7seg 0070                 init_ram0 0FCA                 intlevel1 0000  
         ??_HienThi_7seg 003E   __Umul8_16@multiplicand 0070     __Umul8_16@multiplier 0078  
      __Umul8_16@product 0074  
