

Microchip MPLAB XC8 Assembler V2.40 build 20220703182018 
                                                                                               Wed May 10 22:40:49 2023

Microchip MPLAB XC8 C Compiler v2.40 (Free license) build 20220703182018 Og1 
     1                           	processor	16F877A
     2                           	pagewidth 120
     3                           	opt	flic
     4                           	psect	strings,global,class=STRING,delta=2,noexec
     5                           	psect	cinit,global,class=CODE,merge=1,delta=2
     6                           	psect	bssBANK3,global,class=BANK3,space=1,delta=1,noexec
     7                           	psect	cstackBANK3,global,class=BANK3,space=1,delta=1,noexec
     8                           	psect	cstackBANK1,global,class=BANK1,space=1,delta=1,noexec
     9                           	psect	cstackCOMMON,global,class=COMMON,space=1,delta=1,noexec
    10                           	psect	cstackBANK0,global,class=BANK0,space=1,delta=1,noexec
    11                           	psect	maintext,global,class=CODE,split=1,delta=2
    12                           	psect	text1,local,class=CODE,merge=1,delta=2,group=1
    13                           	psect	text2,local,class=CODE,merge=1,delta=2,group=1
    14                           	psect	text3,local,class=CODE,merge=1,delta=2,group=2
    15                           	psect	text4,local,class=CODE,merge=1,delta=2,group=2
    16                           	psect	text5,local,class=CODE,merge=1,delta=2,group=1
    17                           	psect	text6,local,class=CODE,merge=1,delta=2,group=2
    18                           	psect	text7,local,class=CODE,merge=1,delta=2,group=2
    19                           	psect	text8,local,class=CODE,merge=1,delta=2,group=2
    20                           	psect	text9,local,class=CODE,merge=1,delta=2,group=2
    21                           	psect	text10,local,class=CODE,merge=1,delta=2,group=2
    22                           	psect	text11,local,class=CODE,merge=1,delta=2,group=2
    23                           	psect	text12,local,class=CODE,merge=1,delta=2,group=2
    24                           	psect	text13,local,class=CODE,merge=1,delta=2,group=2
    25                           	psect	text14,local,class=CODE,merge=1,delta=2,group=2
    26                           	psect	text15,local,class=CODE,merge=1,delta=2,group=2
    27                           	psect	text16,local,class=CODE,merge=1,delta=2,group=2
    28                           	psect	text17,local,class=CODE,merge=1,delta=2,group=2
    29                           	psect	text18,local,class=CODE,merge=1,delta=2,group=2
    30                           	psect	text19,local,class=CODE,merge=1,delta=2,group=2
    31                           	psect	text20,local,class=CODE,merge=1,delta=2,group=2
    32                           	psect	text21,local,class=CODE,merge=1,delta=2,group=2
    33                           	psect	text22,local,class=CODE,merge=1,delta=2,group=2
    34                           	psect	text23,local,class=CODE,merge=1,delta=2
    35                           	psect	text24,local,class=CODE,merge=1,delta=2
    36                           	psect	text25,local,class=CODE,merge=1,delta=2
    37                           	psect	text26,local,class=CODE,merge=1,delta=2
    38                           	psect	text27,local,class=CODE,merge=1,delta=2
    39                           	psect	text28,local,class=CODE,merge=1,delta=2
    40                           	psect	text29,local,class=CODE,merge=1,delta=2
    41                           	psect	text30,local,class=CODE,merge=1,delta=2
    42                           	psect	idloc,global,abs,ovrld,class=IDLOC,space=5,delta=2,noexec
    43                           	psect	config,global,abs,ovrld,class=CONFIG,space=4,delta=2,noexec
    44                           	psect	text1_split_1,local,class=CODE,merge=1,delta=2
    45                           	psect	text1_split_2,local,class=CODE,merge=1,delta=2
    46                           	dabs	1,0x7E,2
    47  0000                     
    48                           ; Version 2.40
    49                           ; Generated 17/11/2021 GMT
    50                           ; 
    51                           ; Copyright © 2021, Microchip Technology Inc. and its subsidiaries ("Microchip")
    52                           ; All rights reserved.
    53                           ; 
    54                           ; This software is developed by Microchip Technology Inc. and its subsidiaries ("Microch
      +                          ip").
    55                           ; 
    56                           ; Redistribution and use in source and binary forms, with or without modification, are
    57                           ; permitted provided that the following conditions are met:
    58                           ; 
    59                           ;     1. Redistributions of source code must retain the above copyright notice, this lis
      +                          t of
    60                           ;        conditions and the following disclaimer.
    61                           ; 
    62                           ;     2. Redistributions in binary form must reproduce the above copyright notice, this 
      +                          list
    63                           ;        of conditions and the following disclaimer in the documentation and/or other
    64                           ;        materials provided with the distribution. Publication is not required when
    65                           ;        this file is used in an embedded application.
    66                           ; 
    67                           ;     3. Microchip's name may not be used to endorse or promote products derived from th
      +                          is
    68                           ;        software without specific prior written permission.
    69                           ; 
    70                           ; THIS SOFTWARE IS PROVIDED BY MICROCHIP "AS IS" AND ANY EXPRESS OR IMPLIED WARRANTIES,
    71                           ; INCLUDING, BUT NOT LIMITED TO, THE IMPLIED WARRANTIES OF MERCHANTABILITY AND FITNESS F
      +                          OR
    72                           ; PURPOSE ARE DISCLAIMED.  IN NO EVENT SHALL MICROCHIP BE LIABLE FOR ANY DIRECT, INDIREC
      +                          T,
    73                           ; INCIDENTAL, SPECIAL, EXEMPLARY, OR CONSEQUENTIAL DAMAGES (INCLUDING BUT NOT LIMITED TO
    74                           ; PROCUREMENT OF SUBSTITUTE GOODS OR SERVICES; LOSS OF USE, DATA OR PROFITS; OR BUSINESS
    75                           ; INTERRUPTION) HOWSOEVER CAUSED AND ON ANY THEORY OF LIABILITY, WHETHER IN CONTRACT, ST
      +                          RICT
    76                           ; LIABILITY, OR TORT (INCLUDING NEGLIGENCE OR OTHERWISE) ARISING IN ANY WAY OUT OF THE U
      +                          SE OF
    77                           ; THIS SOFTWARE, EVEN IF ADVISED OF THE POSSIBILITY OF SUCH DAMAGE.
    78                           ; 
    79                           ; 
    80                           ; Code-generator required, PIC16F877A Definitions
    81                           ; 
    82                           ; SFR Addresses
    83  0000                     	;# 
    84  0001                     	;# 
    85  0002                     	;# 
    86  0003                     	;# 
    87  0004                     	;# 
    88  0005                     	;# 
    89  0006                     	;# 
    90  0007                     	;# 
    91  0008                     	;# 
    92  0009                     	;# 
    93  000A                     	;# 
    94  000B                     	;# 
    95  000C                     	;# 
    96  000D                     	;# 
    97  000E                     	;# 
    98  000E                     	;# 
    99  000F                     	;# 
   100  0010                     	;# 
   101  0011                     	;# 
   102  0012                     	;# 
   103  0013                     	;# 
   104  0014                     	;# 
   105  0015                     	;# 
   106  0015                     	;# 
   107  0016                     	;# 
   108  0017                     	;# 
   109  0018                     	;# 
   110  0019                     	;# 
   111  001A                     	;# 
   112  001B                     	;# 
   113  001B                     	;# 
   114  001C                     	;# 
   115  001D                     	;# 
   116  001E                     	;# 
   117  001F                     	;# 
   118  0081                     	;# 
   119  0085                     	;# 
   120  0086                     	;# 
   121  0087                     	;# 
   122  0088                     	;# 
   123  0089                     	;# 
   124  008C                     	;# 
   125  008D                     	;# 
   126  008E                     	;# 
   127  0091                     	;# 
   128  0092                     	;# 
   129  0093                     	;# 
   130  0094                     	;# 
   131  0098                     	;# 
   132  0099                     	;# 
   133  009C                     	;# 
   134  009D                     	;# 
   135  009E                     	;# 
   136  009F                     	;# 
   137  010C                     	;# 
   138  010D                     	;# 
   139  010E                     	;# 
   140  010F                     	;# 
   141  018C                     	;# 
   142  018D                     	;# 
   143  0000                     	;# 
   144  0001                     	;# 
   145  0002                     	;# 
   146  0003                     	;# 
   147  0004                     	;# 
   148  0005                     	;# 
   149  0006                     	;# 
   150  0007                     	;# 
   151  0008                     	;# 
   152  0009                     	;# 
   153  000A                     	;# 
   154  000B                     	;# 
   155  000C                     	;# 
   156  000D                     	;# 
   157  000E                     	;# 
   158  000E                     	;# 
   159  000F                     	;# 
   160  0010                     	;# 
   161  0011                     	;# 
   162  0012                     	;# 
   163  0013                     	;# 
   164  0014                     	;# 
   165  0015                     	;# 
   166  0015                     	;# 
   167  0016                     	;# 
   168  0017                     	;# 
   169  0018                     	;# 
   170  0019                     	;# 
   171  001A                     	;# 
   172  001B                     	;# 
   173  001B                     	;# 
   174  001C                     	;# 
   175  001D                     	;# 
   176  001E                     	;# 
   177  001F                     	;# 
   178  0081                     	;# 
   179  0085                     	;# 
   180  0086                     	;# 
   181  0087                     	;# 
   182  0088                     	;# 
   183  0089                     	;# 
   184  008C                     	;# 
   185  008D                     	;# 
   186  008E                     	;# 
   187  0091                     	;# 
   188  0092                     	;# 
   189  0093                     	;# 
   190  0094                     	;# 
   191  0098                     	;# 
   192  0099                     	;# 
   193  009C                     	;# 
   194  009D                     	;# 
   195  009E                     	;# 
   196  009F                     	;# 
   197  010C                     	;# 
   198  010D                     	;# 
   199  010E                     	;# 
   200  010F                     	;# 
   201  018C                     	;# 
   202  018D                     	;# 
   203                           
   204                           	psect	strings
   205  0000'                    __pstrings:
   206  0000'                    stringtab:
   207  0000'                    __stringtab:
   208                           
   209                           ;	String table - string pointers are 1 byte each
   210  0000' 1BFF               	btfsc	btemp+1,7
   211  0001' 2800'              	ljmp	stringcode
   212  0002' 1383               	bcf	3,7
   213  0003' 187F               	btfsc	btemp+1,0
   214  0004' 1783               	bsf	3,7
   215  0005' 0800               	movf	0,w
   216  0006' 0A84               	incf	4,f
   217  0007' 1903               	skipnz
   218  0008' 0AFF               	incf	btemp+1,f
   219  0009' 0008               	return
   220  000A'                    stringcode:
   221  000A'                    stringdir:
   222  000A' 3000'              	movlw	high stringdir
   223  000B' 008A               	movwf	10
   224  000C' 0804               	movf	4,w
   225  000D' 0A84               	incf	4,f
   226  000E' 0782               	addwf	2,f
   227  000F'                    __stringbase:
   228  000F' 3400               	retlw	0
   229  0010'                    __end_of__stringtab:
   230  0010'                    __powers_:
   231  0010' 3400               	retlw	0
   232  0011' 3400               	retlw	0
   233  0012' 3480               	retlw	128
   234  0013' 343F               	retlw	63
   235  0014' 3400               	retlw	0
   236  0015' 3400               	retlw	0
   237  0016' 3420               	retlw	32
   238  0017' 3441               	retlw	65
   239  0018' 3400               	retlw	0
   240  0019' 3400               	retlw	0
   241  001A' 34C8               	retlw	200
   242  001B' 3442               	retlw	66
   243  001C' 3400               	retlw	0
   244  001D' 3400               	retlw	0
   245  001E' 347A               	retlw	122
   246  001F' 3444               	retlw	68
   247  0020' 3400               	retlw	0
   248  0021' 3440               	retlw	64
   249  0022' 341C               	retlw	28
   250  0023' 3446               	retlw	70
   251  0024' 3400               	retlw	0
   252  0025' 3450               	retlw	80
   253  0026' 34C3               	retlw	195
   254  0027' 3447               	retlw	71
   255  0028' 3400               	retlw	0
   256  0029' 3424               	retlw	36
   257  002A' 3474               	retlw	116
   258  002B' 3449               	retlw	73
   259  002C' 3480               	retlw	128
   260  002D' 3496               	retlw	150
   261  002E' 3418               	retlw	24
   262  002F' 344B               	retlw	75
   263  0030' 3420               	retlw	32
   264  0031' 34BC               	retlw	188
   265  0032' 34BE               	retlw	190
   266  0033' 344C               	retlw	76
   267  0034' 3428               	retlw	40
   268  0035' 346B               	retlw	107
   269  0036' 346E               	retlw	110
   270  0037' 344E               	retlw	78
   271  0038' 34F9               	retlw	249
   272  0039' 3402               	retlw	2
   273  003A' 3415               	retlw	21
   274  003B' 3450               	retlw	80
   275  003C' 34EC               	retlw	236
   276  003D' 3478               	retlw	120
   277  003E' 34AD               	retlw	173
   278  003F' 3460               	retlw	96
   279  0040' 34CA               	retlw	202
   280  0041' 34F2               	retlw	242
   281  0042' 3449               	retlw	73
   282  0043' 3471               	retlw	113
   283  0044'                    __end_of__powers_:
   284  0044'                    __npowers_:
   285  0044' 3400               	retlw	0
   286  0045' 3400               	retlw	0
   287  0046' 3480               	retlw	128
   288  0047' 343F               	retlw	63
   289  0048' 34CD               	retlw	205
   290  0049' 34CC               	retlw	204
   291  004A' 34CC               	retlw	204
   292  004B' 343D               	retlw	61
   293  004C' 340A               	retlw	10
   294  004D' 34D7               	retlw	215
   295  004E' 3423               	retlw	35
   296  004F' 343C               	retlw	60
   297  0050' 346F               	retlw	111
   298  0051' 3412               	retlw	18
   299  0052' 3483               	retlw	131
   300  0053' 343A               	retlw	58
   301  0054' 3417               	retlw	23
   302  0055' 34B7               	retlw	183
   303  0056' 34D1               	retlw	209
   304  0057' 3438               	retlw	56
   305  0058' 34AC               	retlw	172
   306  0059' 34C5               	retlw	197
   307  005A' 3427               	retlw	39
   308  005B' 3437               	retlw	55
   309  005C' 34BD               	retlw	189
   310  005D' 3437               	retlw	55
   311  005E' 3486               	retlw	134
   312  005F' 3435               	retlw	53
   313  0060' 3495               	retlw	149
   314  0061' 34BF               	retlw	191
   315  0062' 34D6               	retlw	214
   316  0063' 3433               	retlw	51
   317  0064' 3477               	retlw	119
   318  0065' 34CC               	retlw	204
   319  0066' 342B               	retlw	43
   320  0067' 3432               	retlw	50
   321  0068' 345F               	retlw	95
   322  0069' 3470               	retlw	112
   323  006A' 3489               	retlw	137
   324  006B' 3430               	retlw	48
   325  006C' 34FF               	retlw	255
   326  006D' 34E6               	retlw	230
   327  006E' 34DB               	retlw	219
   328  006F' 342E               	retlw	46
   329  0070' 3408               	retlw	8
   330  0071' 34E5               	retlw	229
   331  0072' 343C               	retlw	60
   332  0073' 341E               	retlw	30
   333  0074' 3460               	retlw	96
   334  0075' 3442               	retlw	66
   335  0076' 34A2               	retlw	162
   336  0077' 340D               	retlw	13
   337  0078'                    __end_of__npowers_:
   338  0078'                    _dpowers:
   339  0078' 3401               	retlw	1
   340  0079' 3400               	retlw	0
   341  007A' 3400               	retlw	0
   342  007B' 3400               	retlw	0
   343  007C' 340A               	retlw	10
   344  007D' 3400               	retlw	0
   345  007E' 3400               	retlw	0
   346  007F' 3400               	retlw	0
   347  0080' 3464               	retlw	100
   348  0081' 3400               	retlw	0
   349  0082' 3400               	retlw	0
   350  0083' 3400               	retlw	0
   351  0084' 34E8               	retlw	232
   352  0085' 3403               	retlw	3
   353  0086' 3400               	retlw	0
   354  0087' 3400               	retlw	0
   355  0088' 3410               	retlw	16
   356  0089' 3427               	retlw	39
   357  008A' 3400               	retlw	0
   358  008B' 3400               	retlw	0
   359  008C' 34A0               	retlw	160
   360  008D' 3486               	retlw	134
   361  008E' 3401               	retlw	1
   362  008F' 3400               	retlw	0
   363  0090' 3440               	retlw	64
   364  0091' 3442               	retlw	66
   365  0092' 340F               	retlw	15
   366  0093' 3400               	retlw	0
   367  0094' 3480               	retlw	128
   368  0095' 3496               	retlw	150
   369  0096' 3498               	retlw	152
   370  0097' 3400               	retlw	0
   371  0098' 3400               	retlw	0
   372  0099' 34E1               	retlw	225
   373  009A' 34F5               	retlw	245
   374  009B' 3405               	retlw	5
   375  009C' 3400               	retlw	0
   376  009D' 34CA               	retlw	202
   377  009E' 349A               	retlw	154
   378  009F' 343B               	retlw	59
   379  00A0'                    __end_of_dpowers:
   380  0006                     _PORTBbits	set	6
   381  001E                     _ADRESH	set	30
   382  001F                     _ADCON0bits	set	31
   383  0028                     _RA0	set	40
   384  0043                     _RD3	set	67
   385  0042                     _RD2	set	66
   386  0047                     _RD7	set	71
   387  0046                     _RD6	set	70
   388  0045                     _RD5	set	69
   389  0044                     _RD4	set	68
   390  0086                     _TRISB	set	134
   391  0088                     _TRISD	set	136
   392  009E                     _ADRESL	set	158
   393  009F                     _ADCON1bits	set	159
   394  0428                     _TRISA0	set	1064
   395  00A0'                    STR_1:
   396  00A0' 344E               	retlw	78	;'N'
   397  00A1' 3448               	retlw	72	;'H'
   398  00A2' 3449               	retlw	73	;'I'
   399  00A3' 3445               	retlw	69	;'E'
   400  00A4' 3454               	retlw	84	;'T'
   401  00A5' 3420               	retlw	32	;' '
   402  00A6' 3444               	retlw	68	;'D'
   403  00A7' 344F               	retlw	79	;'O'
   404  00A8' 3420               	retlw	32	;' '
   405  00A9' 343D               	retlw	61	;'='
   406  00AA' 3420               	retlw	32	;' '
   407  00AB' 3425               	retlw	37	;'%'
   408  00AC' 3467               	retlw	103	;'g'
   409  00AD' 3400               	retlw	0
   410  00AE'                    STR_2:
   411  00AE' 3443               	retlw	67	;'C'
   412  00AF' 3400               	retlw	0
   413                           
   414                           	psect	cinit
   415  0000'                    start_initialization:	
   416                           ; #config settings
   417                           
   418  0000'                    __initialization:
   419                           
   420                           ; Clear objects allocated to BANK3
   421  0000' 1683               	bsf	3,5	;RP0=1, select bank3
   422  0001' 1703               	bsf	3,6	;RP1=1, select bank3
   423  0002' 0180'              	clrf	__pbssBANK3& (0+127)
   424  0003' 0180'              	clrf	(__pbssBANK3+1)& (0+127)
   425  0004' 0180'              	clrf	(__pbssBANK3+2)& (0+127)
   426  0005' 0180'              	clrf	(__pbssBANK3+3)& (0+127)
   427  0006' 0180'              	clrf	(__pbssBANK3+4)& (0+127)
   428  0007' 0180'              	clrf	(__pbssBANK3+5)& (0+127)
   429  0008' 0180'              	clrf	(__pbssBANK3+6)& (0+127)
   430  0009' 0180'              	clrf	(__pbssBANK3+7)& (0+127)
   431  000A'                    end_of_initialization:	
   432                           ;End of C runtime variable initialization code
   433                           
   434  000A'                    __end_of__initialization:
   435  000A' 0183               	clrf	3
   436  000B' 120A' 118A' 2800'  	ljmp	_main	;jump to C main() function
   437                           
   438                           	psect	bssBANK3
   439  0000'                    __pbssBANK3:
   440  0000'                    _f:
   441  0000'                    	ds	4
   442  0004'                    _voltage:
   443  0004'                    	ds	2
   444  0006'                    _ADC_value:
   445  0006'                    	ds	2
   446                           
   447                           	psect	cstackBANK3
   448  0000'                    __pcstackBANK3:
   449  0000'                    main@s:
   450                           
   451                           ; 20 bytes @ 0x0
   452  0000'                    	ds	20
   453                           
   454                           	psect	cstackBANK1
   455  0000'                    __pcstackBANK1:
   456  0000'                    ?___flsub:
   457  0000'                    ___flsub@a:	
   458                           ; 4 bytes @ 0x0
   459                           
   460  0000'                    ___fldiv@rem:	
   461                           ; 4 bytes @ 0x0
   462                           
   463                           
   464                           ; 4 bytes @ 0x0
   465  0000'                    	ds	4
   466  0004'                    ___fldiv@sign:
   467  0004'                    ___flsub@b:	
   468                           ; 1 bytes @ 0x4
   469                           
   470                           
   471                           ; 4 bytes @ 0x4
   472  0004'                    	ds	1
   473  0005'                    ___fldiv@new_exp:
   474                           
   475                           ; 2 bytes @ 0x5
   476  0005'                    	ds	2
   477  0007'                    ___fldiv@grs:
   478                           
   479                           ; 4 bytes @ 0x7
   480  0007'                    	ds	1
   481  0008'                    ?___flge:
   482  0008'                    ___flge@ff1:	
   483                           ; 1 bit 
   484                           
   485                           
   486                           ; 4 bytes @ 0x8
   487  0008'                    	ds	3
   488  000B'                    ___fldiv@bexp:
   489                           
   490                           ; 1 bytes @ 0xB
   491  000B'                    	ds	1
   492  000C'                    ___fldiv@aexp:
   493  000C'                    ___flge@ff2:	
   494                           ; 1 bytes @ 0xC
   495                           
   496                           
   497                           ; 4 bytes @ 0xC
   498  000C'                    	ds	4
   499  0010'                    ??___flge:
   500                           
   501                           ; 1 bytes @ 0x10
   502  0010'                    	ds	4
   503  0014'                    ?_sprintf:
   504  0014'                    sprintf@f:	
   505                           ; 2 bytes @ 0x14
   506                           
   507                           
   508                           ; 1 bytes @ 0x14
   509  0014'                    	ds	5
   510  0019'                    ??_sprintf:
   511                           
   512                           ; 1 bytes @ 0x19
   513  0019'                    	ds	5
   514  001E'                    _sprintf$897:
   515                           
   516                           ; 4 bytes @ 0x1E
   517  001E'                    	ds	4
   518  0022'                    sprintf@ap:
   519                           
   520                           ; 1 bytes @ 0x22
   521  0022'                    	ds	1
   522  0023'                    sprintf@temp:
   523                           
   524                           ; 4 bytes @ 0x23
   525  0023'                    	ds	4
   526  0027'                    sprintf@flag:
   527                           
   528                           ; 2 bytes @ 0x27
   529  0027'                    	ds	2
   530  0029'                    sprintf@tmpval:
   531                           
   532                           ; 4 bytes @ 0x29
   533  0029'                    	ds	4
   534  002D'                    sprintf@val:
   535                           
   536                           ; 4 bytes @ 0x2D
   537  002D'                    	ds	4
   538  0031'                    sprintf@prec:
   539                           
   540                           ; 2 bytes @ 0x31
   541  0031'                    	ds	2
   542  0033'                    sprintf@eexp:
   543                           
   544                           ; 2 bytes @ 0x33
   545  0033'                    	ds	2
   546  0035'                    sprintf@sp:
   547                           
   548                           ; 1 bytes @ 0x35
   549  0035'                    	ds	1
   550  0036'                    sprintf@fval:
   551                           
   552                           ; 4 bytes @ 0x36
   553  0036'                    	ds	4
   554  003A'                    sprintf@c:
   555                           
   556                           ; 1 bytes @ 0x3A
   557  003A'                    	ds	1
   558  003B'                    ??_main:
   559                           
   560                           ; 1 bytes @ 0x3B
   561  003B'                    	ds	4
   562                           
   563                           	psect	cstackCOMMON
   564  0000'                    __pcstackCOMMON:
   565  0000'                    ?___fleq:
   566  0000'                    ?_Lcd_Port:	
   567                           ; 1 bit 
   568                           
   569  0000'                    ??_Lcd_Port:	
   570                           ; 1 bytes @ 0x0
   571                           
   572  0000'                    ?_Lcd_Cmd:	
   573                           ; 1 bytes @ 0x0
   574                           
   575  0000'                    ?_Lcd_Init:	
   576                           ; 1 bytes @ 0x0
   577                           
   578  0000'                    ?_Lcd_Write_Char:	
   579                           ; 1 bytes @ 0x0
   580                           
   581  0000'                    ?_ADC_init:	
   582                           ; 1 bytes @ 0x0
   583                           
   584  0000'                    ??_ADC_init:	
   585                           ; 1 bytes @ 0x0
   586                           
   587  0000'                    ?_main:	
   588                           ; 1 bytes @ 0x0
   589                           
   590  0000'                    ?__Umul8_16:	
   591                           ; 1 bytes @ 0x0
   592                           
   593  0000'                    ?_ReadADC:	
   594                           ; 2 bytes @ 0x0
   595                           
   596  0000'                    ?___wmul:	
   597                           ; 2 bytes @ 0x0
   598                           
   599  0000'                    ?___awmod:	
   600                           ; 2 bytes @ 0x0
   601                           
   602  0000'                    ?___lwmod:	
   603                           ; 2 bytes @ 0x0
   604                           
   605  0000'                    ?__tdiv_to_l_:	
   606                           ; 2 bytes @ 0x0
   607                           
   608  0000'                    ?__div_to_l_:	
   609                           ; 4 bytes @ 0x0
   610                           
   611  0000'                    ?___lldiv:	
   612                           ; 4 bytes @ 0x0
   613                           
   614  0000'                    ?___flneg:	
   615                           ; 4 bytes @ 0x0
   616                           
   617  0000'                    ?___llmod:	
   618                           ; 4 bytes @ 0x0
   619                           
   620  0000'                    Lcd_Port@a:	
   621                           ; 4 bytes @ 0x0
   622                           
   623  0000'                    __Umul8_16@multiplicand:	
   624                           ; 1 bytes @ 0x0
   625                           
   626  0000'                    ___wmul@multiplier:	
   627                           ; 1 bytes @ 0x0
   628                           
   629  0000'                    ___awmod@divisor:	
   630                           ; 2 bytes @ 0x0
   631                           
   632  0000'                    ___lwmod@divisor:	
   633                           ; 2 bytes @ 0x0
   634                           
   635  0000'                    ___lldiv@divisor:	
   636                           ; 2 bytes @ 0x0
   637                           
   638  0000'                    __div_to_l_@f1:	
   639                           ; 4 bytes @ 0x0
   640                           
   641  0000'                    ___fleq@ff1:	
   642                           ; 4 bytes @ 0x0
   643                           
   644  0000'                    ___flneg@f1:	
   645                           ; 4 bytes @ 0x0
   646                           
   647  0000'                    __tdiv_to_l_@f1:	
   648                           ; 4 bytes @ 0x0
   649                           
   650  0000'                    ___llmod@divisor:	
   651                           ; 4 bytes @ 0x0
   652                           
   653                           
   654                           ; 4 bytes @ 0x0
   655  0000'                    	ds	1
   656  0001'                    ??_Lcd_Cmd:
   657  0001'                    ??_Lcd_Write_Char:	
   658                           ; 1 bytes @ 0x1
   659                           
   660                           
   661                           ; 1 bytes @ 0x1
   662  0001'                    	ds	1
   663  0002'                    ??__Umul8_16:
   664  0002'                    ??_ReadADC:	
   665                           ; 1 bytes @ 0x2
   666                           
   667  0002'                    Lcd_Write_Char@temp:	
   668                           ; 1 bytes @ 0x2
   669                           
   670  0002'                    ReadADC@TempValue:	
   671                           ; 1 bytes @ 0x2
   672                           
   673  0002'                    ___wmul@multiplicand:	
   674                           ; 2 bytes @ 0x2
   675                           
   676  0002'                    ___awmod@dividend:	
   677                           ; 2 bytes @ 0x2
   678                           
   679  0002'                    ___lwmod@dividend:	
   680                           ; 2 bytes @ 0x2
   681                           
   682                           
   683                           ; 2 bytes @ 0x2
   684  0002'                    	ds	1
   685  0003'                    Lcd_Cmd@a:
   686  0003'                    Lcd_Write_Char@y:	
   687                           ; 1 bytes @ 0x3
   688                           
   689                           
   690                           ; 1 bytes @ 0x3
   691  0003'                    	ds	1
   692  0004'                    ?_Lcd_Set_Cursor:
   693  0004'                    ??_Lcd_Init:	
   694                           ; 1 bytes @ 0x4
   695                           
   696  0004'                    ??___wmul:	
   697                           ; 1 bytes @ 0x4
   698                           
   699  0004'                    ??___awmod:	
   700                           ; 1 bytes @ 0x4
   701                           
   702  0004'                    ??___flneg:	
   703                           ; 1 bytes @ 0x4
   704                           
   705  0004'                    ??___lwmod:	
   706                           ; 1 bytes @ 0x4
   707                           
   708  0004'                    Lcd_Set_Cursor@b:	
   709                           ; 1 bytes @ 0x4
   710                           
   711  0004'                    Lcd_Write_Char@a:	
   712                           ; 1 bytes @ 0x4
   713                           
   714  0004'                    ___wmul@product:	
   715                           ; 1 bytes @ 0x4
   716                           
   717  0004'                    __Umul8_16@product:	
   718                           ; 2 bytes @ 0x4
   719                           
   720  0004'                    ___lldiv@dividend:	
   721                           ; 2 bytes @ 0x4
   722                           
   723  0004'                    __div_to_l_@f2:	
   724                           ; 4 bytes @ 0x4
   725                           
   726  0004'                    ___fleq@ff2:	
   727                           ; 4 bytes @ 0x4
   728                           
   729  0004'                    __tdiv_to_l_@f2:	
   730                           ; 4 bytes @ 0x4
   731                           
   732  0004'                    ___llmod@dividend:	
   733                           ; 4 bytes @ 0x4
   734                           
   735                           
   736                           ; 4 bytes @ 0x4
   737  0004'                    	ds	1
   738  0005'                    ??_Lcd_Set_Cursor:
   739  0005'                    ?_Lcd_Write_String:	
   740                           ; 1 bytes @ 0x5
   741                           
   742  0005'                    ___awmod@counter:	
   743                           ; 1 bytes @ 0x5
   744                           
   745  0005'                    ___lwmod@counter:	
   746                           ; 1 bytes @ 0x5
   747                           
   748  0005'                    Lcd_Write_String@a:	
   749                           ; 1 bytes @ 0x5
   750                           
   751                           
   752                           ; 2 bytes @ 0x5
   753  0005'                    	ds	1
   754  0006'                    ?___lwdiv:
   755  0006'                    Lcd_Set_Cursor@a:	
   756                           ; 2 bytes @ 0x6
   757                           
   758  0006'                    ___awmod@sign:	
   759                           ; 1 bytes @ 0x6
   760                           
   761  0006'                    ___lwdiv@divisor:	
   762                           ; 1 bytes @ 0x6
   763                           
   764  0006'                    __Umul8_16@word_mpld:	
   765                           ; 2 bytes @ 0x6
   766                           
   767                           
   768                           ; 2 bytes @ 0x6
   769  0006'                    	ds	1
   770  0007'                    ??_Lcd_Write_String:
   771  0007'                    ?___awdiv:	
   772                           ; 1 bytes @ 0x7
   773                           
   774  0007'                    Lcd_Set_Cursor@z:	
   775                           ; 2 bytes @ 0x7
   776                           
   777  0007'                    ___awdiv@divisor:	
   778                           ; 1 bytes @ 0x7
   779                           
   780                           
   781                           ; 2 bytes @ 0x7
   782  0007'                    	ds	1
   783  0008'                    ??__tdiv_to_l_:
   784  0008'                    ??__div_to_l_:	
   785                           ; 1 bytes @ 0x8
   786                           
   787  0008'                    ??___lldiv:	
   788                           ; 1 bytes @ 0x8
   789                           
   790  0008'                    ??___fleq:	
   791                           ; 1 bytes @ 0x8
   792                           
   793  0008'                    ??___llmod:	
   794                           ; 1 bytes @ 0x8
   795                           
   796  0008'                    Lcd_Set_Cursor@y:	
   797                           ; 1 bytes @ 0x8
   798                           
   799  0008'                    __Umul8_16@multiplier:	
   800                           ; 1 bytes @ 0x8
   801                           
   802  0008'                    ___lwdiv@dividend:	
   803                           ; 1 bytes @ 0x8
   804                           
   805                           
   806                           ; 2 bytes @ 0x8
   807  0008'                    	ds	1
   808  0009'                    Lcd_Set_Cursor@temp:
   809  0009'                    ___llmod@counter:	
   810                           ; 1 bytes @ 0x9
   811                           
   812  0009'                    ___awdiv@dividend:	
   813                           ; 1 bytes @ 0x9
   814                           
   815  0009'                    ___lldiv@quotient:	
   816                           ; 2 bytes @ 0x9
   817                           
   818                           
   819                           ; 4 bytes @ 0x9
   820  0009'                    	ds	1
   821  000A'                    ??___lwdiv:
   822  000A'                    Lcd_Write_String@i:	
   823                           ; 1 bytes @ 0xA
   824                           
   825                           
   826                           ; 2 bytes @ 0xA
   827  000A'                    	ds	1
   828  000B'                    ??___awdiv:
   829  000B'                    ___lwdiv@quotient:	
   830                           ; 1 bytes @ 0xB
   831                           
   832                           
   833                           ; 2 bytes @ 0xB
   834  000B'                    	ds	2
   835  000D'                    ___lldiv@counter:
   836  000D'                    ___lwdiv@counter:	
   837                           ; 1 bytes @ 0xD
   838                           
   839                           
   840                           ; 1 bytes @ 0xD
   841  000D'                    	ds	1
   842  000E'                    ??___flsub:
   843                           
   844                           	psect	cstackBANK0
   845  0000'                    __pcstackBANK0:	
   846                           ; 1 bytes @ 0xE
   847                           
   848  0000'                    ?___xxtofl:
   849  0000'                    ___awdiv@counter:	
   850                           ; 4 bytes @ 0x0
   851                           
   852  0000'                    __div_to_l_@quot:	
   853                           ; 1 bytes @ 0x0
   854                           
   855  0000'                    __tdiv_to_l_@quot:	
   856                           ; 4 bytes @ 0x0
   857                           
   858  0000'                    ___xxtofl@val:	
   859                           ; 4 bytes @ 0x0
   860                           
   861                           
   862                           ; 4 bytes @ 0x0
   863  0000'                    	ds	1
   864  0001'                    ___awdiv@sign:
   865                           
   866                           ; 1 bytes @ 0x1
   867  0001'                    	ds	1
   868  0002'                    ___awdiv@quotient:
   869                           
   870                           ; 2 bytes @ 0x2
   871  0002'                    	ds	2
   872  0004'                    ??___xxtofl:
   873  0004'                    __div_to_l_@cntr:	
   874                           ; 1 bytes @ 0x4
   875                           
   876  0004'                    __tdiv_to_l_@cntr:	
   877                           ; 1 bytes @ 0x4
   878                           
   879                           
   880                           ; 1 bytes @ 0x4
   881  0004'                    	ds	1
   882  0005'                    __div_to_l_@exp1:
   883  0005'                    __tdiv_to_l_@exp1:	
   884                           ; 1 bytes @ 0x5
   885                           
   886                           
   887                           ; 1 bytes @ 0x5
   888  0005'                    	ds	3
   889  0008'                    ___xxtofl@sign:
   890                           
   891                           ; 1 bytes @ 0x8
   892  0008'                    	ds	1
   893  0009'                    ___xxtofl@exp:
   894                           
   895                           ; 1 bytes @ 0x9
   896  0009'                    	ds	1
   897  000A'                    ___xxtofl@arg:
   898                           
   899                           ; 4 bytes @ 0xA
   900  000A'                    	ds	4
   901  000E'                    ?___flmul:
   902  000E'                    ___flmul@b:	
   903                           ; 4 bytes @ 0xE
   904                           
   905                           
   906                           ; 4 bytes @ 0xE
   907  000E'                    	ds	4
   908  0012'                    ___flmul@a:
   909                           
   910                           ; 4 bytes @ 0x12
   911  0012'                    	ds	4
   912  0016'                    ??___flmul:
   913                           
   914                           ; 1 bytes @ 0x16
   915  0016'                    	ds	5
   916  001B'                    ___flmul@sign:
   917                           
   918                           ; 1 bytes @ 0x1B
   919  001B'                    	ds	1
   920  001C'                    ___flmul@grs:
   921                           
   922                           ; 4 bytes @ 0x1C
   923  001C'                    	ds	4
   924  0020'                    ___flmul@aexp:
   925                           
   926                           ; 1 bytes @ 0x20
   927  0020'                    	ds	1
   928  0021'                    ___flmul@bexp:
   929                           
   930                           ; 1 bytes @ 0x21
   931  0021'                    	ds	1
   932  0022'                    ___flmul@prod:
   933                           
   934                           ; 4 bytes @ 0x22
   935  0022'                    	ds	4
   936  0026'                    ___flmul@temp:
   937                           
   938                           ; 2 bytes @ 0x26
   939  0026'                    	ds	2
   940  0028'                    ?_fround:
   941  0028'                    ?_scale:	
   942                           ; 4 bytes @ 0x28
   943                           
   944                           
   945                           ; 4 bytes @ 0x28
   946  0028'                    	ds	4
   947  002C'                    ??_fround:
   948  002C'                    ??_scale:	
   949                           ; 1 bytes @ 0x2C
   950                           
   951                           
   952                           ; 1 bytes @ 0x2C
   953  002C'                    	ds	7
   954  0033'                    _fround$895:
   955                           
   956                           ; 4 bytes @ 0x33
   957  0033'                    	ds	3
   958  0036'                    _scale$896:
   959                           
   960                           ; 4 bytes @ 0x36
   961  0036'                    	ds	1
   962  0037'                    _fround$894:
   963                           
   964                           ; 4 bytes @ 0x37
   965  0037'                    	ds	3
   966  003A'                    scale@scl:
   967                           
   968                           ; 1 bytes @ 0x3A
   969  003A'                    	ds	1
   970  003B'                    ?___fltol:
   971  003B'                    ?___fldiv:	
   972                           ; 4 bytes @ 0x3B
   973                           
   974  003B'                    fround@prec:	
   975                           ; 4 bytes @ 0x3B
   976                           
   977  003B'                    ___fltol@f1:	
   978                           ; 1 bytes @ 0x3B
   979                           
   980  003B'                    ___fldiv@a:	
   981                           ; 4 bytes @ 0x3B
   982                           
   983                           
   984                           ; 4 bytes @ 0x3B
   985  003B'                    	ds	1
   986  003C'                    ?___fladd:
   987  003C'                    ___fladd@b:	
   988                           ; 4 bytes @ 0x3C
   989                           
   990                           
   991                           ; 4 bytes @ 0x3C
   992  003C'                    	ds	3
   993  003F'                    ??___fltol:
   994  003F'                    ___fldiv@b:	
   995                           ; 1 bytes @ 0x3F
   996                           
   997                           
   998                           ; 4 bytes @ 0x3F
   999  003F'                    	ds	1
  1000  0040'                    ___fladd@a:
  1001                           
  1002                           ; 4 bytes @ 0x40
  1003  0040'                    	ds	3
  1004  0043'                    ??___fldiv:
  1005  0043'                    ___fltol@sign1:	
  1006                           ; 1 bytes @ 0x43
  1007                           
  1008                           
  1009                           ; 1 bytes @ 0x43
  1010  0043'                    	ds	1
  1011  0044'                    ??___fladd:
  1012  0044'                    ___fltol@exp1:	
  1013                           ; 1 bytes @ 0x44
  1014                           
  1015                           
  1016                           ; 1 bytes @ 0x44
  1017  0044'                    	ds	8
  1018  004C'                    ___fladd@signs:
  1019                           
  1020                           ; 1 bytes @ 0x4C
  1021  004C'                    	ds	1
  1022  004D'                    ___fladd@aexp:
  1023                           
  1024                           ; 1 bytes @ 0x4D
  1025  004D'                    	ds	1
  1026  004E'                    ___fladd@bexp:
  1027                           
  1028                           ; 1 bytes @ 0x4E
  1029  004E'                    	ds	1
  1030  004F'                    ___fladd@grs:
  1031                           
  1032                           ; 1 bytes @ 0x4F
  1033  004F'                    	ds	1
  1034                           
  1035                           	psect	maintext
  1036  0000'                    __pmaintext:	
  1037 ;;
  1038 ;;Main: autosize = 0, tempsize = 4, incstack = 0, save=0
  1039 ;;
  1040 ;; *************** function _main *****************
  1041 ;; Defined at:
  1042 ;;		line 85 in file "bai 3.c"
  1043 ;; Parameters:    Size  Location     Type
  1044 ;;		None
  1045 ;; Auto vars:     Size  Location     Type
  1046 ;;  s              20    0[BANK3 ] unsigned char [20]
  1047 ;; Return value:  Size  Location     Type
  1048 ;;                  1    wreg      void 
  1049 ;; Registers used:
  1050 ;;		wreg, fsr0l, fsr0h, status,2, status,0, btemp+1, pclath, cstack
  1051 ;; Tracked objects:
  1052 ;;		On entry : B00/0
  1053 ;;		On exit  : 0/0
  1054 ;;		Unchanged: 0/0
  1055 ;; Data sizes:     COMMON   BANK0   BANK1   BANK3   BANK2
  1056 ;;      Params:         0       0       0       0       0
  1057 ;;      Locals:         0       0       0      20       0
  1058 ;;      Temps:          0       0       4       0       0
  1059 ;;      Totals:         0       0       4      20       0
  1060 ;;Total ram usage:       24 bytes
  1061 ;; Hardware stack levels required when called: 4
  1062 ;; This function calls:
  1063 ;;		_ADC_init
  1064 ;;		_Lcd_Init
  1065 ;;		_Lcd_Set_Cursor
  1066 ;;		_Lcd_Write_Char
  1067 ;;		_Lcd_Write_String
  1068 ;;		_ReadADC
  1069 ;;		___flge
  1070 ;;		___flmul
  1071 ;;		___fltol
  1072 ;;		___lwdiv
  1073 ;;		___xxtofl
  1074 ;;		_sprintf
  1075 ;; This function is called by:
  1076 ;;		Startup code after reset
  1077 ;; This function uses a non-reentrant model
  1078 ;;
  1079                           
  1080  0000'                    _main:	
  1081                           ;psect for function _main
  1082                           
  1083  0000'                    l3679:	
  1084                           ;incstack = 0
  1085                           ; Regs used in _main: [wreg-fsr0h+status,2+status,0+btemp+1+pclath+cstack]
  1086                           
  1087                           
  1088                           ;bai 3.c: 87:     Lcd_Init();
  1089  0000' 120A' 118A' 2000' 120A' 118A' 	fcall	_Lcd_Init
  1090  0005'                    l3681:
  1091                           
  1092                           ;bai 3.c: 88:     ADC_init();
  1093  0005' 120A' 118A' 2000' 120A' 118A' 	fcall	_ADC_init
  1094  000A'                    l3683:
  1095                           
  1096                           ;bai 3.c: 89:     char s[20];;bai 3.c: 90:     TRISD = 0x00;
  1097  000A' 1683               	bsf	3,5	;RP0=1, select bank1
  1098  000B' 1303               	bcf	3,6	;RP1=0, select bank1
  1099  000C' 0188               	clrf	8	;volatile
  1100  000D'                    l3685:
  1101                           
  1102                           ;bai 3.c: 91:     RA0=1;
  1103  000D' 1283               	bcf	3,5	;RP0=0, select bank0
  1104  000E' 1303               	bcf	3,6	;RP1=0, select bank0
  1105  000F' 1405               	bsf	5,0	;volatile
  1106  0010'                    l3687:
  1107                           
  1108                           ;bai 3.c: 92:     TRISA0=1;
  1109  0010' 1683               	bsf	3,5	;RP0=1, select bank1
  1110  0011' 1303               	bcf	3,6	;RP1=0, select bank1
  1111  0012' 1405               	bsf	5,0	;volatile
  1112  0013'                    l3689:
  1113                           
  1114                           ;bai 3.c: 93:     TRISD=0;
  1115  0013' 0188               	clrf	8	;volatile
  1116  0014'                    l3691:
  1117                           
  1118                           ;bai 3.c: 94:     TRISB=0;
  1119  0014' 0186               	clrf	6	;volatile
  1120  0015'                    l3693:
  1121                           
  1122                           ;bai 3.c: 99:     {;bai 3.c: 100:         ADC_value=ReadADC();
  1123  0015' 120A' 118A' 2000' 120A' 118A' 	fcall	_ReadADC
  1124  001A' 0801'              	movf	?_ReadADC+1,w
  1125  001B' 1683               	bsf	3,5	;RP0=1, select bank3
  1126  001C' 1703               	bsf	3,6	;RP1=1, select bank3
  1127  001D' 0080'              	movwf	(_ADC_value+1)^(0+384)
  1128  001E' 0800'              	movf	?_ReadADC,w
  1129  001F' 0080'              	movwf	_ADC_value^(0+384)
  1130  0020'                    l3695:
  1131                           
  1132                           ;bai 3.c: 101:         voltage = 5000.0f/1023*ADC_value;
  1133  0020' 0800'              	movf	_ADC_value^(0+384),w
  1134  0021' 1283               	bcf	3,5	;RP0=0, select bank0
  1135  0022' 1303               	bcf	3,6	;RP1=0, select bank0
  1136  0023' 0080'              	movwf	___xxtofl@val
  1137  0024' 1683               	bsf	3,5	;RP0=1, select bank3
  1138  0025' 1703               	bsf	3,6	;RP1=1, select bank3
  1139  0026' 0800'              	movf	(_ADC_value+1)^(0+384),w
  1140  0027' 1283               	bcf	3,5	;RP0=0, select bank0
  1141  0028' 1303               	bcf	3,6	;RP1=0, select bank0
  1142  0029' 0081'              	movwf	___xxtofl@val+1
  1143  002A' 0182'              	clrf	___xxtofl@val+2
  1144  002B' 0183'              	clrf	___xxtofl@val+3
  1145  002C' 3000               	movlw	0
  1146  002D' 120A' 118A' 2000' 120A' 118A' 	fcall	___xxtofl
  1147  0032' 1283               	bcf	3,5	;RP0=0, select bank0
  1148  0033' 1303               	bcf	3,6	;RP1=0, select bank0
  1149  0034' 0803'              	movf	?___xxtofl+3,w
  1150  0035' 0095'              	movwf	___flmul@a+3
  1151  0036' 0802'              	movf	?___xxtofl+2,w
  1152  0037' 0094'              	movwf	___flmul@a+2
  1153  0038' 0801'              	movf	?___xxtofl+1,w
  1154  0039' 0093'              	movwf	___flmul@a+1
  1155  003A' 0800'              	movf	?___xxtofl,w
  1156  003B' 0092'              	movwf	___flmul@a
  1157  003C' 3040               	movlw	64
  1158  003D' 0091'              	movwf	___flmul@b+3
  1159  003E' 309C               	movlw	156
  1160  003F' 0090'              	movwf	___flmul@b+2
  1161  0040' 3067               	movlw	103
  1162  0041' 008F'              	movwf	___flmul@b+1
  1163  0042' 301A               	movlw	26
  1164  0043' 008E'              	movwf	___flmul@b
  1165  0044' 120A' 118A' 2000' 120A' 118A' 	fcall	___flmul
  1166  0049' 1283               	bcf	3,5	;RP0=0, select bank0
  1167  004A' 1303               	bcf	3,6	;RP1=0, select bank0
  1168  004B' 0811'              	movf	?___flmul+3,w
  1169  004C' 00BE'              	movwf	___fltol@f1+3
  1170  004D' 0810'              	movf	?___flmul+2,w
  1171  004E' 00BD'              	movwf	___fltol@f1+2
  1172  004F' 080F'              	movf	?___flmul+1,w
  1173  0050' 00BC'              	movwf	___fltol@f1+1
  1174  0051' 080E'              	movf	?___flmul,w
  1175  0052' 00BB'              	movwf	___fltol@f1
  1176  0053' 120A' 118A' 2000' 120A' 118A' 	fcall	___fltol
  1177  0058' 1283               	bcf	3,5	;RP0=0, select bank0
  1178  0059' 1303               	bcf	3,6	;RP1=0, select bank0
  1179  005A' 083C'              	movf	?___fltol+1,w
  1180  005B' 1683               	bsf	3,5	;RP0=1, select bank3
  1181  005C' 1703               	bsf	3,6	;RP1=1, select bank3
  1182  005D' 0080'              	movwf	(_voltage+1)^(0+384)
  1183  005E' 1283               	bcf	3,5	;RP0=0, select bank0
  1184  005F' 1303               	bcf	3,6	;RP1=0, select bank0
  1185  0060' 083B'              	movf	?___fltol,w
  1186  0061' 1683               	bsf	3,5	;RP0=1, select bank3
  1187  0062' 1703               	bsf	3,6	;RP1=1, select bank3
  1188  0063' 0080'              	movwf	_voltage^(0+384)
  1189  0064'                    l3697:
  1190                           
  1191                           ;bai 3.c: 102:         f=voltage/10;
  1192  0064' 0800'              	movf	(_voltage+1)^(0+384),w
  1193  0065' 0089'              	movwf	___lwdiv@dividend+1
  1194  0066' 0800'              	movf	_voltage^(0+384),w
  1195  0067' 0088'              	movwf	___lwdiv@dividend
  1196  0068' 300A               	movlw	10
  1197  0069' 0086'              	movwf	___lwdiv@divisor
  1198  006A' 3000               	movlw	0
  1199  006B' 0087'              	movwf	___lwdiv@divisor+1
  1200  006C' 120A' 118A' 2000' 120A' 118A' 	fcall	___lwdiv
  1201  0071' 0806'              	movf	?___lwdiv,w
  1202  0072' 1683               	bsf	3,5	;RP0=1, select bank1
  1203  0073' 1303               	bcf	3,6	;RP1=0, select bank1
  1204  0074' 0080'              	movwf	??_main^(0+128)
  1205  0075' 0807'              	movf	?___lwdiv+1,w
  1206  0076' 0081'              	movwf	(??_main^(0+128)+1)
  1207  0077' 0182'              	clrf	(??_main^(0+128)+2)
  1208  0078' 0183'              	clrf	(??_main^(0+128)+3)
  1209  0079' 0800'              	movf	(??_main+3)^(0+128),w
  1210  007A' 1283               	bcf	3,5	;RP0=0, select bank0
  1211  007B' 1303               	bcf	3,6	;RP1=0, select bank0
  1212  007C' 0083'              	movwf	___xxtofl@val+3
  1213  007D' 1683               	bsf	3,5	;RP0=1, select bank1
  1214  007E' 1303               	bcf	3,6	;RP1=0, select bank1
  1215  007F' 0800'              	movf	(??_main+2)^(0+128),w
  1216  0080' 1283               	bcf	3,5	;RP0=0, select bank0
  1217  0081' 1303               	bcf	3,6	;RP1=0, select bank0
  1218  0082' 0082'              	movwf	___xxtofl@val+2
  1219  0083' 1683               	bsf	3,5	;RP0=1, select bank1
  1220  0084' 1303               	bcf	3,6	;RP1=0, select bank1
  1221  0085' 0800'              	movf	(??_main+1)^(0+128),w
  1222  0086' 1283               	bcf	3,5	;RP0=0, select bank0
  1223  0087' 1303               	bcf	3,6	;RP1=0, select bank0
  1224  0088' 0081'              	movwf	___xxtofl@val+1
  1225  0089' 1683               	bsf	3,5	;RP0=1, select bank1
  1226  008A' 1303               	bcf	3,6	;RP1=0, select bank1
  1227  008B' 0800'              	movf	??_main^(0+128),w
  1228  008C' 1283               	bcf	3,5	;RP0=0, select bank0
  1229  008D' 1303               	bcf	3,6	;RP1=0, select bank0
  1230  008E' 0080'              	movwf	___xxtofl@val
  1231  008F' 3000               	movlw	0
  1232  0090' 120A' 118A' 2000' 120A' 118A' 	fcall	___xxtofl
  1233  0095' 1283               	bcf	3,5	;RP0=0, select bank0
  1234  0096' 1303               	bcf	3,6	;RP1=0, select bank0
  1235  0097' 0803'              	movf	?___xxtofl+3,w
  1236  0098' 1683               	bsf	3,5	;RP0=1, select bank3
  1237  0099' 1703               	bsf	3,6	;RP1=1, select bank3
  1238  009A' 0080'              	movwf	(_f+3)^(0+384)
  1239  009B' 1283               	bcf	3,5	;RP0=0, select bank0
  1240  009C' 1303               	bcf	3,6	;RP1=0, select bank0
  1241  009D' 0802'              	movf	?___xxtofl+2,w
  1242  009E' 1683               	bsf	3,5	;RP0=1, select bank3
  1243  009F' 1703               	bsf	3,6	;RP1=1, select bank3
  1244  00A0' 0080'              	movwf	(_f+2)^(0+384)
  1245  00A1' 1283               	bcf	3,5	;RP0=0, select bank0
  1246  00A2' 1303               	bcf	3,6	;RP1=0, select bank0
  1247  00A3' 0801'              	movf	?___xxtofl+1,w
  1248  00A4' 1683               	bsf	3,5	;RP0=1, select bank3
  1249  00A5' 1703               	bsf	3,6	;RP1=1, select bank3
  1250  00A6' 0080'              	movwf	(_f+1)^(0+384)
  1251  00A7' 1283               	bcf	3,5	;RP0=0, select bank0
  1252  00A8' 1303               	bcf	3,6	;RP1=0, select bank0
  1253  00A9' 0800'              	movf	?___xxtofl,w
  1254  00AA' 1683               	bsf	3,5	;RP0=1, select bank3
  1255  00AB' 1703               	bsf	3,6	;RP1=1, select bank3
  1256  00AC' 0080'              	movwf	_f^(0+384)
  1257  00AD'                    l3699:
  1258                           
  1259                           ;bai 3.c: 103:         sprintf(s,"NHIET DO = %g",f);
  1260  00AD' 3091               	movlw	(low ((STR_1-__stringbase)| (0+32768)))& (0+255)
  1261  00AE' 1683               	bsf	3,5	;RP0=1, select bank1
  1262  00AF' 1303               	bcf	3,6	;RP1=0, select bank1
  1263  00B0' 0080'              	movwf	sprintf@f^(0+128)
  1264  00B1' 1683               	bsf	3,5	;RP0=1, select bank3
  1265  00B2' 1703               	bsf	3,6	;RP1=1, select bank3
  1266  00B3' 0800'              	movf	(_f+3)^(0+384),w
  1267  00B4' 1683               	bsf	3,5	;RP0=1, select bank1
  1268  00B5' 1303               	bcf	3,6	;RP1=0, select bank1
  1269  00B6' 0081'              	movwf	((?_sprintf+3)^(0+128)+1)
  1270  00B7' 1683               	bsf	3,5	;RP0=1, select bank3
  1271  00B8' 1703               	bsf	3,6	;RP1=1, select bank3
  1272  00B9' 0800'              	movf	(_f+2)^(0+384),w
  1273  00BA' 1683               	bsf	3,5	;RP0=1, select bank1
  1274  00BB' 1303               	bcf	3,6	;RP1=0, select bank1
  1275  00BC' 0081'              	movwf	((?_sprintf+2)^(0+128)+1)
  1276  00BD' 1683               	bsf	3,5	;RP0=1, select bank3
  1277  00BE' 1703               	bsf	3,6	;RP1=1, select bank3
  1278  00BF' 0800'              	movf	(_f+1)^(0+384),w
  1279  00C0' 1683               	bsf	3,5	;RP0=1, select bank1
  1280  00C1' 1303               	bcf	3,6	;RP1=0, select bank1
  1281  00C2' 0081'              	movwf	((?_sprintf+1)^(0+128)+1)
  1282  00C3' 1683               	bsf	3,5	;RP0=1, select bank3
  1283  00C4' 1703               	bsf	3,6	;RP1=1, select bank3
  1284  00C5' 0800'              	movf	_f^(0+384),w
  1285  00C6' 1683               	bsf	3,5	;RP0=1, select bank1
  1286  00C7' 1303               	bcf	3,6	;RP1=0, select bank1
  1287  00C8' 0081'              	movwf	(?_sprintf^(0+128)+1)
  1288  00C9' 3000'              	movlw	(low (main@s| (0+256)))& (0+255)
  1289  00CA' 120A' 118A' 2000' 120A' 118A' 	fcall	_sprintf
  1290  00CF'                    l3701:
  1291                           
  1292                           ;bai 3.c: 104:         Lcd_Set_Cursor(1,1);
  1293  00CF' 0184'              	clrf	Lcd_Set_Cursor@b
  1294  00D0' 0A84'              	incf	Lcd_Set_Cursor@b,f
  1295  00D1' 3001               	movlw	1
  1296  00D2' 120A' 118A' 2000' 120A' 118A' 	fcall	_Lcd_Set_Cursor
  1297  00D7'                    l3703:
  1298                           
  1299                           ;bai 3.c: 105:         Lcd_Write_String(s);
  1300  00D7' 3000'              	movlw	(low (main@s| (0+256)))& (0+255)
  1301  00D8' 0085'              	movwf	Lcd_Write_String@a
  1302  00D9' 3001               	movlw	1
  1303  00DA' 0086'              	movwf	Lcd_Write_String@a+1
  1304  00DB' 120A' 118A' 2000' 120A' 118A' 	fcall	_Lcd_Write_String
  1305  00E0'                    l3705:
  1306                           
  1307                           ;bai 3.c: 106:         Lcd_Write_Char(223);
  1308  00E0' 30DF               	movlw	223
  1309  00E1' 120A' 118A' 2000' 120A' 118A' 	fcall	_Lcd_Write_Char
  1310  00E6'                    l3707:
  1311                           
  1312                           ;bai 3.c: 107:         Lcd_Write_String("C");
  1313  00E6' 309F               	movlw	(low ((STR_2-__stringbase)| (0+32768)))& (0+255)
  1314  00E7' 0085'              	movwf	Lcd_Write_String@a
  1315  00E8' 3080               	movlw	128
  1316  00E9' 0086'              	movwf	Lcd_Write_String@a+1
  1317  00EA' 120A' 118A' 2000' 120A' 118A' 	fcall	_Lcd_Write_String
  1318  00EF'                    l3709:
  1319                           
  1320                           ;bai 3.c: 109:         if(f>=25 && f<=30)
  1321  00EF' 1683               	bsf	3,5	;RP0=1, select bank3
  1322  00F0' 1703               	bsf	3,6	;RP1=1, select bank3
  1323  00F1' 0800'              	movf	(_f+3)^(0+384),w
  1324  00F2' 1683               	bsf	3,5	;RP0=1, select bank1
  1325  00F3' 1303               	bcf	3,6	;RP1=0, select bank1
  1326  00F4' 0080'              	movwf	(___flge@ff1+3)^(0+128)
  1327  00F5' 1683               	bsf	3,5	;RP0=1, select bank3
  1328  00F6' 1703               	bsf	3,6	;RP1=1, select bank3
  1329  00F7' 0800'              	movf	(_f+2)^(0+384),w
  1330  00F8' 1683               	bsf	3,5	;RP0=1, select bank1
  1331  00F9' 1303               	bcf	3,6	;RP1=0, select bank1
  1332  00FA' 0080'              	movwf	(___flge@ff1+2)^(0+128)
  1333  00FB' 1683               	bsf	3,5	;RP0=1, select bank3
  1334  00FC' 1703               	bsf	3,6	;RP1=1, select bank3
  1335  00FD' 0800'              	movf	(_f+1)^(0+384),w
  1336  00FE' 1683               	bsf	3,5	;RP0=1, select bank1
  1337  00FF' 1303               	bcf	3,6	;RP1=0, select bank1
  1338  0100' 0080'              	movwf	(___flge@ff1+1)^(0+128)
  1339  0101' 1683               	bsf	3,5	;RP0=1, select bank3
  1340  0102' 1703               	bsf	3,6	;RP1=1, select bank3
  1341  0103' 0800'              	movf	_f^(0+384),w
  1342  0104' 1683               	bsf	3,5	;RP0=1, select bank1
  1343  0105' 1303               	bcf	3,6	;RP1=0, select bank1
  1344  0106' 0080'              	movwf	___flge@ff1^(0+128)
  1345  0107' 3041               	movlw	65
  1346  0108' 0080'              	movwf	(___flge@ff2+3)^(0+128)
  1347  0109' 30C8               	movlw	200
  1348  010A' 0080'              	movwf	(___flge@ff2+2)^(0+128)
  1349  010B' 3000               	movlw	0
  1350  010C' 0080'              	movwf	(___flge@ff2+1)^(0+128)
  1351  010D' 3000               	movlw	0
  1352  010E' 0080'              	movwf	___flge@ff2^(0+128)
  1353  010F' 120A' 118A' 2000' 120A' 118A' 	fcall	___flge
  1354  0114' 1C03               	btfss	3,0
  1355  0115' 2800'              	goto	u6461
  1356  0116' 2800'              	goto	u6460
  1357  0117'                    u6461:
  1358  0117' 2800'              	goto	l90
  1359  0118'                    u6460:
  1360  0118'                    l3711:
  1361  0118' 3041               	movlw	65
  1362  0119' 1683               	bsf	3,5	;RP0=1, select bank1
  1363  011A' 1303               	bcf	3,6	;RP1=0, select bank1
  1364  011B' 0080'              	movwf	(___flge@ff1+3)^(0+128)
  1365  011C' 30F0               	movlw	240
  1366  011D' 0080'              	movwf	(___flge@ff1+2)^(0+128)
  1367  011E' 3000               	movlw	0
  1368  011F' 0080'              	movwf	(___flge@ff1+1)^(0+128)
  1369  0120' 3000               	movlw	0
  1370  0121' 0080'              	movwf	___flge@ff1^(0+128)
  1371  0122' 1683               	bsf	3,5	;RP0=1, select bank3
  1372  0123' 1703               	bsf	3,6	;RP1=1, select bank3
  1373  0124' 0800'              	movf	(_f+3)^(0+384),w
  1374  0125' 1683               	bsf	3,5	;RP0=1, select bank1
  1375  0126' 1303               	bcf	3,6	;RP1=0, select bank1
  1376  0127' 0080'              	movwf	(___flge@ff2+3)^(0+128)
  1377  0128' 1683               	bsf	3,5	;RP0=1, select bank3
  1378  0129' 1703               	bsf	3,6	;RP1=1, select bank3
  1379  012A' 0800'              	movf	(_f+2)^(0+384),w
  1380  012B' 1683               	bsf	3,5	;RP0=1, select bank1
  1381  012C' 1303               	bcf	3,6	;RP1=0, select bank1
  1382  012D' 0080'              	movwf	(___flge@ff2+2)^(0+128)
  1383  012E' 1683               	bsf	3,5	;RP0=1, select bank3
  1384  012F' 1703               	bsf	3,6	;RP1=1, select bank3
  1385  0130' 0800'              	movf	(_f+1)^(0+384),w
  1386  0131' 1683               	bsf	3,5	;RP0=1, select bank1
  1387  0132' 1303               	bcf	3,6	;RP1=0, select bank1
  1388  0133' 0080'              	movwf	(___flge@ff2+1)^(0+128)
  1389  0134' 1683               	bsf	3,5	;RP0=1, select bank3
  1390  0135' 1703               	bsf	3,6	;RP1=1, select bank3
  1391  0136' 0800'              	movf	_f^(0+384),w
  1392  0137' 1683               	bsf	3,5	;RP0=1, select bank1
  1393  0138' 1303               	bcf	3,6	;RP1=0, select bank1
  1394  0139' 0080'              	movwf	___flge@ff2^(0+128)
  1395  013A' 120A' 118A' 2000' 120A' 118A' 	fcall	___flge
  1396  013F' 1C03               	btfss	3,0
  1397  0140' 2800'              	goto	u6471
  1398  0141' 2800'              	goto	u6470
  1399  0142'                    u6471:
  1400  0142' 2800'              	goto	l90
  1401  0143'                    u6470:
  1402  0143'                    l3713:
  1403                           
  1404                           ;bai 3.c: 110:         {;bai 3.c: 111:             PORTBbits.RB0=1;
  1405  0143' 1283               	bcf	3,5	;RP0=0, select bank0
  1406  0144' 1303               	bcf	3,6	;RP1=0, select bank0
  1407  0145' 1406               	bsf	6,0	;volatile
  1408                           
  1409                           ;bai 3.c: 112:         }
  1410  0146' 2800'              	goto	l3693
  1411  0147'                    l90:	
  1412                           ;bai 3.c: 113:         else
  1413                           
  1414                           
  1415                           ;bai 3.c: 114:             PORTBbits.RB0=0;
  1416  0147' 1283               	bcf	3,5	;RP0=0, select bank0
  1417  0148' 1303               	bcf	3,6	;RP1=0, select bank0
  1418  0149' 1006               	bcf	6,0	;volatile
  1419  014A' 2800'              	goto	l3693
  1420  014B' 120A' 118A' 2800'  	ljmp	start
  1421  014E'                    __end_of_main:
  1422                           
  1423                           	psect	text1
  1424  0000'                    __ptext1:	
  1425 ;; *************** function _sprintf *****************
  1426 ;; Defined at:
  1427 ;;		line 505 in file "C:\Program Files\Microchip\xc8\v2.40\pic\sources\c90\common\doprnt.c"
  1428 ;; Parameters:    Size  Location     Type
  1429 ;;  sp              1    wreg     PTR unsigned char 
  1430 ;;		 -> main@s(20), 
  1431 ;;  f               1   20[BANK1 ] PTR const unsigned char 
  1432 ;;		 -> STR_1(14), 
  1433 ;; Auto vars:     Size  Location     Type
  1434 ;;  sp              1   53[BANK1 ] PTR unsigned char 
  1435 ;;		 -> main@s(20), 
  1436 ;;  temp            4   35[BANK1 ] PTR unsigned char 
  1437 ;;  fval            4   54[BANK1 ] PTR unsigned char 
  1438 ;;  val             4   45[BANK1 ] unsigned long 
  1439 ;;  tmpval          4   41[BANK1 ] struct .
  1440 ;;  eexp            2   51[BANK1 ] int 
  1441 ;;  prec            2   49[BANK1 ] int 
  1442 ;;  flag            2   39[BANK1 ] unsigned short 
  1443 ;;  cp              2    0        PTR const unsigned char 
  1444 ;;  len             2    0        unsigned int 
  1445 ;;  width           2    0        int 
  1446 ;;  c               1   58[BANK1 ] unsigned char 
  1447 ;;  ap              1   34[BANK1 ] PTR void [1]
  1448 ;;		 -> ?_sprintf(2), 
  1449 ;;  d               1    0        unsigned char 
  1450 ;; Return value:  Size  Location     Type
  1451 ;;                  2   20[BANK1 ] int 
  1452 ;; Registers used:
  1453 ;;		wreg, fsr0l, fsr0h, status,2, status,0, btemp+1, pclath, cstack
  1454 ;; Tracked objects:
  1455 ;;		On entry : 0/0
  1456 ;;		On exit  : 0/0
  1457 ;;		Unchanged: 0/0
  1458 ;; Data sizes:     COMMON   BANK0   BANK1   BANK3   BANK2
  1459 ;;      Params:         0       0       5       0       0
  1460 ;;      Locals:         0       0      29       0       0
  1461 ;;      Temps:          0       0       5       0       0
  1462 ;;      Totals:         0       0      39       0       0
  1463 ;;Total ram usage:       39 bytes
  1464 ;; Hardware stack levels used: 1
  1465 ;; Hardware stack levels required when called: 3
  1466 ;; This function calls:
  1467 ;;		___awdiv
  1468 ;;		___fladd
  1469 ;;		___fldiv
  1470 ;;		___fleq
  1471 ;;		___flge
  1472 ;;		___flmul
  1473 ;;		___flneg
  1474 ;;		___flsub
  1475 ;;		___fltol
  1476 ;;		___lldiv
  1477 ;;		___llmod
  1478 ;;		___lwdiv
  1479 ;;		___lwmod
  1480 ;;		___wmul
  1481 ;;		___xxtofl
  1482 ;;		__div_to_l_
  1483 ;;		__tdiv_to_l_
  1484 ;;		_fround
  1485 ;;		_scale
  1486 ;; This function is called by:
  1487 ;;		_main
  1488 ;; This function uses a non-reentrant model
  1489 ;;
  1490                           
  1491  0000'                    _sprintf:	
  1492                           ;psect for function _sprintf
  1493                           
  1494                           
  1495                           ;incstack = 0
  1496                           ; Regs used in _sprintf: [wreg-fsr0h+status,2+status,0+btemp+1+pclath+cstack]
  1497                           ;sprintf@sp stored from wreg
  1498  0000' 1683               	bsf	3,5	;RP0=1, select bank1
  1499  0001' 1303               	bcf	3,6	;RP1=0, select bank1
  1500  0002' 0080'              	movwf	sprintf@sp^(0+128)
  1501  0003'                    l3363:
  1502                           
  1503                           ;C:\Program Files\Microchip\xc8\v2.40\pic\sources\c90\common\doprnt.c: 505: sprintf(char
      +                           * sp, const char * f, ...);C:\Program Files\Microchip\xc8\v2.40\pic\sources\c90\common\
      +                          doprnt.c: 506: {;C:\Program Files\Microchip\xc8\v2.40\pic\sources\c90\common\doprnt.c: 5
      +                          07:  va_list ap;;C:\Program Files\Microchip\xc8\v2.40\pic\sources\c90\common\doprnt.c: 5
      +                          12:  char c;;C:\Program Files\Microchip\xc8\v2.40\pic\sources\c90\common\doprnt.c: 514: 
      +                           int width;;C:\Program Files\Microchip\xc8\v2.40\pic\sources\c90\common\doprnt.c: 517:  
      +                          int prec;
  1504  0003' 3000'              	movlw	(low ((?_sprintf| 0+1)))& (0+255)
  1505  0004' 0080'              	movwf	sprintf@ap^(0+128)
  1506  0005'                    L1:
  1507                           
  1508                           ;C:\Program Files\Microchip\xc8\v2.40\pic\sources\c90\common\doprnt.c: 553:  while((c = 
      +                          *f++)) {
  1509  0005' 120A' 118A' 2800'  	goto	l3665
  1510  0008'                    l3365:
  1511                           
  1512                           ;C:\Program Files\Microchip\xc8\v2.40\pic\sources\c90\common\doprnt.c: 555:   if(c != '%
      +                          ')
  1513  0008' 3025               	movlw	37
  1514  0009' 0600'              	xorwf	sprintf@c^(0+128),w
  1515  000A' 1903               	btfsc	3,2
  1516  000B' 2800'              	goto	u5881
  1517  000C' 2800'              	goto	u5880
  1518  000D'                    u5881:
  1519  000D' 2800'              	goto	l3371
  1520  000E'                    u5880:
  1521  000E'                    l3367:
  1522                           
  1523                           ;C:\Program Files\Microchip\xc8\v2.40\pic\sources\c90\common\doprnt.c: 557:   {;C:\Progr
      +                          am Files\Microchip\xc8\v2.40\pic\sources\c90\common\doprnt.c: 558:    ((*sp++ = (c)));
  1524  000E' 0800'              	movf	sprintf@sp^(0+128),w
  1525  000F' 0084               	movwf	4
  1526  0010' 0800'              	movf	sprintf@c^(0+128),w
  1527  0011' 1783               	bsf	3,7	;select IRP bank2
  1528  0012' 0080               	movwf	0
  1529  0013'                    l3369:
  1530  0013' 3001               	movlw	1
  1531  0014' 1683               	bsf	3,5	;RP0=1, select bank1
  1532  0015' 1303               	bcf	3,6	;RP1=0, select bank1
  1533  0016' 0080'              	movwf	??_sprintf^(0+128)
  1534  0017' 0800'              	movf	??_sprintf^(0+128),w
  1535  0018' 0780'              	addwf	sprintf@sp^(0+128),f
  1536                           
  1537                           ;C:\Program Files\Microchip\xc8\v2.40\pic\sources\c90\common\doprnt.c: 559:    continue;
  1538  0019' 2800'              	goto	L1
  1539  001A'                    l3371:
  1540                           
  1541                           ;C:\Program Files\Microchip\xc8\v2.40\pic\sources\c90\common\doprnt.c: 565:   flag = 0;
  1542  001A' 0180'              	clrf	sprintf@flag^(0+128)
  1543  001B' 0180'              	clrf	(sprintf@flag+1)^(0+128)
  1544                           
  1545                           ;C:\Program Files\Microchip\xc8\v2.40\pic\sources\c90\common\doprnt.c: 661:   switch(c =
      +                           *f++) {
  1546  001C' 2800'              	goto	l3375
  1547  001D'                    l215:	
  1548                           ;C:\Program Files\Microchip\xc8\v2.40\pic\sources\c90\common\doprnt.c: 708:   case 'g':
  1549                           
  1550                           
  1551                           ;C:\Program Files\Microchip\xc8\v2.40\pic\sources\c90\common\doprnt.c: 709:    flag |= 0
      +                          x200;
  1552  001D' 1481'              	bsf	(sprintf@flag^(0+128)+1),1
  1553                           
  1554                           ;C:\Program Files\Microchip\xc8\v2.40\pic\sources\c90\common\doprnt.c: 710:    break;
  1555  001E' 2800'              	goto	l3377
  1556  001F'                    l3375:
  1557  001F' 3001               	movlw	1
  1558  0020' 0780'              	addwf	sprintf@f^(0+128),f
  1559  0021' 30FF               	movlw	-1
  1560  0022' 0700'              	addwf	sprintf@f^(0+128),w
  1561  0023' 0084               	movwf	4
  1562  0024' 120A' 118A' 2000' 120A' 118A' 	fcall	stringdir
  1563  0029' 0080'              	movwf	sprintf@c^(0+128)
  1564  002A' 0080'              	movwf	??_sprintf^(0+128)
  1565  002B' 0181'              	clrf	(??_sprintf^(0+128)+1)
  1566                           
  1567                           ; Switch on 2 bytes has been partitioned into a top level switch of size 1, and 1 sub-sw
      +                          itches
  1568                           ; Switch size 1, requested type "simple"
  1569                           ; Number of cases is 1, Range of values is 0 to 0
  1570                           ; switch strategies available:
  1571                           ; Name         Instructions Cycles
  1572                           ; simple_byte            4     3 (average)
  1573                           ; direct_byte           11     8 (fixed)
  1574                           ; jumptable            260     6 (fixed)
  1575                           ;	Chosen strategy is simple_byte
  1576  002C' 0800'              	movf	(??_sprintf+1)^(0+128),w
  1577  002D' 3A00               	xorlw	0	; case 0
  1578  002E' 1903               	skipnz
  1579  002F' 2800'              	goto	l3745
  1580  0030' 2800'              	goto	L1
  1581  0031'                    l3745:
  1582                           
  1583                           ; Switch size 1, requested type "simple"
  1584                           ; Number of cases is 2, Range of values is 0 to 103
  1585                           ; switch strategies available:
  1586                           ; Name         Instructions Cycles
  1587                           ; simple_byte            7     4 (average)
  1588                           ; jumptable            260     6 (fixed)
  1589                           ;	Chosen strategy is simple_byte
  1590  0031' 0800'              	movf	??_sprintf^(0+128),w
  1591  0032' 3A00               	xorlw	0	; case 0
  1592  0033' 1903               	skipnz
  1593  0034' 2800'              	goto	L3
  1594  0035' 3A67               	xorlw	103	; case 103
  1595  0036' 1903               	skipnz
  1596  0037' 2800'              	goto	l215
  1597  0038' 2800'              	goto	L1
  1598  0039'                    l3377:
  1599                           
  1600                           ;C:\Program Files\Microchip\xc8\v2.40\pic\sources\c90\common\doprnt.c: 851:   if(flag & 
      +                          (0x700)) {
  1601  0039' 3000               	movlw	0
  1602  003A' 0500'              	andwf	sprintf@flag^(0+128),w
  1603  003B' 0080'              	movwf	??_sprintf^(0+128)
  1604  003C' 3007               	movlw	7
  1605  003D' 0500'              	andwf	(sprintf@flag+1)^(0+128),w
  1606  003E' 0080'              	movwf	(??_sprintf+1)^(0+128)
  1607  003F' 0800'              	movf	??_sprintf^(0+128),w
  1608  0040' 0401'              	iorwf	(??_sprintf^(0+128)+1),w
  1609  0041' 1903               	btfsc	3,2
  1610  0042' 2800'              	goto	u5891
  1611  0043' 2800'              	goto	u5890
  1612  0044'                    u5891:
  1613  0044' 120A' 118A' 2800'  	goto	l3659
  1614  0047'                    u5890:
  1615  0047'                    l3379:
  1616                           
  1617                           ;C:\Program Files\Microchip\xc8\v2.40\pic\sources\c90\common\doprnt.c: 855:     prec = 6
      +                          ;
  1618  0047' 3006               	movlw	6
  1619  0048' 0080'              	movwf	sprintf@prec^(0+128)
  1620  0049' 3000               	movlw	0
  1621  004A' 0081'              	movwf	(sprintf@prec^(0+128)+1)
  1622  004B'                    l3381:
  1623                           
  1624                           ;C:\Program Files\Microchip\xc8\v2.40\pic\sources\c90\common\doprnt.c: 856:    fval = (*
      +                          (double *)__va_arg((*(double **)ap), (double)0));
  1625  004B' 0800'              	movf	sprintf@ap^(0+128),w
  1626  004C' 0084               	movwf	4
  1627  004D' 1383               	bcf	3,7	;select IRP bank0
  1628  004E' 0800               	movf	0,w
  1629  004F' 0080'              	movwf	sprintf@fval^(0+128)
  1630  0050' 0A84               	incf	4,f
  1631  0051' 0800               	movf	0,w
  1632  0052' 0080'              	movwf	(sprintf@fval+1)^(0+128)
  1633  0053' 0A84               	incf	4,f
  1634  0054' 0800               	movf	0,w
  1635  0055' 0080'              	movwf	(sprintf@fval+2)^(0+128)
  1636  0056' 0A84               	incf	4,f
  1637  0057' 0800               	movf	0,w
  1638  0058' 0080'              	movwf	(sprintf@fval+3)^(0+128)
  1639  0059'                    l3383:
  1640  0059' 3004               	movlw	4
  1641  005A' 0080'              	movwf	??_sprintf^(0+128)
  1642  005B' 0800'              	movf	??_sprintf^(0+128),w
  1643  005C' 0780'              	addwf	sprintf@ap^(0+128),f
  1644  005D'                    l3385:
  1645                           
  1646                           ;C:\Program Files\Microchip\xc8\v2.40\pic\sources\c90\common\doprnt.c: 857:    if(fval <
      +                           0.0) {
  1647  005D' 0800'              	movf	(sprintf@fval+3)^(0+128),w
  1648  005E' 0080'              	movwf	(___flge@ff1+3)^(0+128)
  1649  005F' 0800'              	movf	(sprintf@fval+2)^(0+128),w
  1650  0060' 0080'              	movwf	(___flge@ff1+2)^(0+128)
  1651  0061' 0800'              	movf	(sprintf@fval+1)^(0+128),w
  1652  0062' 0080'              	movwf	(___flge@ff1+1)^(0+128)
  1653  0063' 0800'              	movf	sprintf@fval^(0+128),w
  1654  0064' 0080'              	movwf	___flge@ff1^(0+128)
  1655  0065' 3000               	movlw	0
  1656  0066' 0080'              	movwf	(___flge@ff2+3)^(0+128)
  1657  0067' 3000               	movlw	0
  1658  0068' 0080'              	movwf	(___flge@ff2+2)^(0+128)
  1659  0069' 3000               	movlw	0
  1660  006A' 0080'              	movwf	(___flge@ff2+1)^(0+128)
  1661  006B' 3000               	movlw	0
  1662  006C' 0080'              	movwf	___flge@ff2^(0+128)
  1663  006D' 120A' 118A' 2000' 120A' 118A' 	fcall	___flge
  1664  0072' 1803               	btfsc	3,0
  1665  0073' 2800'              	goto	u5901
  1666  0074' 2800'              	goto	u5900
  1667  0075'                    u5901:
  1668  0075' 2800'              	goto	l3391
  1669  0076'                    u5900:
  1670  0076'                    l3387:
  1671                           
  1672                           ;C:\Program Files\Microchip\xc8\v2.40\pic\sources\c90\common\doprnt.c: 858:     fval = -
      +                          fval;
  1673  0076' 1683               	bsf	3,5	;RP0=1, select bank1
  1674  0077' 1303               	bcf	3,6	;RP1=0, select bank1
  1675  0078' 0800'              	movf	(sprintf@fval+3)^(0+128),w
  1676  0079' 0083'              	movwf	___flneg@f1+3
  1677  007A' 0800'              	movf	(sprintf@fval+2)^(0+128),w
  1678  007B' 0082'              	movwf	___flneg@f1+2
  1679  007C' 0800'              	movf	(sprintf@fval+1)^(0+128),w
  1680  007D' 0081'              	movwf	___flneg@f1+1
  1681  007E' 0800'              	movf	sprintf@fval^(0+128),w
  1682  007F' 0080'              	movwf	___flneg@f1
  1683  0080' 120A' 118A' 2000' 120A' 118A' 	fcall	___flneg
  1684  0085' 0803'              	movf	?___flneg+3,w
  1685  0086' 1683               	bsf	3,5	;RP0=1, select bank1
  1686  0087' 1303               	bcf	3,6	;RP1=0, select bank1
  1687  0088' 0080'              	movwf	(sprintf@fval+3)^(0+128)
  1688  0089' 0802'              	movf	?___flneg+2,w
  1689  008A' 0080'              	movwf	(sprintf@fval+2)^(0+128)
  1690  008B' 0801'              	movf	?___flneg+1,w
  1691  008C' 0080'              	movwf	(sprintf@fval+1)^(0+128)
  1692  008D' 0800'              	movf	?___flneg,w
  1693  008E' 0080'              	movwf	sprintf@fval^(0+128)
  1694  008F'                    l3389:
  1695                           
  1696                           ;C:\Program Files\Microchip\xc8\v2.40\pic\sources\c90\common\doprnt.c: 859:     flag |= 
      +                          0x03;
  1697  008F' 3003               	movlw	3
  1698  0090' 0480'              	iorwf	sprintf@flag^(0+128),f
  1699  0091' 3000               	movlw	0
  1700  0092' 0480'              	iorwf	(sprintf@flag+1)^(0+128),f
  1701  0093'                    l3391:
  1702                           
  1703                           ;C:\Program Files\Microchip\xc8\v2.40\pic\sources\c90\common\doprnt.c: 861:    eexp = 0;
  1704  0093' 1683               	bsf	3,5	;RP0=1, select bank1
  1705  0094' 1303               	bcf	3,6	;RP1=0, select bank1
  1706  0095' 0180'              	clrf	sprintf@eexp^(0+128)
  1707  0096' 0180'              	clrf	(sprintf@eexp+1)^(0+128)
  1708  0097'                    l3393:
  1709                           
  1710                           ;C:\Program Files\Microchip\xc8\v2.40\pic\sources\c90\common\doprnt.c: 862:    if( fval!
      +                          =0) {
  1711  0097' 0800'              	movf	(sprintf@fval+3)^(0+128),w
  1712  0098' 0083'              	movwf	___fleq@ff1+3
  1713  0099' 0800'              	movf	(sprintf@fval+2)^(0+128),w
  1714  009A' 0082'              	movwf	___fleq@ff1+2
  1715  009B' 0800'              	movf	(sprintf@fval+1)^(0+128),w
  1716  009C' 0081'              	movwf	___fleq@ff1+1
  1717  009D' 0800'              	movf	sprintf@fval^(0+128),w
  1718  009E' 0080'              	movwf	___fleq@ff1
  1719  009F' 3000               	movlw	0
  1720  00A0' 0087'              	movwf	___fleq@ff2+3
  1721  00A1' 3000               	movlw	0
  1722  00A2' 0086'              	movwf	___fleq@ff2+2
  1723  00A3' 3000               	movlw	0
  1724  00A4' 0085'              	movwf	___fleq@ff2+1
  1725  00A5' 3000               	movlw	0
  1726  00A6' 0084'              	movwf	___fleq@ff2
  1727  00A7' 120A' 118A' 2000' 120A' 118A' 	fcall	___fleq
  1728  00AC' 1803               	btfsc	3,0
  1729  00AD' 2800'              	goto	u5911
  1730  00AE' 2800'              	goto	u5910
  1731  00AF'                    u5911:
  1732  00AF' 2800'              	goto	l3419
  1733  00B0'                    u5910:
  1734  00B0'                    l3395:
  1735                           
  1736                           ;C:\Program Files\Microchip\xc8\v2.40\pic\sources\c90\common\doprnt.c: 863:     (void)(*
      +                          (&eexp) = (unsigned char)((*(unsigned long *)&fval >> 23) & 255) - 126);
  1737  00B0' 1003               	clrc
  1738  00B1' 1683               	bsf	3,5	;RP0=1, select bank1
  1739  00B2' 1303               	bcf	3,6	;RP1=0, select bank1
  1740  00B3' 0D00'              	rlf	(sprintf@fval+2)^(0+128),w
  1741  00B4' 0D00'              	rlf	(sprintf@fval+3)^(0+128),w
  1742  00B5' 3E82               	addlw	130
  1743  00B6' 0080'              	movwf	sprintf@eexp^(0+128)
  1744  00B7' 30FF               	movlw	255
  1745  00B8' 1803               	skipnc
  1746  00B9' 3000               	movlw	0
  1747  00BA' 0081'              	movwf	(sprintf@eexp^(0+128)+1)
  1748  00BB'                    l3397:
  1749                           
  1750                           ;C:\Program Files\Microchip\xc8\v2.40\pic\sources\c90\common\doprnt.c: 864:     eexp--;
  1751  00BB' 30FF               	movlw	255
  1752  00BC' 0780'              	addwf	sprintf@eexp^(0+128),f
  1753  00BD' 1803               	skipnc
  1754  00BE' 0A80'              	incf	(sprintf@eexp+1)^(0+128),f
  1755  00BF' 30FF               	movlw	255
  1756  00C0' 0780'              	addwf	(sprintf@eexp+1)^(0+128),f
  1757  00C1'                    l3399:
  1758                           
  1759                           ;C:\Program Files\Microchip\xc8\v2.40\pic\sources\c90\common\doprnt.c: 865:     eexp *= 
      +                          3;
  1760  00C1' 3003               	movlw	3
  1761  00C2' 0080'              	movwf	___wmul@multiplier
  1762  00C3' 3000               	movlw	0
  1763  00C4' 0081'              	movwf	___wmul@multiplier+1
  1764  00C5' 0800'              	movf	(sprintf@eexp+1)^(0+128),w
  1765  00C6' 0083'              	movwf	___wmul@multiplicand+1
  1766  00C7' 0800'              	movf	sprintf@eexp^(0+128),w
  1767  00C8' 0082'              	movwf	___wmul@multiplicand
  1768  00C9' 120A' 118A' 2000' 120A' 118A' 	fcall	___wmul
  1769  00CE' 0801'              	movf	?___wmul+1,w
  1770  00CF' 1683               	bsf	3,5	;RP0=1, select bank1
  1771  00D0' 1303               	bcf	3,6	;RP1=0, select bank1
  1772  00D1' 0080'              	movwf	(sprintf@eexp+1)^(0+128)
  1773  00D2' 0800'              	movf	?___wmul,w
  1774  00D3' 0080'              	movwf	sprintf@eexp^(0+128)
  1775  00D4'                    l3401:
  1776                           
  1777                           ;C:\Program Files\Microchip\xc8\v2.40\pic\sources\c90\common\doprnt.c: 866:     eexp /= 
      +                          10;
  1778  00D4' 300A               	movlw	10
  1779  00D5' 0087'              	movwf	___awdiv@divisor
  1780  00D6' 3000               	movlw	0
  1781  00D7' 0088'              	movwf	___awdiv@divisor+1
  1782  00D8' 0800'              	movf	(sprintf@eexp+1)^(0+128),w
  1783  00D9' 008A'              	movwf	___awdiv@dividend+1
  1784  00DA' 0800'              	movf	sprintf@eexp^(0+128),w
  1785  00DB' 0089'              	movwf	___awdiv@dividend
  1786  00DC' 120A' 118A' 2000' 120A' 118A' 	fcall	___awdiv
  1787  00E1' 0808'              	movf	?___awdiv+1,w
  1788  00E2' 1683               	bsf	3,5	;RP0=1, select bank1
  1789  00E3' 1303               	bcf	3,6	;RP1=0, select bank1
  1790  00E4' 0080'              	movwf	(sprintf@eexp+1)^(0+128)
  1791  00E5' 0807'              	movf	?___awdiv,w
  1792  00E6' 0080'              	movwf	sprintf@eexp^(0+128)
  1793  00E7'                    l3403:
  1794                           
  1795                           ;C:\Program Files\Microchip\xc8\v2.40\pic\sources\c90\common\doprnt.c: 867:     if(eexp 
      +                          < 0)
  1796  00E7' 1F80'              	btfss	(sprintf@eexp+1)^(0+128),7
  1797  00E8' 2800'              	goto	u5921
  1798  00E9' 2800'              	goto	u5920
  1799  00EA'                    u5921:
  1800  00EA' 2800'              	goto	l3407
  1801  00EB'                    u5920:
  1802  00EB'                    l3405:
  1803                           
  1804                           ;C:\Program Files\Microchip\xc8\v2.40\pic\sources\c90\common\doprnt.c: 868:      eexp--;
  1805  00EB' 30FF               	movlw	255
  1806  00EC' 0780'              	addwf	sprintf@eexp^(0+128),f
  1807  00ED' 1803               	skipnc
  1808  00EE' 0A80'              	incf	(sprintf@eexp+1)^(0+128),f
  1809  00EF' 30FF               	movlw	255
  1810  00F0' 0780'              	addwf	(sprintf@eexp+1)^(0+128),f
  1811  00F1'                    l3407:
  1812                           
  1813                           ;C:\Program Files\Microchip\xc8\v2.40\pic\sources\c90\common\doprnt.c: 872:     tmpval.i
      +                          nteg = scale(-eexp);
  1814  00F1' 0300'              	decf	sprintf@eexp^(0+128),w
  1815  00F2' 3AFF               	xorlw	255
  1816  00F3' 120A' 118A' 2000' 120A' 118A' 	fcall	_scale
  1817  00F8' 1283               	bcf	3,5	;RP0=0, select bank0
  1818  00F9' 1303               	bcf	3,6	;RP1=0, select bank0
  1819  00FA' 082B'              	movf	?_scale+3,w
  1820  00FB' 1683               	bsf	3,5	;RP0=1, select bank1
  1821  00FC' 1303               	bcf	3,6	;RP1=0, select bank1
  1822  00FD' 0080'              	movwf	(sprintf@tmpval+3)^(0+128)
  1823  00FE' 1283               	bcf	3,5	;RP0=0, select bank0
  1824  00FF' 1303               	bcf	3,6	;RP1=0, select bank0
  1825  0100' 082A'              	movf	?_scale+2,w
  1826  0101' 1683               	bsf	3,5	;RP0=1, select bank1
  1827  0102' 1303               	bcf	3,6	;RP1=0, select bank1
  1828  0103' 0080'              	movwf	(sprintf@tmpval+2)^(0+128)
  1829  0104' 1283               	bcf	3,5	;RP0=0, select bank0
  1830  0105' 1303               	bcf	3,6	;RP1=0, select bank0
  1831  0106' 0829'              	movf	?_scale+1,w
  1832  0107' 1683               	bsf	3,5	;RP0=1, select bank1
  1833  0108' 1303               	bcf	3,6	;RP1=0, select bank1
  1834  0109' 0080'              	movwf	(sprintf@tmpval+1)^(0+128)
  1835  010A' 1283               	bcf	3,5	;RP0=0, select bank0
  1836  010B' 1303               	bcf	3,6	;RP1=0, select bank0
  1837  010C' 0828'              	movf	?_scale,w
  1838  010D' 1683               	bsf	3,5	;RP0=1, select bank1
  1839  010E' 1303               	bcf	3,6	;RP1=0, select bank1
  1840  010F' 0080'              	movwf	sprintf@tmpval^(0+128)
  1841  0110'                    l3409:
  1842                           
  1843                           ;C:\Program Files\Microchip\xc8\v2.40\pic\sources\c90\common\doprnt.c: 873:     tmpval.i
      +                          nteg *= fval;
  1844  0110' 0800'              	movf	(sprintf@fval+3)^(0+128),w
  1845  0111' 1283               	bcf	3,5	;RP0=0, select bank0
  1846  0112' 1303               	bcf	3,6	;RP1=0, select bank0
  1847  0113' 0091'              	movwf	___flmul@b+3
  1848  0114' 1683               	bsf	3,5	;RP0=1, select bank1
  1849  0115' 1303               	bcf	3,6	;RP1=0, select bank1
  1850  0116' 0800'              	movf	(sprintf@fval+2)^(0+128),w
  1851  0117' 1283               	bcf	3,5	;RP0=0, select bank0
  1852  0118' 1303               	bcf	3,6	;RP1=0, select bank0
  1853  0119' 0090'              	movwf	___flmul@b+2
  1854  011A' 1683               	bsf	3,5	;RP0=1, select bank1
  1855  011B' 1303               	bcf	3,6	;RP1=0, select bank1
  1856  011C' 0800'              	movf	(sprintf@fval+1)^(0+128),w
  1857  011D' 1283               	bcf	3,5	;RP0=0, select bank0
  1858  011E' 1303               	bcf	3,6	;RP1=0, select bank0
  1859  011F' 008F'              	movwf	___flmul@b+1
  1860  0120' 1683               	bsf	3,5	;RP0=1, select bank1
  1861  0121' 1303               	bcf	3,6	;RP1=0, select bank1
  1862  0122' 0800'              	movf	sprintf@fval^(0+128),w
  1863  0123' 1283               	bcf	3,5	;RP0=0, select bank0
  1864  0124' 1303               	bcf	3,6	;RP1=0, select bank0
  1865  0125' 008E'              	movwf	___flmul@b
  1866  0126' 1683               	bsf	3,5	;RP0=1, select bank1
  1867  0127' 1303               	bcf	3,6	;RP1=0, select bank1
  1868  0128' 0800'              	movf	(sprintf@tmpval+3)^(0+128),w
  1869  0129' 1283               	bcf	3,5	;RP0=0, select bank0
  1870  012A' 1303               	bcf	3,6	;RP1=0, select bank0
  1871  012B' 0095'              	movwf	___flmul@a+3
  1872  012C' 1683               	bsf	3,5	;RP0=1, select bank1
  1873  012D' 1303               	bcf	3,6	;RP1=0, select bank1
  1874  012E' 0800'              	movf	(sprintf@tmpval+2)^(0+128),w
  1875  012F' 1283               	bcf	3,5	;RP0=0, select bank0
  1876  0130' 1303               	bcf	3,6	;RP1=0, select bank0
  1877  0131' 0094'              	movwf	___flmul@a+2
  1878  0132' 1683               	bsf	3,5	;RP0=1, select bank1
  1879  0133' 1303               	bcf	3,6	;RP1=0, select bank1
  1880  0134' 0800'              	movf	(sprintf@tmpval+1)^(0+128),w
  1881  0135' 1283               	bcf	3,5	;RP0=0, select bank0
  1882  0136' 1303               	bcf	3,6	;RP1=0, select bank0
  1883  0137' 0093'              	movwf	___flmul@a+1
  1884  0138' 1683               	bsf	3,5	;RP0=1, select bank1
  1885  0139' 1303               	bcf	3,6	;RP1=0, select bank1
  1886  013A' 0800'              	movf	sprintf@tmpval^(0+128),w
  1887  013B' 1283               	bcf	3,5	;RP0=0, select bank0
  1888  013C' 1303               	bcf	3,6	;RP1=0, select bank0
  1889  013D' 0092'              	movwf	___flmul@a
  1890  013E' 120A' 118A' 2000' 120A' 118A' 	fcall	___flmul
  1891  0143' 1283               	bcf	3,5	;RP0=0, select bank0
  1892  0144' 1303               	bcf	3,6	;RP1=0, select bank0
  1893  0145' 0811'              	movf	?___flmul+3,w
  1894  0146' 1683               	bsf	3,5	;RP0=1, select bank1
  1895  0147' 1303               	bcf	3,6	;RP1=0, select bank1
  1896  0148' 0080'              	movwf	(sprintf@tmpval+3)^(0+128)
  1897  0149' 1283               	bcf	3,5	;RP0=0, select bank0
  1898  014A' 1303               	bcf	3,6	;RP1=0, select bank0
  1899  014B' 0810'              	movf	?___flmul+2,w
  1900  014C' 1683               	bsf	3,5	;RP0=1, select bank1
  1901  014D' 1303               	bcf	3,6	;RP1=0, select bank1
  1902  014E' 0080'              	movwf	(sprintf@tmpval+2)^(0+128)
  1903  014F' 1283               	bcf	3,5	;RP0=0, select bank0
  1904  0150' 1303               	bcf	3,6	;RP1=0, select bank0
  1905  0151' 080F'              	movf	?___flmul+1,w
  1906  0152' 1683               	bsf	3,5	;RP0=1, select bank1
  1907  0153' 1303               	bcf	3,6	;RP1=0, select bank1
  1908  0154' 0080'              	movwf	(sprintf@tmpval+1)^(0+128)
  1909  0155' 1283               	bcf	3,5	;RP0=0, select bank0
  1910  0156' 1303               	bcf	3,6	;RP1=0, select bank0
  1911  0157' 080E'              	movf	?___flmul,w
  1912  0158' 1683               	bsf	3,5	;RP0=1, select bank1
  1913  0159' 1303               	bcf	3,6	;RP1=0, select bank1
  1914  015A' 0080'              	movwf	sprintf@tmpval^(0+128)
  1915  015B'                    l3411:
  1916                           
  1917                           ;C:\Program Files\Microchip\xc8\v2.40\pic\sources\c90\common\doprnt.c: 874:     if(tmpva
      +                          l.integ < 1.0)
  1918  015B' 0800'              	movf	(sprintf@tmpval+3)^(0+128),w
  1919  015C' 0080'              	movwf	(___flge@ff1+3)^(0+128)
  1920  015D' 0800'              	movf	(sprintf@tmpval+2)^(0+128),w
  1921  015E' 0080'              	movwf	(___flge@ff1+2)^(0+128)
  1922  015F' 0800'              	movf	(sprintf@tmpval+1)^(0+128),w
  1923  0160' 0080'              	movwf	(___flge@ff1+1)^(0+128)
  1924  0161' 0800'              	movf	sprintf@tmpval^(0+128),w
  1925  0162' 0080'              	movwf	___flge@ff1^(0+128)
  1926  0163' 303F               	movlw	63
  1927  0164' 0080'              	movwf	(___flge@ff2+3)^(0+128)
  1928  0165' 3080               	movlw	128
  1929  0166' 0080'              	movwf	(___flge@ff2+2)^(0+128)
  1930  0167' 3000               	movlw	0
  1931  0168' 0080'              	movwf	(___flge@ff2+1)^(0+128)
  1932  0169' 3000               	movlw	0
  1933  016A' 0080'              	movwf	___flge@ff2^(0+128)
  1934  016B' 120A' 118A' 2000' 120A' 118A' 	fcall	___flge
  1935  0170' 1803               	btfsc	3,0
  1936  0171' 2800'              	goto	u5931
  1937  0172' 2800'              	goto	u5930
  1938  0173'                    u5931:
  1939  0173' 2800'              	goto	l3415
  1940  0174'                    u5930:
  1941  0174'                    l3413:
  1942                           
  1943                           ;C:\Program Files\Microchip\xc8\v2.40\pic\sources\c90\common\doprnt.c: 875:      eexp--;
  1944  0174' 30FF               	movlw	255
  1945  0175' 1683               	bsf	3,5	;RP0=1, select bank1
  1946  0176' 1303               	bcf	3,6	;RP1=0, select bank1
  1947  0177' 0780'              	addwf	sprintf@eexp^(0+128),f
  1948  0178' 1803               	skipnc
  1949  0179' 0A80'              	incf	(sprintf@eexp+1)^(0+128),f
  1950  017A' 30FF               	movlw	255
  1951  017B' 0780'              	addwf	(sprintf@eexp+1)^(0+128),f
  1952  017C' 2800'              	goto	l3419
  1953  017D'                    l3415:
  1954  017D' 1683               	bsf	3,5	;RP0=1, select bank1
  1955  017E' 1303               	bcf	3,6	;RP1=0, select bank1
  1956  017F' 0800'              	movf	(sprintf@tmpval+3)^(0+128),w
  1957  0180' 0080'              	movwf	(___flge@ff1+3)^(0+128)
  1958  0181' 0800'              	movf	(sprintf@tmpval+2)^(0+128),w
  1959  0182' 0080'              	movwf	(___flge@ff1+2)^(0+128)
  1960  0183' 0800'              	movf	(sprintf@tmpval+1)^(0+128),w
  1961  0184' 0080'              	movwf	(___flge@ff1+1)^(0+128)
  1962  0185' 0800'              	movf	sprintf@tmpval^(0+128),w
  1963  0186' 0080'              	movwf	___flge@ff1^(0+128)
  1964  0187' 3041               	movlw	65
  1965  0188' 0080'              	movwf	(___flge@ff2+3)^(0+128)
  1966  0189' 3020               	movlw	32
  1967  018A' 0080'              	movwf	(___flge@ff2+2)^(0+128)
  1968  018B' 3000               	movlw	0
  1969  018C' 0080'              	movwf	(___flge@ff2+1)^(0+128)
  1970  018D' 3000               	movlw	0
  1971  018E' 0080'              	movwf	___flge@ff2^(0+128)
  1972  018F' 120A' 118A' 2000' 120A' 118A' 	fcall	___flge
  1973  0194' 1C03               	btfss	3,0
  1974  0195' 2800'              	goto	u5941
  1975  0196' 2800'              	goto	u5940
  1976  0197'                    u5941:
  1977  0197' 2800'              	goto	l3419
  1978  0198'                    u5940:
  1979  0198'                    l3417:
  1980                           
  1981                           ;C:\Program Files\Microchip\xc8\v2.40\pic\sources\c90\common\doprnt.c: 877:      eexp++;
  1982  0198' 3001               	movlw	1
  1983  0199' 1683               	bsf	3,5	;RP0=1, select bank1
  1984  019A' 1303               	bcf	3,6	;RP1=0, select bank1
  1985  019B' 0780'              	addwf	sprintf@eexp^(0+128),f
  1986  019C' 1803               	skipnc
  1987  019D' 0A80'              	incf	(sprintf@eexp+1)^(0+128),f
  1988  019E' 3000               	movlw	0
  1989  019F' 0780'              	addwf	(sprintf@eexp+1)^(0+128),f
  1990  01A0'                    l3419:
  1991                           
  1992                           ;C:\Program Files\Microchip\xc8\v2.40\pic\sources\c90\common\doprnt.c: 880:    if(eexp <
      +                          = 0)
  1993  01A0' 1683               	bsf	3,5	;RP0=1, select bank1
  1994  01A1' 1303               	bcf	3,6	;RP1=0, select bank1
  1995  01A2' 0800'              	movf	(sprintf@eexp+1)^(0+128),w
  1996  01A3' 3A80               	xorlw	128
  1997  01A4' 00FF               	movwf	btemp+1
  1998  01A5' 3080               	movlw	128
  1999  01A6' 027F               	subwf	btemp+1,w
  2000  01A7' 1D03               	skipz
  2001  01A8' 2800'              	goto	u5955
  2002  01A9' 3001               	movlw	1
  2003  01AA' 0200'              	subwf	sprintf@eexp^(0+128),w
  2004  01AB'                    u5955:
  2005  01AB' 1803               	skipnc
  2006  01AC' 2800'              	goto	u5951
  2007  01AD' 120A' 118A' 2800'  	goto	u5950
  2008  01B0'                    u5951:
  2009  01B0' 120A' 118A' 2800'  	goto	l3423
  2010  01B3'                    L3:
  2011  01B3'                    L2:
  2012  01B3' 120A' 118A' 2800'  	ljmp	l3667
  2013                           
  2014                           	psect	text2
  2015  0000'                    __ptext2:	
  2016 ;; *************** function _scale *****************
  2017 ;; Defined at:
  2018 ;;		line 433 in file "C:\Program Files\Microchip\xc8\v2.40\pic\sources\c90\common\doprnt.c"
  2019 ;; Parameters:    Size  Location     Type
  2020 ;;  scl             1    wreg     char 
  2021 ;; Auto vars:     Size  Location     Type
  2022 ;;  scl             1   58[BANK0 ] char 
  2023 ;; Return value:  Size  Location     Type
  2024 ;;                  4   40[BANK0 ] char 
  2025 ;; Registers used:
  2026 ;;		wreg, fsr0l, fsr0h, status,2, status,0, btemp+1, pclath, cstack
  2027 ;; Tracked objects:
  2028 ;;		On entry : 0/0
  2029 ;;		On exit  : 0/0
  2030 ;;		Unchanged: 0/0
  2031 ;; Data sizes:     COMMON   BANK0   BANK1   BANK3   BANK2
  2032 ;;      Params:         0       4       0       0       0
  2033 ;;      Locals:         0       5       0       0       0
  2034 ;;      Temps:          0      10       0       0       0
  2035 ;;      Totals:         0      19       0       0       0
  2036 ;;Total ram usage:       19 bytes
  2037 ;; Hardware stack levels used: 1
  2038 ;; Hardware stack levels required when called: 2
  2039 ;; This function calls:
  2040 ;;		___awdiv
  2041 ;;		___awmod
  2042 ;;		___flmul
  2043 ;; This function is called by:
  2044 ;;		_sprintf
  2045 ;; This function uses a non-reentrant model
  2046 ;;
  2047                           
  2048  0000'                    _scale:	
  2049                           ;psect for function _scale
  2050                           
  2051                           
  2052                           ;incstack = 0
  2053                           ; Regs used in _scale: [wreg-fsr0h+status,2+status,0+btemp+1+pclath+cstack]
  2054                           ;scale@scl stored from wreg
  2055  0000' 1283               	bcf	3,5	;RP0=0, select bank0
  2056  0001' 1303               	bcf	3,6	;RP1=0, select bank0
  2057  0002' 00BA'              	movwf	scale@scl
  2058  0003'                    l2845:
  2059                           
  2060                           ;C:\Program Files\Microchip\xc8\v2.40\pic\sources\c90\common\doprnt.c: 433: scale(signed
      +                           char scl);C:\Program Files\Microchip\xc8\v2.40\pic\sources\c90\common\doprnt.c: 434: {;
      +                          C:\Program Files\Microchip\xc8\v2.40\pic\sources\c90\common\doprnt.c: 436:  if(scl < 0) 
      +                          {
  2061  0003' 1FBA'              	btfss	scale@scl,7
  2062  0004' 2800'              	goto	u4551
  2063  0005' 2800'              	goto	u4550
  2064  0006'                    u4551:
  2065  0006' 2800'              	goto	l2867
  2066  0007'                    u4550:
  2067  0007'                    l2847:
  2068                           
  2069                           ;C:\Program Files\Microchip\xc8\v2.40\pic\sources\c90\common\doprnt.c: 437:   scl = -scl
      +                          ;
  2070  0007' 09BA'              	comf	scale@scl,f
  2071  0008' 0ABA'              	incf	scale@scl,f
  2072  0009'                    l2849:
  2073                           
  2074                           ;C:\Program Files\Microchip\xc8\v2.40\pic\sources\c90\common\doprnt.c: 438:   if(scl>=11
      +                          0)
  2075  0009' 083A'              	movf	scale@scl,w
  2076  000A' 3A80               	xorlw	128
  2077  000B' 3E12               	addlw	-238
  2078  000C' 1C03               	skipc
  2079  000D' 2800'              	goto	u4561
  2080  000E' 2800'              	goto	u4560
  2081  000F'                    u4561:
  2082  000F' 2800'              	goto	l2857
  2083  0010'                    u4560:
  2084  0010'                    l2851:
  2085                           
  2086                           ;C:\Program Files\Microchip\xc8\v2.40\pic\sources\c90\common\doprnt.c: 439:    return _n
      +                          powers_[(unsigned char)(scl/100+18)] * _npowers_[(unsigned char)((scl%100)/10+9)] * _npo
      +                          wers_[(unsigned char)(scl%10)];
  2087  0010' 300A               	movlw	10
  2088  0011' 0087'              	movwf	___awdiv@divisor
  2089  0012' 3000               	movlw	0
  2090  0013' 0088'              	movwf	___awdiv@divisor+1
  2091  0014' 083A'              	movf	scale@scl,w
  2092  0015' 0082'              	movwf	___awmod@dividend
  2093  0016' 0183'              	clrf	___awmod@dividend+1
  2094  0017' 1B82'              	btfsc	___awmod@dividend,7
  2095  0018' 0383'              	decf	___awmod@dividend+1,f
  2096  0019' 3064               	movlw	100
  2097  001A' 0080'              	movwf	___awmod@divisor
  2098  001B' 3000               	movlw	0
  2099  001C' 0081'              	movwf	___awmod@divisor+1
  2100  001D' 120A' 118A' 2000' 120A' 118A' 	fcall	___awmod
  2101  0022' 0801'              	movf	?___awmod+1,w
  2102  0023' 008A'              	movwf	___awdiv@dividend+1
  2103  0024' 0800'              	movf	?___awmod,w
  2104  0025' 0089'              	movwf	___awdiv@dividend
  2105  0026' 120A' 118A' 2000' 120A' 118A' 	fcall	___awdiv
  2106  002B' 0807'              	movf	?___awdiv,w
  2107  002C' 1283               	bcf	3,5	;RP0=0, select bank0
  2108  002D' 1303               	bcf	3,6	;RP1=0, select bank0
  2109  002E' 00AC'              	movwf	??_scale
  2110  002F' 3001               	movlw	1
  2111  0030'                    u4575:
  2112  0030' 1003               	clrc
  2113  0031' 0DAC'              	rlf	??_scale,f
  2114  0032' 3EFF               	addlw	-1
  2115  0033' 1D03               	skipz
  2116  0034' 2800'              	goto	u4575
  2117  0035' 1003               	clrc
  2118  0036' 0D2C'              	rlf	??_scale,w
  2119  0037' 3E59               	addlw	low (((__npowers_-__stringbase)| (0+32768)+36))
  2120  0038' 0084               	movwf	4
  2121  0039' 120A' 118A' 2000' 120A' 118A' 	fcall	stringdir
  2122  003E' 00AD'              	movwf	??_scale+1
  2123  003F' 120A' 118A' 2000' 120A' 118A' 	fcall	stringdir
  2124  0044' 00AE'              	movwf	??_scale+2
  2125  0045' 120A' 118A' 2000' 120A' 118A' 	fcall	stringdir
  2126  004A' 00AF'              	movwf	??_scale+3
  2127  004B' 120A' 118A' 2000' 120A' 118A' 	fcall	stringdir
  2128  0050' 00B0'              	movwf	??_scale+4
  2129  0051' 0830'              	movf	??_scale+4,w
  2130  0052' 0091'              	movwf	___flmul@b+3
  2131  0053' 082F'              	movf	??_scale+3,w
  2132  0054' 0090'              	movwf	___flmul@b+2
  2133  0055' 082E'              	movf	??_scale+2,w
  2134  0056' 008F'              	movwf	___flmul@b+1
  2135  0057' 082D'              	movf	??_scale+1,w
  2136  0058' 008E'              	movwf	___flmul@b
  2137  0059' 3064               	movlw	100
  2138  005A' 0087'              	movwf	___awdiv@divisor
  2139  005B' 3000               	movlw	0
  2140  005C' 0088'              	movwf	___awdiv@divisor+1
  2141  005D' 083A'              	movf	scale@scl,w
  2142  005E' 0089'              	movwf	___awdiv@dividend
  2143  005F' 018A'              	clrf	___awdiv@dividend+1
  2144  0060' 1B89'              	btfsc	___awdiv@dividend,7
  2145  0061' 038A'              	decf	___awdiv@dividend+1,f
  2146  0062' 120A' 118A' 2000' 120A' 118A' 	fcall	___awdiv
  2147  0067' 0807'              	movf	?___awdiv,w
  2148  0068' 1283               	bcf	3,5	;RP0=0, select bank0
  2149  0069' 1303               	bcf	3,6	;RP1=0, select bank0
  2150  006A' 00B1'              	movwf	??_scale+5
  2151  006B' 3001               	movlw	1
  2152  006C'                    u4585:
  2153  006C' 1003               	clrc
  2154  006D' 0DB1'              	rlf	??_scale+5,f
  2155  006E' 3EFF               	addlw	-1
  2156  006F' 1D03               	skipz
  2157  0070' 2800'              	goto	u4585
  2158  0071' 1003               	clrc
  2159  0072' 0D31'              	rlf	??_scale+5,w
  2160  0073' 3E7D               	addlw	low (((__npowers_-__stringbase)| (0+32768)+72))
  2161  0074' 0084               	movwf	4
  2162  0075' 120A' 118A' 2000' 120A' 118A' 	fcall	stringdir
  2163  007A' 00B2'              	movwf	??_scale+6
  2164  007B' 120A' 118A' 2000' 120A' 118A' 	fcall	stringdir
  2165  0080' 00B3'              	movwf	??_scale+7
  2166  0081' 120A' 118A' 2000' 120A' 118A' 	fcall	stringdir
  2167  0086' 00B4'              	movwf	??_scale+8
  2168  0087' 120A' 118A' 2000' 120A' 118A' 	fcall	stringdir
  2169  008C' 00B5'              	movwf	??_scale+9
  2170  008D' 0835'              	movf	??_scale+9,w
  2171  008E' 0095'              	movwf	___flmul@a+3
  2172  008F' 0834'              	movf	??_scale+8,w
  2173  0090' 0094'              	movwf	___flmul@a+2
  2174  0091' 0833'              	movf	??_scale+7,w
  2175  0092' 0093'              	movwf	___flmul@a+1
  2176  0093' 0832'              	movf	??_scale+6,w
  2177  0094' 0092'              	movwf	___flmul@a
  2178  0095' 120A' 118A' 2000' 120A' 118A' 	fcall	___flmul
  2179  009A' 1283               	bcf	3,5	;RP0=0, select bank0
  2180  009B' 1303               	bcf	3,6	;RP1=0, select bank0
  2181  009C' 0811'              	movf	?___flmul+3,w
  2182  009D' 00B9'              	movwf	_scale$896+3
  2183  009E' 0810'              	movf	?___flmul+2,w
  2184  009F' 00B8'              	movwf	_scale$896+2
  2185  00A0' 080F'              	movf	?___flmul+1,w
  2186  00A1' 00B7'              	movwf	_scale$896+1
  2187  00A2' 080E'              	movf	?___flmul,w
  2188  00A3' 00B6'              	movwf	_scale$896
  2189                           
  2190                           ;C:\Program Files\Microchip\xc8\v2.40\pic\sources\c90\common\doprnt.c: 439:    return _n
      +                          powers_[(unsigned char)(scl/100+18)] * _npowers_[(unsigned char)((scl%100)/10+9)] * _npo
      +                          wers_[(unsigned char)(scl%10)];
  2191  00A4' 300A               	movlw	10
  2192  00A5' 0080'              	movwf	___awmod@divisor
  2193  00A6' 3000               	movlw	0
  2194  00A7' 0081'              	movwf	___awmod@divisor+1
  2195  00A8' 083A'              	movf	scale@scl,w
  2196  00A9' 0082'              	movwf	___awmod@dividend
  2197  00AA' 0183'              	clrf	___awmod@dividend+1
  2198  00AB' 1B82'              	btfsc	___awmod@dividend,7
  2199  00AC' 0383'              	decf	___awmod@dividend+1,f
  2200  00AD' 120A' 118A' 2000' 120A' 118A' 	fcall	___awmod
  2201  00B2' 0800'              	movf	?___awmod,w
  2202  00B3' 1283               	bcf	3,5	;RP0=0, select bank0
  2203  00B4' 1303               	bcf	3,6	;RP1=0, select bank0
  2204  00B5' 00AC'              	movwf	??_scale
  2205  00B6' 3001               	movlw	1
  2206  00B7'                    u4595:
  2207  00B7' 1003               	clrc
  2208  00B8' 0DAC'              	rlf	??_scale,f
  2209  00B9' 3EFF               	addlw	-1
  2210  00BA' 1D03               	skipz
  2211  00BB' 2800'              	goto	u4595
  2212  00BC' 1003               	clrc
  2213  00BD' 0D2C'              	rlf	??_scale,w
  2214  00BE' 3E35               	addlw	low ((__npowers_-__stringbase)| (0+32768))
  2215  00BF' 0084               	movwf	4
  2216  00C0' 120A' 118A' 2000' 120A' 118A' 	fcall	stringdir
  2217  00C5' 00AD'              	movwf	??_scale+1
  2218  00C6' 120A' 118A' 2000' 120A' 118A' 	fcall	stringdir
  2219  00CB' 00AE'              	movwf	??_scale+2
  2220  00CC' 120A' 118A' 2000' 120A' 118A' 	fcall	stringdir
  2221  00D1' 00AF'              	movwf	??_scale+3
  2222  00D2' 120A' 118A' 2000' 120A' 118A' 	fcall	stringdir
  2223  00D7' 00B0'              	movwf	??_scale+4
  2224  00D8' 0830'              	movf	??_scale+4,w
  2225  00D9' 0091'              	movwf	___flmul@b+3
  2226  00DA' 082F'              	movf	??_scale+3,w
  2227  00DB' 0090'              	movwf	___flmul@b+2
  2228  00DC' 082E'              	movf	??_scale+2,w
  2229  00DD' 008F'              	movwf	___flmul@b+1
  2230  00DE' 082D'              	movf	??_scale+1,w
  2231  00DF' 008E'              	movwf	___flmul@b
  2232  00E0' 0839'              	movf	_scale$896+3,w
  2233  00E1' 0095'              	movwf	___flmul@a+3
  2234  00E2' 0838'              	movf	_scale$896+2,w
  2235  00E3' 0094'              	movwf	___flmul@a+2
  2236  00E4' 0837'              	movf	_scale$896+1,w
  2237  00E5' 0093'              	movwf	___flmul@a+1
  2238  00E6' 0836'              	movf	_scale$896,w
  2239  00E7' 0092'              	movwf	___flmul@a
  2240  00E8' 120A' 118A' 2000' 120A' 118A' 	fcall	___flmul
  2241  00ED' 1283               	bcf	3,5	;RP0=0, select bank0
  2242  00EE' 1303               	bcf	3,6	;RP1=0, select bank0
  2243  00EF' 0811'              	movf	?___flmul+3,w
  2244  00F0' 00AB'              	movwf	?_scale+3
  2245  00F1' 0810'              	movf	?___flmul+2,w
  2246  00F2' 00AA'              	movwf	?_scale+2
  2247  00F3' 080F'              	movf	?___flmul+1,w
  2248  00F4' 00A9'              	movwf	?_scale+1
  2249  00F5' 080E'              	movf	?___flmul,w
  2250  00F6' 00A8'              	movwf	?_scale
  2251  00F7' 2800'              	goto	l201
  2252  00F8'                    l2857:
  2253  00F8' 083A'              	movf	scale@scl,w
  2254  00F9' 3A80               	xorlw	128
  2255  00FA' 3E75               	addlw	-139
  2256  00FB' 1C03               	skipc
  2257  00FC' 2800'              	goto	u4601
  2258  00FD' 2800'              	goto	u4600
  2259  00FE'                    u4601:
  2260  00FE' 2800'              	goto	l2863
  2261  00FF'                    u4600:
  2262  00FF'                    l2859:
  2263                           
  2264                           ;C:\Program Files\Microchip\xc8\v2.40\pic\sources\c90\common\doprnt.c: 441:    return _n
      +                          powers_[(unsigned char)(scl/10+9)] * _npowers_[(unsigned char)(scl%10)];
  2265  00FF' 300A               	movlw	10
  2266  0100' 0080'              	movwf	___awmod@divisor
  2267  0101' 3000               	movlw	0
  2268  0102' 0081'              	movwf	___awmod@divisor+1
  2269  0103' 083A'              	movf	scale@scl,w
  2270  0104' 0082'              	movwf	___awmod@dividend
  2271  0105' 0183'              	clrf	___awmod@dividend+1
  2272  0106' 1B82'              	btfsc	___awmod@dividend,7
  2273  0107' 0383'              	decf	___awmod@dividend+1,f
  2274  0108' 120A' 118A' 2000' 120A' 118A' 	fcall	___awmod
  2275  010D' 0800'              	movf	?___awmod,w
  2276  010E' 1283               	bcf	3,5	;RP0=0, select bank0
  2277  010F' 1303               	bcf	3,6	;RP1=0, select bank0
  2278  0110' 00AC'              	movwf	??_scale
  2279  0111' 3001               	movlw	1
  2280  0112'                    u4615:
  2281  0112' 1003               	clrc
  2282  0113' 0DAC'              	rlf	??_scale,f
  2283  0114' 3EFF               	addlw	-1
  2284  0115' 1D03               	skipz
  2285  0116' 2800'              	goto	u4615
  2286  0117' 1003               	clrc
  2287  0118' 0D2C'              	rlf	??_scale,w
  2288  0119' 3E35               	addlw	low ((__npowers_-__stringbase)| (0+32768))
  2289  011A' 0084               	movwf	4
  2290  011B' 120A' 118A' 2000' 120A' 118A' 	fcall	stringdir
  2291  0120' 00AD'              	movwf	??_scale+1
  2292  0121' 120A' 118A' 2000' 120A' 118A' 	fcall	stringdir
  2293  0126' 00AE'              	movwf	??_scale+2
  2294  0127' 120A' 118A' 2000' 120A' 118A' 	fcall	stringdir
  2295  012C' 00AF'              	movwf	??_scale+3
  2296  012D' 120A' 118A' 2000' 120A' 118A' 	fcall	stringdir
  2297  0132' 00B0'              	movwf	??_scale+4
  2298  0133' 0830'              	movf	??_scale+4,w
  2299  0134' 0091'              	movwf	___flmul@b+3
  2300  0135' 082F'              	movf	??_scale+3,w
  2301  0136' 0090'              	movwf	___flmul@b+2
  2302  0137' 082E'              	movf	??_scale+2,w
  2303  0138' 008F'              	movwf	___flmul@b+1
  2304  0139' 082D'              	movf	??_scale+1,w
  2305  013A' 008E'              	movwf	___flmul@b
  2306  013B' 300A               	movlw	10
  2307  013C' 0087'              	movwf	___awdiv@divisor
  2308  013D' 3000               	movlw	0
  2309  013E' 0088'              	movwf	___awdiv@divisor+1
  2310  013F' 083A'              	movf	scale@scl,w
  2311  0140' 0089'              	movwf	___awdiv@dividend
  2312  0141' 018A'              	clrf	___awdiv@dividend+1
  2313  0142' 1B89'              	btfsc	___awdiv@dividend,7
  2314  0143' 038A'              	decf	___awdiv@dividend+1,f
  2315  0144' 120A' 118A' 2000' 120A' 118A' 	fcall	___awdiv
  2316  0149' 0807'              	movf	?___awdiv,w
  2317  014A' 1283               	bcf	3,5	;RP0=0, select bank0
  2318  014B' 1303               	bcf	3,6	;RP1=0, select bank0
  2319  014C' 00B1'              	movwf	??_scale+5
  2320  014D' 3001               	movlw	1
  2321  014E'                    u4625:
  2322  014E' 1003               	clrc
  2323  014F' 0DB1'              	rlf	??_scale+5,f
  2324  0150' 3EFF               	addlw	-1
  2325  0151' 1D03               	skipz
  2326  0152' 2800'              	goto	u4625
  2327  0153' 1003               	clrc
  2328  0154' 0D31'              	rlf	??_scale+5,w
  2329  0155' 3E59               	addlw	low (((__npowers_-__stringbase)| (0+32768)+36))
  2330  0156' 0084               	movwf	4
  2331  0157' 120A' 118A' 2000' 120A' 118A' 	fcall	stringdir
  2332  015C' 00B2'              	movwf	??_scale+6
  2333  015D' 120A' 118A' 2000' 120A' 118A' 	fcall	stringdir
  2334  0162' 00B3'              	movwf	??_scale+7
  2335  0163' 120A' 118A' 2000' 120A' 118A' 	fcall	stringdir
  2336  0168' 00B4'              	movwf	??_scale+8
  2337  0169' 120A' 118A' 2000' 120A' 118A' 	fcall	stringdir
  2338  016E' 00B5'              	movwf	??_scale+9
  2339  016F' 0835'              	movf	??_scale+9,w
  2340  0170' 0095'              	movwf	___flmul@a+3
  2341  0171' 0834'              	movf	??_scale+8,w
  2342  0172' 0094'              	movwf	___flmul@a+2
  2343  0173' 0833'              	movf	??_scale+7,w
  2344  0174' 0093'              	movwf	___flmul@a+1
  2345  0175' 0832'              	movf	??_scale+6,w
  2346  0176' 0092'              	movwf	___flmul@a
  2347  0177' 120A' 118A' 2000' 120A' 118A' 	fcall	___flmul
  2348  017C' 1283               	bcf	3,5	;RP0=0, select bank0
  2349  017D' 1303               	bcf	3,6	;RP1=0, select bank0
  2350  017E' 0811'              	movf	?___flmul+3,w
  2351  017F' 00AB'              	movwf	?_scale+3
  2352  0180' 0810'              	movf	?___flmul+2,w
  2353  0181' 00AA'              	movwf	?_scale+2
  2354  0182' 080F'              	movf	?___flmul+1,w
  2355  0183' 00A9'              	movwf	?_scale+1
  2356  0184' 080E'              	movf	?___flmul,w
  2357  0185' 00A8'              	movwf	?_scale
  2358  0186' 2800'              	goto	l201
  2359  0187'                    l2863:
  2360                           
  2361                           ;C:\Program Files\Microchip\xc8\v2.40\pic\sources\c90\common\doprnt.c: 442:   return _np
      +                          owers_[(unsigned char)scl];
  2362  0187' 083A'              	movf	scale@scl,w
  2363  0188' 00AC'              	movwf	??_scale
  2364  0189' 3001               	movlw	1
  2365  018A'                    u4635:
  2366  018A' 1003               	clrc
  2367  018B' 0DAC'              	rlf	??_scale,f
  2368  018C' 3EFF               	addlw	-1
  2369  018D' 1D03               	skipz
  2370  018E' 2800'              	goto	u4635
  2371  018F' 1003               	clrc
  2372  0190' 0D2C'              	rlf	??_scale,w
  2373  0191' 3E35               	addlw	low ((__npowers_-__stringbase)| (0+32768))
  2374  0192' 0084               	movwf	4
  2375  0193' 120A' 118A' 2000' 120A' 118A' 	fcall	stringdir
  2376  0198' 00AD'              	movwf	??_scale+1
  2377  0199' 120A' 118A' 2000' 120A' 118A' 	fcall	stringdir
  2378  019E' 00AE'              	movwf	??_scale+2
  2379  019F' 120A' 118A' 2000' 120A' 118A' 	fcall	stringdir
  2380  01A4' 00AF'              	movwf	??_scale+3
  2381  01A5' 120A' 118A' 2000' 120A' 118A' 	fcall	stringdir
  2382  01AA' 00B0'              	movwf	??_scale+4
  2383  01AB' 0830'              	movf	??_scale+4,w
  2384  01AC' 00AB'              	movwf	?_scale+3
  2385  01AD' 082F'              	movf	??_scale+3,w
  2386  01AE' 00AA'              	movwf	?_scale+2
  2387  01AF' 082E'              	movf	??_scale+2,w
  2388  01B0' 00A9'              	movwf	?_scale+1
  2389  01B1' 082D'              	movf	??_scale+1,w
  2390  01B2' 00A8'              	movwf	?_scale
  2391  01B3' 2800'              	goto	l201
  2392  01B4'                    l2867:
  2393                           
  2394                           ;C:\Program Files\Microchip\xc8\v2.40\pic\sources\c90\common\doprnt.c: 444:  if(scl>=110
      +                          )
  2395  01B4' 083A'              	movf	scale@scl,w
  2396  01B5' 3A80               	xorlw	128
  2397  01B6' 3E12               	addlw	-238
  2398  01B7' 1C03               	skipc
  2399  01B8' 2800'              	goto	u4641
  2400  01B9' 2800'              	goto	u4640
  2401  01BA'                    u4641:
  2402  01BA' 2800'              	goto	l2875
  2403  01BB'                    u4640:
  2404  01BB'                    l2869:
  2405                           
  2406                           ;C:\Program Files\Microchip\xc8\v2.40\pic\sources\c90\common\doprnt.c: 445:   return _po
      +                          wers_[(unsigned char)(scl/100+18)] * _powers_[(unsigned char)((scl%100)/10+9)] * _powers
      +                          _[(unsigned char)(scl%10)];
  2407  01BB' 300A               	movlw	10
  2408  01BC' 0087'              	movwf	___awdiv@divisor
  2409  01BD' 3000               	movlw	0
  2410  01BE' 0088'              	movwf	___awdiv@divisor+1
  2411  01BF' 083A'              	movf	scale@scl,w
  2412  01C0' 0082'              	movwf	___awmod@dividend
  2413  01C1' 0183'              	clrf	___awmod@dividend+1
  2414  01C2' 1B82'              	btfsc	___awmod@dividend,7
  2415  01C3' 0383'              	decf	___awmod@dividend+1,f
  2416  01C4' 3064               	movlw	100
  2417  01C5' 0080'              	movwf	___awmod@divisor
  2418  01C6' 3000               	movlw	0
  2419  01C7' 0081'              	movwf	___awmod@divisor+1
  2420  01C8' 120A' 118A' 2000' 120A' 118A' 	fcall	___awmod
  2421  01CD' 0801'              	movf	?___awmod+1,w
  2422  01CE' 008A'              	movwf	___awdiv@dividend+1
  2423  01CF' 0800'              	movf	?___awmod,w
  2424  01D0' 0089'              	movwf	___awdiv@dividend
  2425  01D1' 120A' 118A' 2000' 120A' 118A' 	fcall	___awdiv
  2426  01D6' 0807'              	movf	?___awdiv,w
  2427  01D7' 1283               	bcf	3,5	;RP0=0, select bank0
  2428  01D8' 1303               	bcf	3,6	;RP1=0, select bank0
  2429  01D9' 00AC'              	movwf	??_scale
  2430  01DA' 3001               	movlw	1
  2431  01DB'                    u4655:
  2432  01DB' 1003               	clrc
  2433  01DC' 0DAC'              	rlf	??_scale,f
  2434  01DD' 3EFF               	addlw	-1
  2435  01DE' 1D03               	skipz
  2436  01DF' 2800'              	goto	u4655
  2437  01E0' 1003               	clrc
  2438  01E1' 0D2C'              	rlf	??_scale,w
  2439  01E2' 3E25               	addlw	low (((__powers_-__stringbase)| (0+32768)+36))
  2440  01E3' 0084               	movwf	4
  2441  01E4' 120A' 118A' 2000' 120A' 118A' 	fcall	stringdir
  2442  01E9' 00AD'              	movwf	??_scale+1
  2443  01EA' 120A' 118A' 2000' 120A' 118A' 	fcall	stringdir
  2444  01EF' 00AE'              	movwf	??_scale+2
  2445  01F0' 120A' 118A' 2000' 120A' 118A' 	fcall	stringdir
  2446  01F5' 00AF'              	movwf	??_scale+3
  2447  01F6' 120A' 118A' 2000' 120A' 118A' 	fcall	stringdir
  2448  01FB' 00B0'              	movwf	??_scale+4
  2449  01FC' 0830'              	movf	??_scale+4,w
  2450  01FD' 0091'              	movwf	___flmul@b+3
  2451  01FE' 082F'              	movf	??_scale+3,w
  2452  01FF' 0090'              	movwf	___flmul@b+2
  2453  0200' 082E'              	movf	??_scale+2,w
  2454  0201' 008F'              	movwf	___flmul@b+1
  2455  0202' 082D'              	movf	??_scale+1,w
  2456  0203' 008E'              	movwf	___flmul@b
  2457  0204' 3064               	movlw	100
  2458  0205' 0087'              	movwf	___awdiv@divisor
  2459  0206' 3000               	movlw	0
  2460  0207' 0088'              	movwf	___awdiv@divisor+1
  2461  0208' 083A'              	movf	scale@scl,w
  2462  0209' 0089'              	movwf	___awdiv@dividend
  2463  020A' 018A'              	clrf	___awdiv@dividend+1
  2464  020B' 1B89'              	btfsc	___awdiv@dividend,7
  2465  020C' 038A'              	decf	___awdiv@dividend+1,f
  2466  020D' 120A' 118A' 2000' 120A' 118A' 	fcall	___awdiv
  2467  0212' 0807'              	movf	?___awdiv,w
  2468  0213' 1283               	bcf	3,5	;RP0=0, select bank0
  2469  0214' 1303               	bcf	3,6	;RP1=0, select bank0
  2470  0215' 00B1'              	movwf	??_scale+5
  2471  0216' 3001               	movlw	1
  2472  0217'                    u4665:
  2473  0217' 1003               	clrc
  2474  0218' 0DB1'              	rlf	??_scale+5,f
  2475  0219' 3EFF               	addlw	-1
  2476  021A' 1D03               	skipz
  2477  021B' 2800'              	goto	u4665
  2478  021C' 1003               	clrc
  2479  021D' 0D31'              	rlf	??_scale+5,w
  2480  021E' 3E49               	addlw	low (((__powers_-__stringbase)| (0+32768)+72))
  2481  021F' 0084               	movwf	4
  2482  0220' 120A' 118A' 2000' 120A' 118A' 	fcall	stringdir
  2483  0225' 00B2'              	movwf	??_scale+6
  2484  0226' 120A' 118A' 2000' 120A' 118A' 	fcall	stringdir
  2485  022B' 00B3'              	movwf	??_scale+7
  2486  022C' 120A' 118A' 2000' 120A' 118A' 	fcall	stringdir
  2487  0231' 00B4'              	movwf	??_scale+8
  2488  0232' 120A' 118A' 2000' 120A' 118A' 	fcall	stringdir
  2489  0237' 00B5'              	movwf	??_scale+9
  2490  0238' 0835'              	movf	??_scale+9,w
  2491  0239' 0095'              	movwf	___flmul@a+3
  2492  023A' 0834'              	movf	??_scale+8,w
  2493  023B' 0094'              	movwf	___flmul@a+2
  2494  023C' 0833'              	movf	??_scale+7,w
  2495  023D' 0093'              	movwf	___flmul@a+1
  2496  023E' 0832'              	movf	??_scale+6,w
  2497  023F' 0092'              	movwf	___flmul@a
  2498  0240' 120A' 118A' 2000' 120A' 118A' 	fcall	___flmul
  2499  0245' 1283               	bcf	3,5	;RP0=0, select bank0
  2500  0246' 1303               	bcf	3,6	;RP1=0, select bank0
  2501  0247' 0811'              	movf	?___flmul+3,w
  2502  0248' 00B9'              	movwf	_scale$896+3
  2503  0249' 0810'              	movf	?___flmul+2,w
  2504  024A' 00B8'              	movwf	_scale$896+2
  2505  024B' 080F'              	movf	?___flmul+1,w
  2506  024C' 00B7'              	movwf	_scale$896+1
  2507  024D' 080E'              	movf	?___flmul,w
  2508  024E' 00B6'              	movwf	_scale$896
  2509                           
  2510                           ;C:\Program Files\Microchip\xc8\v2.40\pic\sources\c90\common\doprnt.c: 445:   return _po
      +                          wers_[(unsigned char)(scl/100+18)] * _powers_[(unsigned char)((scl%100)/10+9)] * _powers
      +                          _[(unsigned char)(scl%10)];
  2511  024F' 300A               	movlw	10
  2512  0250' 0080'              	movwf	___awmod@divisor
  2513  0251' 3000               	movlw	0
  2514  0252' 0081'              	movwf	___awmod@divisor+1
  2515  0253' 083A'              	movf	scale@scl,w
  2516  0254' 0082'              	movwf	___awmod@dividend
  2517  0255' 0183'              	clrf	___awmod@dividend+1
  2518  0256' 1B82'              	btfsc	___awmod@dividend,7
  2519  0257' 0383'              	decf	___awmod@dividend+1,f
  2520  0258' 120A' 118A' 2000' 120A' 118A' 	fcall	___awmod
  2521  025D' 0800'              	movf	?___awmod,w
  2522  025E' 1283               	bcf	3,5	;RP0=0, select bank0
  2523  025F' 1303               	bcf	3,6	;RP1=0, select bank0
  2524  0260' 00AC'              	movwf	??_scale
  2525  0261' 3001               	movlw	1
  2526  0262'                    u4675:
  2527  0262' 1003               	clrc
  2528  0263' 0DAC'              	rlf	??_scale,f
  2529  0264' 3EFF               	addlw	-1
  2530  0265' 1D03               	skipz
  2531  0266' 2800'              	goto	u4675
  2532  0267' 1003               	clrc
  2533  0268' 0D2C'              	rlf	??_scale,w
  2534  0269' 3E01               	addlw	low ((__powers_-__stringbase)| (0+32768))
  2535  026A' 0084               	movwf	4
  2536  026B' 120A' 118A' 2000' 120A' 118A' 	fcall	stringdir
  2537  0270' 00AD'              	movwf	??_scale+1
  2538  0271' 120A' 118A' 2000' 120A' 118A' 	fcall	stringdir
  2539  0276' 00AE'              	movwf	??_scale+2
  2540  0277' 120A' 118A' 2000' 120A' 118A' 	fcall	stringdir
  2541  027C' 00AF'              	movwf	??_scale+3
  2542  027D' 120A' 118A' 2000' 120A' 118A' 	fcall	stringdir
  2543  0282' 00B0'              	movwf	??_scale+4
  2544  0283' 0830'              	movf	??_scale+4,w
  2545  0284' 0091'              	movwf	___flmul@b+3
  2546  0285' 082F'              	movf	??_scale+3,w
  2547  0286' 0090'              	movwf	___flmul@b+2
  2548  0287' 082E'              	movf	??_scale+2,w
  2549  0288' 008F'              	movwf	___flmul@b+1
  2550  0289' 082D'              	movf	??_scale+1,w
  2551  028A' 008E'              	movwf	___flmul@b
  2552  028B' 0839'              	movf	_scale$896+3,w
  2553  028C' 0095'              	movwf	___flmul@a+3
  2554  028D' 0838'              	movf	_scale$896+2,w
  2555  028E' 0094'              	movwf	___flmul@a+2
  2556  028F' 0837'              	movf	_scale$896+1,w
  2557  0290' 0093'              	movwf	___flmul@a+1
  2558  0291' 0836'              	movf	_scale$896,w
  2559  0292' 0092'              	movwf	___flmul@a
  2560  0293' 120A' 118A' 2000' 120A' 118A' 	fcall	___flmul
  2561  0298' 1283               	bcf	3,5	;RP0=0, select bank0
  2562  0299' 1303               	bcf	3,6	;RP1=0, select bank0
  2563  029A' 0811'              	movf	?___flmul+3,w
  2564  029B' 00AB'              	movwf	?_scale+3
  2565  029C' 0810'              	movf	?___flmul+2,w
  2566  029D' 00AA'              	movwf	?_scale+2
  2567  029E' 080F'              	movf	?___flmul+1,w
  2568  029F' 00A9'              	movwf	?_scale+1
  2569  02A0' 080E'              	movf	?___flmul,w
  2570  02A1' 00A8'              	movwf	?_scale
  2571  02A2' 2800'              	goto	l201
  2572  02A3'                    l2875:
  2573  02A3' 083A'              	movf	scale@scl,w
  2574  02A4' 3A80               	xorlw	128
  2575  02A5' 3E75               	addlw	-139
  2576  02A6' 1C03               	skipc
  2577  02A7' 2800'              	goto	u4681
  2578  02A8' 2800'              	goto	u4680
  2579  02A9'                    u4681:
  2580  02A9' 2800'              	goto	l2881
  2581  02AA'                    u4680:
  2582  02AA'                    l2877:
  2583                           
  2584                           ;C:\Program Files\Microchip\xc8\v2.40\pic\sources\c90\common\doprnt.c: 447:   return _po
      +                          wers_[(unsigned char)(scl/10+9)] * _powers_[(unsigned char)(scl%10)];
  2585  02AA' 300A               	movlw	10
  2586  02AB' 0080'              	movwf	___awmod@divisor
  2587  02AC' 3000               	movlw	0
  2588  02AD' 0081'              	movwf	___awmod@divisor+1
  2589  02AE' 083A'              	movf	scale@scl,w
  2590  02AF' 0082'              	movwf	___awmod@dividend
  2591  02B0' 0183'              	clrf	___awmod@dividend+1
  2592  02B1' 1B82'              	btfsc	___awmod@dividend,7
  2593  02B2' 0383'              	decf	___awmod@dividend+1,f
  2594  02B3' 120A' 118A' 2000' 120A' 118A' 	fcall	___awmod
  2595  02B8' 0800'              	movf	?___awmod,w
  2596  02B9' 1283               	bcf	3,5	;RP0=0, select bank0
  2597  02BA' 1303               	bcf	3,6	;RP1=0, select bank0
  2598  02BB' 00AC'              	movwf	??_scale
  2599  02BC' 3001               	movlw	1
  2600  02BD'                    u4695:
  2601  02BD' 1003               	clrc
  2602  02BE' 0DAC'              	rlf	??_scale,f
  2603  02BF' 3EFF               	addlw	-1
  2604  02C0' 1D03               	skipz
  2605  02C1' 2800'              	goto	u4695
  2606  02C2' 1003               	clrc
  2607  02C3' 0D2C'              	rlf	??_scale,w
  2608  02C4' 3E01               	addlw	low ((__powers_-__stringbase)| (0+32768))
  2609  02C5' 0084               	movwf	4
  2610  02C6' 120A' 118A' 2000' 120A' 118A' 	fcall	stringdir
  2611  02CB' 00AD'              	movwf	??_scale+1
  2612  02CC' 120A' 118A' 2000' 120A' 118A' 	fcall	stringdir
  2613  02D1' 00AE'              	movwf	??_scale+2
  2614  02D2' 120A' 118A' 2000' 120A' 118A' 	fcall	stringdir
  2615  02D7' 00AF'              	movwf	??_scale+3
  2616  02D8' 120A' 118A' 2000' 120A' 118A' 	fcall	stringdir
  2617  02DD' 00B0'              	movwf	??_scale+4
  2618  02DE' 0830'              	movf	??_scale+4,w
  2619  02DF' 0091'              	movwf	___flmul@b+3
  2620  02E0' 082F'              	movf	??_scale+3,w
  2621  02E1' 0090'              	movwf	___flmul@b+2
  2622  02E2' 082E'              	movf	??_scale+2,w
  2623  02E3' 008F'              	movwf	___flmul@b+1
  2624  02E4' 082D'              	movf	??_scale+1,w
  2625  02E5' 008E'              	movwf	___flmul@b
  2626  02E6' 300A               	movlw	10
  2627  02E7' 0087'              	movwf	___awdiv@divisor
  2628  02E8' 3000               	movlw	0
  2629  02E9' 0088'              	movwf	___awdiv@divisor+1
  2630  02EA' 083A'              	movf	scale@scl,w
  2631  02EB' 0089'              	movwf	___awdiv@dividend
  2632  02EC' 018A'              	clrf	___awdiv@dividend+1
  2633  02ED' 1B89'              	btfsc	___awdiv@dividend,7
  2634  02EE' 038A'              	decf	___awdiv@dividend+1,f
  2635  02EF' 120A' 118A' 2000' 120A' 118A' 	fcall	___awdiv
  2636  02F4' 0807'              	movf	?___awdiv,w
  2637  02F5' 1283               	bcf	3,5	;RP0=0, select bank0
  2638  02F6' 1303               	bcf	3,6	;RP1=0, select bank0
  2639  02F7' 00B1'              	movwf	??_scale+5
  2640  02F8' 3001               	movlw	1
  2641  02F9'                    u4705:
  2642  02F9' 1003               	clrc
  2643  02FA' 0DB1'              	rlf	??_scale+5,f
  2644  02FB' 3EFF               	addlw	-1
  2645  02FC' 1D03               	skipz
  2646  02FD' 2800'              	goto	u4705
  2647  02FE' 1003               	clrc
  2648  02FF' 0D31'              	rlf	??_scale+5,w
  2649  0300' 3E25               	addlw	low (((__powers_-__stringbase)| (0+32768)+36))
  2650  0301' 0084               	movwf	4
  2651  0302' 120A' 118A' 2000' 120A' 118A' 	fcall	stringdir
  2652  0307' 00B2'              	movwf	??_scale+6
  2653  0308' 120A' 118A' 2000' 120A' 118A' 	fcall	stringdir
  2654  030D' 00B3'              	movwf	??_scale+7
  2655  030E' 120A' 118A' 2000' 120A' 118A' 	fcall	stringdir
  2656  0313' 00B4'              	movwf	??_scale+8
  2657  0314' 120A' 118A' 2000' 120A' 118A' 	fcall	stringdir
  2658  0319' 00B5'              	movwf	??_scale+9
  2659  031A' 0835'              	movf	??_scale+9,w
  2660  031B' 0095'              	movwf	___flmul@a+3
  2661  031C' 0834'              	movf	??_scale+8,w
  2662  031D' 0094'              	movwf	___flmul@a+2
  2663  031E' 0833'              	movf	??_scale+7,w
  2664  031F' 0093'              	movwf	___flmul@a+1
  2665  0320' 0832'              	movf	??_scale+6,w
  2666  0321' 0092'              	movwf	___flmul@a
  2667  0322' 120A' 118A' 2000' 120A' 118A' 	fcall	___flmul
  2668  0327' 1283               	bcf	3,5	;RP0=0, select bank0
  2669  0328' 1303               	bcf	3,6	;RP1=0, select bank0
  2670  0329' 0811'              	movf	?___flmul+3,w
  2671  032A' 00AB'              	movwf	?_scale+3
  2672  032B' 0810'              	movf	?___flmul+2,w
  2673  032C' 00AA'              	movwf	?_scale+2
  2674  032D' 080F'              	movf	?___flmul+1,w
  2675  032E' 00A9'              	movwf	?_scale+1
  2676  032F' 080E'              	movf	?___flmul,w
  2677  0330' 00A8'              	movwf	?_scale
  2678  0331' 2800'              	goto	l201
  2679  0332'                    l2881:
  2680                           
  2681                           ;C:\Program Files\Microchip\xc8\v2.40\pic\sources\c90\common\doprnt.c: 448:  return _pow
      +                          ers_[(unsigned char)scl];
  2682  0332' 083A'              	movf	scale@scl,w
  2683  0333' 00AC'              	movwf	??_scale
  2684  0334' 3001               	movlw	1
  2685  0335'                    u4715:
  2686  0335' 1003               	clrc
  2687  0336' 0DAC'              	rlf	??_scale,f
  2688  0337' 3EFF               	addlw	-1
  2689  0338' 1D03               	skipz
  2690  0339' 2800'              	goto	u4715
  2691  033A' 1003               	clrc
  2692  033B' 0D2C'              	rlf	??_scale,w
  2693  033C' 3E01               	addlw	low ((__powers_-__stringbase)| (0+32768))
  2694  033D' 0084               	movwf	4
  2695  033E' 120A' 118A' 2000' 120A' 118A' 	fcall	stringdir
  2696  0343' 00AD'              	movwf	??_scale+1
  2697  0344' 120A' 118A' 2000' 120A' 118A' 	fcall	stringdir
  2698  0349' 00AE'              	movwf	??_scale+2
  2699  034A' 120A' 118A' 2000' 120A' 118A' 	fcall	stringdir
  2700  034F' 00AF'              	movwf	??_scale+3
  2701  0350' 120A' 118A' 2000' 120A' 118A' 	fcall	stringdir
  2702  0355' 00B0'              	movwf	??_scale+4
  2703  0356' 0830'              	movf	??_scale+4,w
  2704  0357' 00AB'              	movwf	?_scale+3
  2705  0358' 082F'              	movf	??_scale+3,w
  2706  0359' 00AA'              	movwf	?_scale+2
  2707  035A' 082E'              	movf	??_scale+2,w
  2708  035B' 00A9'              	movwf	?_scale+1
  2709  035C' 082D'              	movf	??_scale+1,w
  2710  035D' 00A8'              	movwf	?_scale
  2711  035E'                    l201:
  2712  035E' 0008               	return
  2713  035F'                    __end_of_scale:
  2714                           
  2715                           	psect	text3
  2716  0000'                    __ptext3:	
  2717 ;; *************** function ___awmod *****************
  2718 ;; Defined at:
  2719 ;;		line 5 in file "C:\Program Files\Microchip\xc8\v2.40\pic\sources\c90\common\awmod.c"
  2720 ;; Parameters:    Size  Location     Type
  2721 ;;  divisor         2    0[COMMON] int 
  2722 ;;  dividend        2    2[COMMON] int 
  2723 ;; Auto vars:     Size  Location     Type
  2724 ;;  sign            1    6[COMMON] unsigned char 
  2725 ;;  counter         1    5[COMMON] unsigned char 
  2726 ;; Return value:  Size  Location     Type
  2727 ;;                  2    0[COMMON] int 
  2728 ;; Registers used:
  2729 ;;		wreg, status,2, status,0
  2730 ;; Tracked objects:
  2731 ;;		On entry : 0/0
  2732 ;;		On exit  : 0/0
  2733 ;;		Unchanged: 0/0
  2734 ;; Data sizes:     COMMON   BANK0   BANK1   BANK3   BANK2
  2735 ;;      Params:         4       0       0       0       0
  2736 ;;      Locals:         2       0       0       0       0
  2737 ;;      Temps:          1       0       0       0       0
  2738 ;;      Totals:         7       0       0       0       0
  2739 ;;Total ram usage:        7 bytes
  2740 ;; Hardware stack levels used: 1
  2741 ;; This function calls:
  2742 ;;		Nothing
  2743 ;; This function is called by:
  2744 ;;		_scale
  2745 ;; This function uses a non-reentrant model
  2746 ;;
  2747                           
  2748  0000'                    ___awmod:	
  2749                           ;psect for function ___awmod
  2750                           
  2751  0000'                    l2377:	
  2752                           ;incstack = 0
  2753                           ; Regs used in ___awmod: [wreg+status,2+status,0]
  2754                           
  2755  0000' 0186'              	clrf	___awmod@sign
  2756  0001'                    l2379:
  2757  0001' 1F83'              	btfss	___awmod@dividend+1,7
  2758  0002' 2800'              	goto	u3411
  2759  0003' 2800'              	goto	u3410
  2760  0004'                    u3411:
  2761  0004' 2800'              	goto	l2385
  2762  0005'                    u3410:
  2763  0005'                    l2381:
  2764  0005' 0982'              	comf	___awmod@dividend,f
  2765  0006' 0983'              	comf	___awmod@dividend+1,f
  2766  0007' 0A82'              	incf	___awmod@dividend,f
  2767  0008' 1903               	skipnz
  2768  0009' 0A83'              	incf	___awmod@dividend+1,f
  2769  000A'                    l2383:
  2770  000A' 0186'              	clrf	___awmod@sign
  2771  000B' 0A86'              	incf	___awmod@sign,f
  2772  000C'                    l2385:
  2773  000C' 1F81'              	btfss	___awmod@divisor+1,7
  2774  000D' 2800'              	goto	u3421
  2775  000E' 2800'              	goto	u3420
  2776  000F'                    u3421:
  2777  000F' 2800'              	goto	l2389
  2778  0010'                    u3420:
  2779  0010'                    l2387:
  2780  0010' 0980'              	comf	___awmod@divisor,f
  2781  0011' 0981'              	comf	___awmod@divisor+1,f
  2782  0012' 0A80'              	incf	___awmod@divisor,f
  2783  0013' 1903               	skipnz
  2784  0014' 0A81'              	incf	___awmod@divisor+1,f
  2785  0015'                    l2389:
  2786  0015' 0800'              	movf	___awmod@divisor,w
  2787  0016' 0401'              	iorwf	___awmod@divisor+1,w
  2788  0017' 1903               	btfsc	3,2
  2789  0018' 2800'              	goto	u3431
  2790  0019' 2800'              	goto	u3430
  2791  001A'                    u3431:
  2792  001A' 2800'              	goto	l2407
  2793  001B'                    u3430:
  2794  001B'                    l2391:
  2795  001B' 0185'              	clrf	___awmod@counter
  2796  001C' 0A85'              	incf	___awmod@counter,f
  2797  001D' 2800'              	goto	l2397
  2798  001E'                    l2393:
  2799  001E' 3001               	movlw	1
  2800  001F'                    u3445:
  2801  001F' 1003               	clrc
  2802  0020' 0D80'              	rlf	___awmod@divisor,f
  2803  0021' 0D81'              	rlf	___awmod@divisor+1,f
  2804  0022' 3EFF               	addlw	-1
  2805  0023' 1D03               	skipz
  2806  0024' 2800'              	goto	u3445
  2807  0025'                    l2395:
  2808  0025' 3001               	movlw	1
  2809  0026' 0084'              	movwf	??___awmod
  2810  0027' 0804'              	movf	??___awmod,w
  2811  0028' 0785'              	addwf	___awmod@counter,f
  2812  0029'                    l2397:
  2813  0029' 1F81'              	btfss	___awmod@divisor+1,7
  2814  002A' 2800'              	goto	u3451
  2815  002B' 2800'              	goto	u3450
  2816  002C'                    u3451:
  2817  002C' 2800'              	goto	l2393
  2818  002D'                    u3450:
  2819  002D'                    l2399:
  2820  002D' 0801'              	movf	___awmod@divisor+1,w
  2821  002E' 0203'              	subwf	___awmod@dividend+1,w
  2822  002F' 1D03               	skipz
  2823  0030' 2800'              	goto	u3465
  2824  0031' 0800'              	movf	___awmod@divisor,w
  2825  0032' 0202'              	subwf	___awmod@dividend,w
  2826  0033'                    u3465:
  2827  0033' 1C03               	skipc
  2828  0034' 2800'              	goto	u3461
  2829  0035' 2800'              	goto	u3460
  2830  0036'                    u3461:
  2831  0036' 2800'              	goto	l2403
  2832  0037'                    u3460:
  2833  0037'                    l2401:
  2834  0037' 0800'              	movf	___awmod@divisor,w
  2835  0038' 0282'              	subwf	___awmod@dividend,f
  2836  0039' 0801'              	movf	___awmod@divisor+1,w
  2837  003A' 1C03               	skipc
  2838  003B' 0383'              	decf	___awmod@dividend+1,f
  2839  003C' 0283'              	subwf	___awmod@dividend+1,f
  2840  003D'                    l2403:
  2841  003D' 3001               	movlw	1
  2842  003E'                    u3475:
  2843  003E' 1003               	clrc
  2844  003F' 0C81'              	rrf	___awmod@divisor+1,f
  2845  0040' 0C80'              	rrf	___awmod@divisor,f
  2846  0041' 3EFF               	addlw	-1
  2847  0042' 1D03               	skipz
  2848  0043' 2800'              	goto	u3475
  2849  0044'                    l2405:
  2850  0044' 3001               	movlw	1
  2851  0045' 0285'              	subwf	___awmod@counter,f
  2852  0046' 1D03               	btfss	3,2
  2853  0047' 2800'              	goto	u3481
  2854  0048' 2800'              	goto	u3480
  2855  0049'                    u3481:
  2856  0049' 2800'              	goto	l2399
  2857  004A'                    u3480:
  2858  004A'                    l2407:
  2859  004A' 0806'              	movf	___awmod@sign,w
  2860  004B' 1903               	btfsc	3,2
  2861  004C' 2800'              	goto	u3491
  2862  004D' 2800'              	goto	u3490
  2863  004E'                    u3491:
  2864  004E' 2800'              	goto	l2411
  2865  004F'                    u3490:
  2866  004F'                    l2409:
  2867  004F' 0982'              	comf	___awmod@dividend,f
  2868  0050' 0983'              	comf	___awmod@dividend+1,f
  2869  0051' 0A82'              	incf	___awmod@dividend,f
  2870  0052' 1903               	skipnz
  2871  0053' 0A83'              	incf	___awmod@dividend+1,f
  2872  0054'                    l2411:
  2873  0054' 0803'              	movf	___awmod@dividend+1,w
  2874  0055' 0081'              	movwf	?___awmod+1
  2875  0056' 0802'              	movf	___awmod@dividend,w
  2876  0057' 0080'              	movwf	?___awmod
  2877  0058'                    l463:
  2878  0058' 0008               	return
  2879  0059'                    __end_of___awmod:
  2880                           
  2881                           	psect	text4
  2882  0000'                    __ptext4:	
  2883 ;; *************** function ___awdiv *****************
  2884 ;; Defined at:
  2885 ;;		line 5 in file "C:\Program Files\Microchip\xc8\v2.40\pic\sources\c90\common\awdiv.c"
  2886 ;; Parameters:    Size  Location     Type
  2887 ;;  divisor         2    7[COMMON] int 
  2888 ;;  dividend        2    9[COMMON] int 
  2889 ;; Auto vars:     Size  Location     Type
  2890 ;;  quotient        2    2[BANK0 ] int 
  2891 ;;  sign            1    1[BANK0 ] unsigned char 
  2892 ;;  counter         1    0[BANK0 ] unsigned char 
  2893 ;; Return value:  Size  Location     Type
  2894 ;;                  2    7[COMMON] int 
  2895 ;; Registers used:
  2896 ;;		wreg, status,2, status,0
  2897 ;; Tracked objects:
  2898 ;;		On entry : 0/0
  2899 ;;		On exit  : 0/0
  2900 ;;		Unchanged: 0/0
  2901 ;; Data sizes:     COMMON   BANK0   BANK1   BANK3   BANK2
  2902 ;;      Params:         4       0       0       0       0
  2903 ;;      Locals:         0       4       0       0       0
  2904 ;;      Temps:          1       0       0       0       0
  2905 ;;      Totals:         5       4       0       0       0
  2906 ;;Total ram usage:        9 bytes
  2907 ;; Hardware stack levels used: 1
  2908 ;; This function calls:
  2909 ;;		Nothing
  2910 ;; This function is called by:
  2911 ;;		_scale
  2912 ;;		_sprintf
  2913 ;; This function uses a non-reentrant model
  2914 ;;
  2915                           
  2916  0000'                    ___awdiv:	
  2917                           ;psect for function ___awdiv
  2918                           
  2919  0000'                    l2333:	
  2920                           ;incstack = 0
  2921                           ; Regs used in ___awdiv: [wreg+status,2+status,0]
  2922                           
  2923  0000' 1283               	bcf	3,5	;RP0=0, select bank0
  2924  0001' 1303               	bcf	3,6	;RP1=0, select bank0
  2925  0002' 0181'              	clrf	___awdiv@sign
  2926  0003'                    l2335:
  2927  0003' 1F88'              	btfss	___awdiv@divisor+1,7
  2928  0004' 2800'              	goto	u3311
  2929  0005' 2800'              	goto	u3310
  2930  0006'                    u3311:
  2931  0006' 2800'              	goto	l2341
  2932  0007'                    u3310:
  2933  0007'                    l2337:
  2934  0007' 0987'              	comf	___awdiv@divisor,f
  2935  0008' 0988'              	comf	___awdiv@divisor+1,f
  2936  0009' 0A87'              	incf	___awdiv@divisor,f
  2937  000A' 1903               	skipnz
  2938  000B' 0A88'              	incf	___awdiv@divisor+1,f
  2939  000C'                    l2339:
  2940  000C' 0181'              	clrf	___awdiv@sign
  2941  000D' 0A81'              	incf	___awdiv@sign,f
  2942  000E'                    l2341:
  2943  000E' 1F8A'              	btfss	___awdiv@dividend+1,7
  2944  000F' 2800'              	goto	u3321
  2945  0010' 2800'              	goto	u3320
  2946  0011'                    u3321:
  2947  0011' 2800'              	goto	l2347
  2948  0012'                    u3320:
  2949  0012'                    l2343:
  2950  0012' 0989'              	comf	___awdiv@dividend,f
  2951  0013' 098A'              	comf	___awdiv@dividend+1,f
  2952  0014' 0A89'              	incf	___awdiv@dividend,f
  2953  0015' 1903               	skipnz
  2954  0016' 0A8A'              	incf	___awdiv@dividend+1,f
  2955  0017'                    l2345:
  2956  0017' 3001               	movlw	1
  2957  0018' 008B'              	movwf	??___awdiv
  2958  0019' 080B'              	movf	??___awdiv,w
  2959  001A' 0681'              	xorwf	___awdiv@sign,f
  2960  001B'                    l2347:
  2961  001B' 0182'              	clrf	___awdiv@quotient
  2962  001C' 0183'              	clrf	___awdiv@quotient+1
  2963  001D'                    l2349:
  2964  001D' 0807'              	movf	___awdiv@divisor,w
  2965  001E' 0408'              	iorwf	___awdiv@divisor+1,w
  2966  001F' 1903               	btfsc	3,2
  2967  0020' 2800'              	goto	u3331
  2968  0021' 2800'              	goto	u3330
  2969  0022'                    u3331:
  2970  0022' 2800'              	goto	l2369
  2971  0023'                    u3330:
  2972  0023'                    l2351:
  2973  0023' 0180'              	clrf	___awdiv@counter
  2974  0024' 0A80'              	incf	___awdiv@counter,f
  2975  0025' 2800'              	goto	l2357
  2976  0026'                    l2353:
  2977  0026' 3001               	movlw	1
  2978  0027'                    u3345:
  2979  0027' 1003               	clrc
  2980  0028' 0D87'              	rlf	___awdiv@divisor,f
  2981  0029' 0D88'              	rlf	___awdiv@divisor+1,f
  2982  002A' 3EFF               	addlw	-1
  2983  002B' 1D03               	skipz
  2984  002C' 2800'              	goto	u3345
  2985  002D'                    l2355:
  2986  002D' 3001               	movlw	1
  2987  002E' 008B'              	movwf	??___awdiv
  2988  002F' 080B'              	movf	??___awdiv,w
  2989  0030' 0780'              	addwf	___awdiv@counter,f
  2990  0031'                    l2357:
  2991  0031' 1F88'              	btfss	___awdiv@divisor+1,7
  2992  0032' 2800'              	goto	u3351
  2993  0033' 2800'              	goto	u3350
  2994  0034'                    u3351:
  2995  0034' 2800'              	goto	l2353
  2996  0035'                    u3350:
  2997  0035'                    l2359:
  2998  0035' 3001               	movlw	1
  2999  0036'                    u3365:
  3000  0036' 1003               	clrc
  3001  0037' 0D82'              	rlf	___awdiv@quotient,f
  3002  0038' 0D83'              	rlf	___awdiv@quotient+1,f
  3003  0039' 3EFF               	addlw	-1
  3004  003A' 1D03               	skipz
  3005  003B' 2800'              	goto	u3365
  3006  003C' 0808'              	movf	___awdiv@divisor+1,w
  3007  003D' 020A'              	subwf	___awdiv@dividend+1,w
  3008  003E' 1D03               	skipz
  3009  003F' 2800'              	goto	u3375
  3010  0040' 0807'              	movf	___awdiv@divisor,w
  3011  0041' 0209'              	subwf	___awdiv@dividend,w
  3012  0042'                    u3375:
  3013  0042' 1C03               	skipc
  3014  0043' 2800'              	goto	u3371
  3015  0044' 2800'              	goto	u3370
  3016  0045'                    u3371:
  3017  0045' 2800'              	goto	l2365
  3018  0046'                    u3370:
  3019  0046'                    l2361:
  3020  0046' 0807'              	movf	___awdiv@divisor,w
  3021  0047' 0289'              	subwf	___awdiv@dividend,f
  3022  0048' 0808'              	movf	___awdiv@divisor+1,w
  3023  0049' 1C03               	skipc
  3024  004A' 038A'              	decf	___awdiv@dividend+1,f
  3025  004B' 028A'              	subwf	___awdiv@dividend+1,f
  3026  004C'                    l2363:
  3027  004C' 1402'              	bsf	___awdiv@quotient,0
  3028  004D'                    l2365:
  3029  004D' 3001               	movlw	1
  3030  004E'                    u3385:
  3031  004E' 1003               	clrc
  3032  004F' 0C88'              	rrf	___awdiv@divisor+1,f
  3033  0050' 0C87'              	rrf	___awdiv@divisor,f
  3034  0051' 3EFF               	addlw	-1
  3035  0052' 1D03               	skipz
  3036  0053' 2800'              	goto	u3385
  3037  0054'                    l2367:
  3038  0054' 3001               	movlw	1
  3039  0055' 0280'              	subwf	___awdiv@counter,f
  3040  0056' 1D03               	btfss	3,2
  3041  0057' 2800'              	goto	u3391
  3042  0058' 2800'              	goto	u3390
  3043  0059'                    u3391:
  3044  0059' 2800'              	goto	l2359
  3045  005A'                    u3390:
  3046  005A'                    l2369:
  3047  005A' 0801'              	movf	___awdiv@sign,w
  3048  005B' 1903               	btfsc	3,2
  3049  005C' 2800'              	goto	u3401
  3050  005D' 2800'              	goto	u3400
  3051  005E'                    u3401:
  3052  005E' 2800'              	goto	l2373
  3053  005F'                    u3400:
  3054  005F'                    l2371:
  3055  005F' 0982'              	comf	___awdiv@quotient,f
  3056  0060' 0983'              	comf	___awdiv@quotient+1,f
  3057  0061' 0A82'              	incf	___awdiv@quotient,f
  3058  0062' 1903               	skipnz
  3059  0063' 0A83'              	incf	___awdiv@quotient+1,f
  3060  0064'                    l2373:
  3061  0064' 0803'              	movf	___awdiv@quotient+1,w
  3062  0065' 0088'              	movwf	?___awdiv+1
  3063  0066' 0802'              	movf	___awdiv@quotient,w
  3064  0067' 0087'              	movwf	?___awdiv
  3065  0068'                    l450:
  3066  0068' 0008               	return
  3067  0069'                    __end_of___awdiv:
  3068                           
  3069                           	psect	text5
  3070  0000'                    __ptext5:	
  3071 ;; *************** function _fround *****************
  3072 ;; Defined at:
  3073 ;;		line 417 in file "C:\Program Files\Microchip\xc8\v2.40\pic\sources\c90\common\doprnt.c"
  3074 ;; Parameters:    Size  Location     Type
  3075 ;;  prec            1    wreg     unsigned char 
  3076 ;; Auto vars:     Size  Location     Type
  3077 ;;  prec            1   59[BANK0 ] unsigned char 
  3078 ;; Return value:  Size  Location     Type
  3079 ;;                  4   40[BANK0 ] unsigned char 
  3080 ;; Registers used:
  3081 ;;		wreg, fsr0l, fsr0h, status,2, status,0, btemp+1, pclath, cstack
  3082 ;; Tracked objects:
  3083 ;;		On entry : 0/0
  3084 ;;		On exit  : 0/0
  3085 ;;		Unchanged: 0/0
  3086 ;; Data sizes:     COMMON   BANK0   BANK1   BANK3   BANK2
  3087 ;;      Params:         0       4       0       0       0
  3088 ;;      Locals:         0       9       0       0       0
  3089 ;;      Temps:          0       7       0       0       0
  3090 ;;      Totals:         0      20       0       0       0
  3091 ;;Total ram usage:       20 bytes
  3092 ;; Hardware stack levels used: 1
  3093 ;; Hardware stack levels required when called: 2
  3094 ;; This function calls:
  3095 ;;		___flmul
  3096 ;;		___lwdiv
  3097 ;;		___lwmod
  3098 ;; This function is called by:
  3099 ;;		_sprintf
  3100 ;; This function uses a non-reentrant model
  3101 ;;
  3102                           
  3103  0000'                    _fround:	
  3104                           ;psect for function _fround
  3105                           
  3106                           
  3107                           ;incstack = 0
  3108                           ; Regs used in _fround: [wreg-fsr0h+status,2+status,0+btemp+1+pclath+cstack]
  3109                           ;fround@prec stored from wreg
  3110  0000' 1283               	bcf	3,5	;RP0=0, select bank0
  3111  0001' 1303               	bcf	3,6	;RP1=0, select bank0
  3112  0002' 00BB'              	movwf	fround@prec
  3113  0003'                    l2827:
  3114                           
  3115                           ;C:\Program Files\Microchip\xc8\v2.40\pic\sources\c90\common\doprnt.c: 417: fround(unsig
      +                          ned char prec);C:\Program Files\Microchip\xc8\v2.40\pic\sources\c90\common\doprnt.c: 418
      +                          : {;C:\Program Files\Microchip\xc8\v2.40\pic\sources\c90\common\doprnt.c: 421:  if(prec>
      +                          =110)
  3116  0003' 306E               	movlw	110
  3117  0004' 023B'              	subwf	fround@prec,w
  3118  0005' 1C03               	skipc
  3119  0006' 2800'              	goto	u4471
  3120  0007' 2800'              	goto	u4470
  3121  0008'                    u4471:
  3122  0008' 2800'              	goto	l2835
  3123  0009'                    u4470:
  3124  0009'                    l2829:
  3125                           
  3126                           ;C:\Program Files\Microchip\xc8\v2.40\pic\sources\c90\common\doprnt.c: 422:   return 0.5
      +                           * _npowers_[prec/100U+18U] * _npowers_[(prec%100U)/10U+9U] * _npowers_[prec%10U];
  3127  0009' 303F               	movlw	63
  3128  000A' 0091'              	movwf	___flmul@b+3
  3129  000B' 3000               	movlw	0
  3130  000C' 0090'              	movwf	___flmul@b+2
  3131  000D' 3000               	movlw	0
  3132  000E' 008F'              	movwf	___flmul@b+1
  3133  000F' 3000               	movlw	0
  3134  0010' 008E'              	movwf	___flmul@b
  3135  0011' 3064               	movlw	100
  3136  0012' 0086'              	movwf	___lwdiv@divisor
  3137  0013' 3000               	movlw	0
  3138  0014' 0087'              	movwf	___lwdiv@divisor+1
  3139  0015' 083B'              	movf	fround@prec,w
  3140  0016' 00AC'              	movwf	??_fround
  3141  0017' 01AD'              	clrf	??_fround+1
  3142  0018' 082C'              	movf	??_fround,w
  3143  0019' 0088'              	movwf	___lwdiv@dividend
  3144  001A' 082D'              	movf	??_fround+1,w
  3145  001B' 0089'              	movwf	___lwdiv@dividend+1
  3146  001C' 120A' 118A' 2000' 120A' 118A' 	fcall	___lwdiv
  3147  0021' 0806'              	movf	?___lwdiv,w
  3148  0022' 1283               	bcf	3,5	;RP0=0, select bank0
  3149  0023' 1303               	bcf	3,6	;RP1=0, select bank0
  3150  0024' 00AE'              	movwf	??_fround+2
  3151  0025' 3001               	movlw	1
  3152  0026'                    u4485:
  3153  0026' 1003               	clrc
  3154  0027' 0DAE'              	rlf	??_fround+2,f
  3155  0028' 3EFF               	addlw	-1
  3156  0029' 1D03               	skipz
  3157  002A' 2800'              	goto	u4485
  3158  002B' 1003               	clrc
  3159  002C' 0D2E'              	rlf	??_fround+2,w
  3160  002D' 3E7D               	addlw	low (((__npowers_-__stringbase)| (0+32768)+72))
  3161  002E' 0084               	movwf	4
  3162  002F' 120A' 118A' 2000' 120A' 118A' 	fcall	stringdir
  3163  0034' 00AF'              	movwf	??_fround+3
  3164  0035' 120A' 118A' 2000' 120A' 118A' 	fcall	stringdir
  3165  003A' 00B0'              	movwf	??_fround+4
  3166  003B' 120A' 118A' 2000' 120A' 118A' 	fcall	stringdir
  3167  0040' 00B1'              	movwf	??_fround+5
  3168  0041' 120A' 118A' 2000' 120A' 118A' 	fcall	stringdir
  3169  0046' 00B2'              	movwf	??_fround+6
  3170  0047' 0832'              	movf	??_fround+6,w
  3171  0048' 0095'              	movwf	___flmul@a+3
  3172  0049' 0831'              	movf	??_fround+5,w
  3173  004A' 0094'              	movwf	___flmul@a+2
  3174  004B' 0830'              	movf	??_fround+4,w
  3175  004C' 0093'              	movwf	___flmul@a+1
  3176  004D' 082F'              	movf	??_fround+3,w
  3177  004E' 0092'              	movwf	___flmul@a
  3178  004F' 120A' 118A' 2000' 120A' 118A' 	fcall	___flmul
  3179  0054' 1283               	bcf	3,5	;RP0=0, select bank0
  3180  0055' 1303               	bcf	3,6	;RP1=0, select bank0
  3181  0056' 0811'              	movf	?___flmul+3,w
  3182  0057' 00BA'              	movwf	_fround$894+3
  3183  0058' 0810'              	movf	?___flmul+2,w
  3184  0059' 00B9'              	movwf	_fround$894+2
  3185  005A' 080F'              	movf	?___flmul+1,w
  3186  005B' 00B8'              	movwf	_fround$894+1
  3187  005C' 080E'              	movf	?___flmul,w
  3188  005D' 00B7'              	movwf	_fround$894
  3189                           
  3190                           ;C:\Program Files\Microchip\xc8\v2.40\pic\sources\c90\common\doprnt.c: 422:   return 0.5
      +                           * _npowers_[prec/100U+18U] * _npowers_[(prec%100U)/10U+9U] * _npowers_[prec%10U];
  3191  005E' 300A               	movlw	10
  3192  005F' 0086'              	movwf	___lwdiv@divisor
  3193  0060' 3000               	movlw	0
  3194  0061' 0087'              	movwf	___lwdiv@divisor+1
  3195  0062' 083B'              	movf	fround@prec,w
  3196  0063' 00AC'              	movwf	??_fround
  3197  0064' 01AD'              	clrf	??_fround+1
  3198  0065' 082C'              	movf	??_fround,w
  3199  0066' 0082'              	movwf	___lwmod@dividend
  3200  0067' 082D'              	movf	??_fround+1,w
  3201  0068' 0083'              	movwf	___lwmod@dividend+1
  3202  0069' 3064               	movlw	100
  3203  006A' 0080'              	movwf	___lwmod@divisor
  3204  006B' 3000               	movlw	0
  3205  006C' 0081'              	movwf	___lwmod@divisor+1
  3206  006D' 120A' 118A' 2000' 120A' 118A' 	fcall	___lwmod
  3207  0072' 0801'              	movf	?___lwmod+1,w
  3208  0073' 0089'              	movwf	___lwdiv@dividend+1
  3209  0074' 0800'              	movf	?___lwmod,w
  3210  0075' 0088'              	movwf	___lwdiv@dividend
  3211  0076' 120A' 118A' 2000' 120A' 118A' 	fcall	___lwdiv
  3212  007B' 0806'              	movf	?___lwdiv,w
  3213  007C' 1283               	bcf	3,5	;RP0=0, select bank0
  3214  007D' 1303               	bcf	3,6	;RP1=0, select bank0
  3215  007E' 00AE'              	movwf	??_fround+2
  3216  007F' 3001               	movlw	1
  3217  0080'                    u4495:
  3218  0080' 1003               	clrc
  3219  0081' 0DAE'              	rlf	??_fround+2,f
  3220  0082' 3EFF               	addlw	-1
  3221  0083' 1D03               	skipz
  3222  0084' 2800'              	goto	u4495
  3223  0085' 1003               	clrc
  3224  0086' 0D2E'              	rlf	??_fround+2,w
  3225  0087' 3E59               	addlw	low (((__npowers_-__stringbase)| (0+32768)+36))
  3226  0088' 0084               	movwf	4
  3227  0089' 120A' 118A' 2000' 120A' 118A' 	fcall	stringdir
  3228  008E' 00AF'              	movwf	??_fround+3
  3229  008F' 120A' 118A' 2000' 120A' 118A' 	fcall	stringdir
  3230  0094' 00B0'              	movwf	??_fround+4
  3231  0095' 120A' 118A' 2000' 120A' 118A' 	fcall	stringdir
  3232  009A' 00B1'              	movwf	??_fround+5
  3233  009B' 120A' 118A' 2000' 120A' 118A' 	fcall	stringdir
  3234  00A0' 00B2'              	movwf	??_fround+6
  3235  00A1' 0832'              	movf	??_fround+6,w
  3236  00A2' 0091'              	movwf	___flmul@b+3
  3237  00A3' 0831'              	movf	??_fround+5,w
  3238  00A4' 0090'              	movwf	___flmul@b+2
  3239  00A5' 0830'              	movf	??_fround+4,w
  3240  00A6' 008F'              	movwf	___flmul@b+1
  3241  00A7' 082F'              	movf	??_fround+3,w
  3242  00A8' 008E'              	movwf	___flmul@b
  3243  00A9' 083A'              	movf	_fround$894+3,w
  3244  00AA' 0095'              	movwf	___flmul@a+3
  3245  00AB' 0839'              	movf	_fround$894+2,w
  3246  00AC' 0094'              	movwf	___flmul@a+2
  3247  00AD' 0838'              	movf	_fround$894+1,w
  3248  00AE' 0093'              	movwf	___flmul@a+1
  3249  00AF' 0837'              	movf	_fround$894,w
  3250  00B0' 0092'              	movwf	___flmul@a
  3251  00B1' 120A' 118A' 2000' 120A' 118A' 	fcall	___flmul
  3252  00B6' 1283               	bcf	3,5	;RP0=0, select bank0
  3253  00B7' 1303               	bcf	3,6	;RP1=0, select bank0
  3254  00B8' 0811'              	movf	?___flmul+3,w
  3255  00B9' 00B6'              	movwf	_fround$895+3
  3256  00BA' 0810'              	movf	?___flmul+2,w
  3257  00BB' 00B5'              	movwf	_fround$895+2
  3258  00BC' 080F'              	movf	?___flmul+1,w
  3259  00BD' 00B4'              	movwf	_fround$895+1
  3260  00BE' 080E'              	movf	?___flmul,w
  3261  00BF' 00B3'              	movwf	_fround$895
  3262                           
  3263                           ;C:\Program Files\Microchip\xc8\v2.40\pic\sources\c90\common\doprnt.c: 422:   return 0.5
      +                           * _npowers_[prec/100U+18U] * _npowers_[(prec%100U)/10U+9U] * _npowers_[prec%10U];
  3264  00C0' 300A               	movlw	10
  3265  00C1' 0080'              	movwf	___lwmod@divisor
  3266  00C2' 3000               	movlw	0
  3267  00C3' 0081'              	movwf	___lwmod@divisor+1
  3268  00C4' 083B'              	movf	fround@prec,w
  3269  00C5' 00AC'              	movwf	??_fround
  3270  00C6' 01AD'              	clrf	??_fround+1
  3271  00C7' 082C'              	movf	??_fround,w
  3272  00C8' 0082'              	movwf	___lwmod@dividend
  3273  00C9' 082D'              	movf	??_fround+1,w
  3274  00CA' 0083'              	movwf	___lwmod@dividend+1
  3275  00CB' 120A' 118A' 2000' 120A' 118A' 	fcall	___lwmod
  3276  00D0' 0800'              	movf	?___lwmod,w
  3277  00D1' 1283               	bcf	3,5	;RP0=0, select bank0
  3278  00D2' 1303               	bcf	3,6	;RP1=0, select bank0
  3279  00D3' 00AE'              	movwf	??_fround+2
  3280  00D4' 3001               	movlw	1
  3281  00D5'                    u4505:
  3282  00D5' 1003               	clrc
  3283  00D6' 0DAE'              	rlf	??_fround+2,f
  3284  00D7' 3EFF               	addlw	-1
  3285  00D8' 1D03               	skipz
  3286  00D9' 2800'              	goto	u4505
  3287  00DA' 1003               	clrc
  3288  00DB' 0D2E'              	rlf	??_fround+2,w
  3289  00DC' 3E35               	addlw	low ((__npowers_-__stringbase)| (0+32768))
  3290  00DD' 0084               	movwf	4
  3291  00DE' 120A' 118A' 2000' 120A' 118A' 	fcall	stringdir
  3292  00E3' 00AF'              	movwf	??_fround+3
  3293  00E4' 120A' 118A' 2000' 120A' 118A' 	fcall	stringdir
  3294  00E9' 00B0'              	movwf	??_fround+4
  3295  00EA' 120A' 118A' 2000' 120A' 118A' 	fcall	stringdir
  3296  00EF' 00B1'              	movwf	??_fround+5
  3297  00F0' 120A' 118A' 2000' 120A' 118A' 	fcall	stringdir
  3298  00F5' 00B2'              	movwf	??_fround+6
  3299  00F6' 0832'              	movf	??_fround+6,w
  3300  00F7' 0091'              	movwf	___flmul@b+3
  3301  00F8' 0831'              	movf	??_fround+5,w
  3302  00F9' 0090'              	movwf	___flmul@b+2
  3303  00FA' 0830'              	movf	??_fround+4,w
  3304  00FB' 008F'              	movwf	___flmul@b+1
  3305  00FC' 082F'              	movf	??_fround+3,w
  3306  00FD' 008E'              	movwf	___flmul@b
  3307  00FE' 0836'              	movf	_fround$895+3,w
  3308  00FF' 0095'              	movwf	___flmul@a+3
  3309  0100' 0835'              	movf	_fround$895+2,w
  3310  0101' 0094'              	movwf	___flmul@a+2
  3311  0102' 0834'              	movf	_fround$895+1,w
  3312  0103' 0093'              	movwf	___flmul@a+1
  3313  0104' 0833'              	movf	_fround$895,w
  3314  0105' 0092'              	movwf	___flmul@a
  3315  0106' 120A' 118A' 2000' 120A' 118A' 	fcall	___flmul
  3316  010B' 1283               	bcf	3,5	;RP0=0, select bank0
  3317  010C' 1303               	bcf	3,6	;RP1=0, select bank0
  3318  010D' 0811'              	movf	?___flmul+3,w
  3319  010E' 00AB'              	movwf	?_fround+3
  3320  010F' 0810'              	movf	?___flmul+2,w
  3321  0110' 00AA'              	movwf	?_fround+2
  3322  0111' 080F'              	movf	?___flmul+1,w
  3323  0112' 00A9'              	movwf	?_fround+1
  3324  0113' 080E'              	movf	?___flmul,w
  3325  0114' 00A8'              	movwf	?_fround
  3326  0115' 2800'              	goto	l194
  3327  0116'                    l2835:
  3328  0116' 300B               	movlw	11
  3329  0117' 023B'              	subwf	fround@prec,w
  3330  0118' 1C03               	skipc
  3331  0119' 2800'              	goto	u4511
  3332  011A' 2800'              	goto	u4510
  3333  011B'                    u4511:
  3334  011B' 2800'              	goto	l2841
  3335  011C'                    u4510:
  3336  011C'                    l2837:
  3337                           
  3338                           ;C:\Program Files\Microchip\xc8\v2.40\pic\sources\c90\common\doprnt.c: 424:   return 0.5
      +                           * _npowers_[prec/10U+9U] * _npowers_[prec%10U];
  3339  011C' 303F               	movlw	63
  3340  011D' 0091'              	movwf	___flmul@b+3
  3341  011E' 3000               	movlw	0
  3342  011F' 0090'              	movwf	___flmul@b+2
  3343  0120' 3000               	movlw	0
  3344  0121' 008F'              	movwf	___flmul@b+1
  3345  0122' 3000               	movlw	0
  3346  0123' 008E'              	movwf	___flmul@b
  3347  0124' 300A               	movlw	10
  3348  0125' 0086'              	movwf	___lwdiv@divisor
  3349  0126' 3000               	movlw	0
  3350  0127' 0087'              	movwf	___lwdiv@divisor+1
  3351  0128' 083B'              	movf	fround@prec,w
  3352  0129' 00AC'              	movwf	??_fround
  3353  012A' 01AD'              	clrf	??_fround+1
  3354  012B' 082C'              	movf	??_fround,w
  3355  012C' 0088'              	movwf	___lwdiv@dividend
  3356  012D' 082D'              	movf	??_fround+1,w
  3357  012E' 0089'              	movwf	___lwdiv@dividend+1
  3358  012F' 120A' 118A' 2000' 120A' 118A' 	fcall	___lwdiv
  3359  0134' 0806'              	movf	?___lwdiv,w
  3360  0135' 1283               	bcf	3,5	;RP0=0, select bank0
  3361  0136' 1303               	bcf	3,6	;RP1=0, select bank0
  3362  0137' 00AE'              	movwf	??_fround+2
  3363  0138' 3001               	movlw	1
  3364  0139'                    u4525:
  3365  0139' 1003               	clrc
  3366  013A' 0DAE'              	rlf	??_fround+2,f
  3367  013B' 3EFF               	addlw	-1
  3368  013C' 1D03               	skipz
  3369  013D' 2800'              	goto	u4525
  3370  013E' 1003               	clrc
  3371  013F' 0D2E'              	rlf	??_fround+2,w
  3372  0140' 3E59               	addlw	low (((__npowers_-__stringbase)| (0+32768)+36))
  3373  0141' 0084               	movwf	4
  3374  0142' 120A' 118A' 2000' 120A' 118A' 	fcall	stringdir
  3375  0147' 00AF'              	movwf	??_fround+3
  3376  0148' 120A' 118A' 2000' 120A' 118A' 	fcall	stringdir
  3377  014D' 00B0'              	movwf	??_fround+4
  3378  014E' 120A' 118A' 2000' 120A' 118A' 	fcall	stringdir
  3379  0153' 00B1'              	movwf	??_fround+5
  3380  0154' 120A' 118A' 2000' 120A' 118A' 	fcall	stringdir
  3381  0159' 00B2'              	movwf	??_fround+6
  3382  015A' 0832'              	movf	??_fround+6,w
  3383  015B' 0095'              	movwf	___flmul@a+3
  3384  015C' 0831'              	movf	??_fround+5,w
  3385  015D' 0094'              	movwf	___flmul@a+2
  3386  015E' 0830'              	movf	??_fround+4,w
  3387  015F' 0093'              	movwf	___flmul@a+1
  3388  0160' 082F'              	movf	??_fround+3,w
  3389  0161' 0092'              	movwf	___flmul@a
  3390  0162' 120A' 118A' 2000' 120A' 118A' 	fcall	___flmul
  3391  0167' 1283               	bcf	3,5	;RP0=0, select bank0
  3392  0168' 1303               	bcf	3,6	;RP1=0, select bank0
  3393  0169' 0811'              	movf	?___flmul+3,w
  3394  016A' 00BA'              	movwf	_fround$894+3
  3395  016B' 0810'              	movf	?___flmul+2,w
  3396  016C' 00B9'              	movwf	_fround$894+2
  3397  016D' 080F'              	movf	?___flmul+1,w
  3398  016E' 00B8'              	movwf	_fround$894+1
  3399  016F' 080E'              	movf	?___flmul,w
  3400  0170' 00B7'              	movwf	_fround$894
  3401                           
  3402                           ;C:\Program Files\Microchip\xc8\v2.40\pic\sources\c90\common\doprnt.c: 424:   return 0.5
      +                           * _npowers_[prec/10U+9U] * _npowers_[prec%10U];
  3403  0171' 300A               	movlw	10
  3404  0172' 0080'              	movwf	___lwmod@divisor
  3405  0173' 3000               	movlw	0
  3406  0174' 0081'              	movwf	___lwmod@divisor+1
  3407  0175' 083B'              	movf	fround@prec,w
  3408  0176' 00AC'              	movwf	??_fround
  3409  0177' 01AD'              	clrf	??_fround+1
  3410  0178' 082C'              	movf	??_fround,w
  3411  0179' 0082'              	movwf	___lwmod@dividend
  3412  017A' 082D'              	movf	??_fround+1,w
  3413  017B' 0083'              	movwf	___lwmod@dividend+1
  3414  017C' 120A' 118A' 2000' 120A' 118A' 	fcall	___lwmod
  3415  0181' 0800'              	movf	?___lwmod,w
  3416  0182' 1283               	bcf	3,5	;RP0=0, select bank0
  3417  0183' 1303               	bcf	3,6	;RP1=0, select bank0
  3418  0184' 00AE'              	movwf	??_fround+2
  3419  0185' 3001               	movlw	1
  3420  0186'                    u4535:
  3421  0186' 1003               	clrc
  3422  0187' 0DAE'              	rlf	??_fround+2,f
  3423  0188' 3EFF               	addlw	-1
  3424  0189' 1D03               	skipz
  3425  018A' 2800'              	goto	u4535
  3426  018B' 1003               	clrc
  3427  018C' 0D2E'              	rlf	??_fround+2,w
  3428  018D' 3E35               	addlw	low ((__npowers_-__stringbase)| (0+32768))
  3429  018E' 0084               	movwf	4
  3430  018F' 120A' 118A' 2000' 120A' 118A' 	fcall	stringdir
  3431  0194' 00AF'              	movwf	??_fround+3
  3432  0195' 120A' 118A' 2000' 120A' 118A' 	fcall	stringdir
  3433  019A' 00B0'              	movwf	??_fround+4
  3434  019B' 120A' 118A' 2000' 120A' 118A' 	fcall	stringdir
  3435  01A0' 00B1'              	movwf	??_fround+5
  3436  01A1' 120A' 118A' 2000' 120A' 118A' 	fcall	stringdir
  3437  01A6' 00B2'              	movwf	??_fround+6
  3438  01A7' 0832'              	movf	??_fround+6,w
  3439  01A8' 0091'              	movwf	___flmul@b+3
  3440  01A9' 0831'              	movf	??_fround+5,w
  3441  01AA' 0090'              	movwf	___flmul@b+2
  3442  01AB' 0830'              	movf	??_fround+4,w
  3443  01AC' 008F'              	movwf	___flmul@b+1
  3444  01AD' 082F'              	movf	??_fround+3,w
  3445  01AE' 008E'              	movwf	___flmul@b
  3446  01AF' 083A'              	movf	_fround$894+3,w
  3447  01B0' 0095'              	movwf	___flmul@a+3
  3448  01B1' 0839'              	movf	_fround$894+2,w
  3449  01B2' 0094'              	movwf	___flmul@a+2
  3450  01B3' 0838'              	movf	_fround$894+1,w
  3451  01B4' 0093'              	movwf	___flmul@a+1
  3452  01B5' 0837'              	movf	_fround$894,w
  3453  01B6' 0092'              	movwf	___flmul@a
  3454  01B7' 120A' 118A' 2000' 120A' 118A' 	fcall	___flmul
  3455  01BC' 1283               	bcf	3,5	;RP0=0, select bank0
  3456  01BD' 1303               	bcf	3,6	;RP1=0, select bank0
  3457  01BE' 0811'              	movf	?___flmul+3,w
  3458  01BF' 00AB'              	movwf	?_fround+3
  3459  01C0' 0810'              	movf	?___flmul+2,w
  3460  01C1' 00AA'              	movwf	?_fround+2
  3461  01C2' 080F'              	movf	?___flmul+1,w
  3462  01C3' 00A9'              	movwf	?_fround+1
  3463  01C4' 080E'              	movf	?___flmul,w
  3464  01C5' 00A8'              	movwf	?_fround
  3465  01C6' 2800'              	goto	l194
  3466  01C7'                    l2841:
  3467                           
  3468                           ;C:\Program Files\Microchip\xc8\v2.40\pic\sources\c90\common\doprnt.c: 425:  return 0.5 
      +                          * _npowers_[prec];
  3469  01C7' 303F               	movlw	63
  3470  01C8' 0091'              	movwf	___flmul@b+3
  3471  01C9' 3000               	movlw	0
  3472  01CA' 0090'              	movwf	___flmul@b+2
  3473  01CB' 3000               	movlw	0
  3474  01CC' 008F'              	movwf	___flmul@b+1
  3475  01CD' 3000               	movlw	0
  3476  01CE' 008E'              	movwf	___flmul@b
  3477  01CF' 083B'              	movf	fround@prec,w
  3478  01D0' 00AC'              	movwf	??_fround
  3479  01D1' 3001               	movlw	1
  3480  01D2'                    u4545:
  3481  01D2' 1003               	clrc
  3482  01D3' 0DAC'              	rlf	??_fround,f
  3483  01D4' 3EFF               	addlw	-1
  3484  01D5' 1D03               	skipz
  3485  01D6' 2800'              	goto	u4545
  3486  01D7' 1003               	clrc
  3487  01D8' 0D2C'              	rlf	??_fround,w
  3488  01D9' 3E35               	addlw	low ((__npowers_-__stringbase)| (0+32768))
  3489  01DA' 0084               	movwf	4
  3490  01DB' 120A' 118A' 2000' 120A' 118A' 	fcall	stringdir
  3491  01E0' 00AD'              	movwf	??_fround+1
  3492  01E1' 120A' 118A' 2000' 120A' 118A' 	fcall	stringdir
  3493  01E6' 00AE'              	movwf	??_fround+2
  3494  01E7' 120A' 118A' 2000' 120A' 118A' 	fcall	stringdir
  3495  01EC' 00AF'              	movwf	??_fround+3
  3496  01ED' 120A' 118A' 2000' 120A' 118A' 	fcall	stringdir
  3497  01F2' 00B0'              	movwf	??_fround+4
  3498  01F3' 0830'              	movf	??_fround+4,w
  3499  01F4' 0095'              	movwf	___flmul@a+3
  3500  01F5' 082F'              	movf	??_fround+3,w
  3501  01F6' 0094'              	movwf	___flmul@a+2
  3502  01F7' 082E'              	movf	??_fround+2,w
  3503  01F8' 0093'              	movwf	___flmul@a+1
  3504  01F9' 082D'              	movf	??_fround+1,w
  3505  01FA' 0092'              	movwf	___flmul@a
  3506  01FB' 120A' 118A' 2000' 120A' 118A' 	fcall	___flmul
  3507  0200' 1283               	bcf	3,5	;RP0=0, select bank0
  3508  0201' 1303               	bcf	3,6	;RP1=0, select bank0
  3509  0202' 0811'              	movf	?___flmul+3,w
  3510  0203' 00AB'              	movwf	?_fround+3
  3511  0204' 0810'              	movf	?___flmul+2,w
  3512  0205' 00AA'              	movwf	?_fround+2
  3513  0206' 080F'              	movf	?___flmul+1,w
  3514  0207' 00A9'              	movwf	?_fround+1
  3515  0208' 080E'              	movf	?___flmul,w
  3516  0209' 00A8'              	movwf	?_fround
  3517  020A'                    l194:
  3518  020A' 0008               	return
  3519  020B'                    __end_of_fround:
  3520                           
  3521                           	psect	text6
  3522  0000'                    __ptext6:	
  3523 ;; *************** function ___lwmod *****************
  3524 ;; Defined at:
  3525 ;;		line 5 in file "C:\Program Files\Microchip\xc8\v2.40\pic\sources\c90\common\lwmod.c"
  3526 ;; Parameters:    Size  Location     Type
  3527 ;;  divisor         2    0[COMMON] unsigned int 
  3528 ;;  dividend        2    2[COMMON] unsigned int 
  3529 ;; Auto vars:     Size  Location     Type
  3530 ;;  counter         1    5[COMMON] unsigned char 
  3531 ;; Return value:  Size  Location     Type
  3532 ;;                  2    0[COMMON] unsigned int 
  3533 ;; Registers used:
  3534 ;;		wreg, status,2, status,0
  3535 ;; Tracked objects:
  3536 ;;		On entry : 0/0
  3537 ;;		On exit  : 0/0
  3538 ;;		Unchanged: 0/0
  3539 ;; Data sizes:     COMMON   BANK0   BANK1   BANK3   BANK2
  3540 ;;      Params:         4       0       0       0       0
  3541 ;;      Locals:         1       0       0       0       0
  3542 ;;      Temps:          1       0       0       0       0
  3543 ;;      Totals:         6       0       0       0       0
  3544 ;;Total ram usage:        6 bytes
  3545 ;; Hardware stack levels used: 1
  3546 ;; This function calls:
  3547 ;;		Nothing
  3548 ;; This function is called by:
  3549 ;;		_fround
  3550 ;;		_sprintf
  3551 ;; This function uses a non-reentrant model
  3552 ;;
  3553                           
  3554  0000'                    ___lwmod:	
  3555                           ;psect for function ___lwmod
  3556                           
  3557  0000'                    l2441:	
  3558                           ;incstack = 0
  3559                           ; Regs used in ___lwmod: [wreg+status,2+status,0]
  3560                           
  3561  0000' 0800'              	movf	___lwmod@divisor,w
  3562  0001' 0401'              	iorwf	___lwmod@divisor+1,w
  3563  0002' 1903               	btfsc	3,2
  3564  0003' 2800'              	goto	u3571
  3565  0004' 2800'              	goto	u3570
  3566  0005'                    u3571:
  3567  0005' 2800'              	goto	l2459
  3568  0006'                    u3570:
  3569  0006'                    l2443:
  3570  0006' 0185'              	clrf	___lwmod@counter
  3571  0007' 0A85'              	incf	___lwmod@counter,f
  3572  0008' 2800'              	goto	l2449
  3573  0009'                    l2445:
  3574  0009' 3001               	movlw	1
  3575  000A'                    u3585:
  3576  000A' 1003               	clrc
  3577  000B' 0D80'              	rlf	___lwmod@divisor,f
  3578  000C' 0D81'              	rlf	___lwmod@divisor+1,f
  3579  000D' 3EFF               	addlw	-1
  3580  000E' 1D03               	skipz
  3581  000F' 2800'              	goto	u3585
  3582  0010'                    l2447:
  3583  0010' 3001               	movlw	1
  3584  0011' 0084'              	movwf	??___lwmod
  3585  0012' 0804'              	movf	??___lwmod,w
  3586  0013' 0785'              	addwf	___lwmod@counter,f
  3587  0014'                    l2449:
  3588  0014' 1F81'              	btfss	___lwmod@divisor+1,7
  3589  0015' 2800'              	goto	u3591
  3590  0016' 2800'              	goto	u3590
  3591  0017'                    u3591:
  3592  0017' 2800'              	goto	l2445
  3593  0018'                    u3590:
  3594  0018'                    l2451:
  3595  0018' 0801'              	movf	___lwmod@divisor+1,w
  3596  0019' 0203'              	subwf	___lwmod@dividend+1,w
  3597  001A' 1D03               	skipz
  3598  001B' 2800'              	goto	u3605
  3599  001C' 0800'              	movf	___lwmod@divisor,w
  3600  001D' 0202'              	subwf	___lwmod@dividend,w
  3601  001E'                    u3605:
  3602  001E' 1C03               	skipc
  3603  001F' 2800'              	goto	u3601
  3604  0020' 2800'              	goto	u3600
  3605  0021'                    u3601:
  3606  0021' 2800'              	goto	l2455
  3607  0022'                    u3600:
  3608  0022'                    l2453:
  3609  0022' 0800'              	movf	___lwmod@divisor,w
  3610  0023' 0282'              	subwf	___lwmod@dividend,f
  3611  0024' 0801'              	movf	___lwmod@divisor+1,w
  3612  0025' 1C03               	skipc
  3613  0026' 0383'              	decf	___lwmod@dividend+1,f
  3614  0027' 0283'              	subwf	___lwmod@dividend+1,f
  3615  0028'                    l2455:
  3616  0028' 3001               	movlw	1
  3617  0029'                    u3615:
  3618  0029' 1003               	clrc
  3619  002A' 0C81'              	rrf	___lwmod@divisor+1,f
  3620  002B' 0C80'              	rrf	___lwmod@divisor,f
  3621  002C' 3EFF               	addlw	-1
  3622  002D' 1D03               	skipz
  3623  002E' 2800'              	goto	u3615
  3624  002F'                    l2457:
  3625  002F' 3001               	movlw	1
  3626  0030' 0285'              	subwf	___lwmod@counter,f
  3627  0031' 1D03               	btfss	3,2
  3628  0032' 2800'              	goto	u3621
  3629  0033' 2800'              	goto	u3620
  3630  0034'                    u3621:
  3631  0034' 2800'              	goto	l2451
  3632  0035'                    u3620:
  3633  0035'                    l2459:
  3634  0035' 0803'              	movf	___lwmod@dividend+1,w
  3635  0036' 0081'              	movwf	?___lwmod+1
  3636  0037' 0802'              	movf	___lwmod@dividend,w
  3637  0038' 0080'              	movwf	?___lwmod
  3638  0039'                    l613:
  3639  0039' 0008               	return
  3640  003A'                    __end_of___lwmod:
  3641                           
  3642                           	psect	text7
  3643  0000'                    __ptext7:	
  3644 ;; *************** function ___lwdiv *****************
  3645 ;; Defined at:
  3646 ;;		line 5 in file "C:\Program Files\Microchip\xc8\v2.40\pic\sources\c90\common\lwdiv.c"
  3647 ;; Parameters:    Size  Location     Type
  3648 ;;  divisor         2    6[COMMON] unsigned int 
  3649 ;;  dividend        2    8[COMMON] unsigned int 
  3650 ;; Auto vars:     Size  Location     Type
  3651 ;;  quotient        2   11[COMMON] unsigned int 
  3652 ;;  counter         1   13[COMMON] unsigned char 
  3653 ;; Return value:  Size  Location     Type
  3654 ;;                  2    6[COMMON] unsigned int 
  3655 ;; Registers used:
  3656 ;;		wreg, status,2, status,0
  3657 ;; Tracked objects:
  3658 ;;		On entry : 0/0
  3659 ;;		On exit  : 0/0
  3660 ;;		Unchanged: 0/0
  3661 ;; Data sizes:     COMMON   BANK0   BANK1   BANK3   BANK2
  3662 ;;      Params:         4       0       0       0       0
  3663 ;;      Locals:         3       0       0       0       0
  3664 ;;      Temps:          1       0       0       0       0
  3665 ;;      Totals:         8       0       0       0       0
  3666 ;;Total ram usage:        8 bytes
  3667 ;; Hardware stack levels used: 1
  3668 ;; This function calls:
  3669 ;;		Nothing
  3670 ;; This function is called by:
  3671 ;;		_main
  3672 ;;		_fround
  3673 ;;		_sprintf
  3674 ;; This function uses a non-reentrant model
  3675 ;;
  3676                           
  3677  0000'                    ___lwdiv:	
  3678                           ;psect for function ___lwdiv
  3679                           
  3680  0000'                    l2415:	
  3681                           ;incstack = 0
  3682                           ; Regs used in ___lwdiv: [wreg+status,2+status,0]
  3683                           
  3684  0000' 018B'              	clrf	___lwdiv@quotient
  3685  0001' 018C'              	clrf	___lwdiv@quotient+1
  3686  0002'                    l2417:
  3687  0002' 0806'              	movf	___lwdiv@divisor,w
  3688  0003' 0407'              	iorwf	___lwdiv@divisor+1,w
  3689  0004' 1903               	btfsc	3,2
  3690  0005' 2800'              	goto	u3501
  3691  0006' 2800'              	goto	u3500
  3692  0007'                    u3501:
  3693  0007' 2800'              	goto	l2437
  3694  0008'                    u3500:
  3695  0008'                    l2419:
  3696  0008' 018D'              	clrf	___lwdiv@counter
  3697  0009' 0A8D'              	incf	___lwdiv@counter,f
  3698  000A' 2800'              	goto	l2425
  3699  000B'                    l2421:
  3700  000B' 3001               	movlw	1
  3701  000C'                    u3515:
  3702  000C' 1003               	clrc
  3703  000D' 0D86'              	rlf	___lwdiv@divisor,f
  3704  000E' 0D87'              	rlf	___lwdiv@divisor+1,f
  3705  000F' 3EFF               	addlw	-1
  3706  0010' 1D03               	skipz
  3707  0011' 2800'              	goto	u3515
  3708  0012'                    l2423:
  3709  0012' 3001               	movlw	1
  3710  0013' 008A'              	movwf	??___lwdiv
  3711  0014' 080A'              	movf	??___lwdiv,w
  3712  0015' 078D'              	addwf	___lwdiv@counter,f
  3713  0016'                    l2425:
  3714  0016' 1F87'              	btfss	___lwdiv@divisor+1,7
  3715  0017' 2800'              	goto	u3521
  3716  0018' 2800'              	goto	u3520
  3717  0019'                    u3521:
  3718  0019' 2800'              	goto	l2421
  3719  001A'                    u3520:
  3720  001A'                    l2427:
  3721  001A' 3001               	movlw	1
  3722  001B'                    u3535:
  3723  001B' 1003               	clrc
  3724  001C' 0D8B'              	rlf	___lwdiv@quotient,f
  3725  001D' 0D8C'              	rlf	___lwdiv@quotient+1,f
  3726  001E' 3EFF               	addlw	-1
  3727  001F' 1D03               	skipz
  3728  0020' 2800'              	goto	u3535
  3729  0021' 0807'              	movf	___lwdiv@divisor+1,w
  3730  0022' 0209'              	subwf	___lwdiv@dividend+1,w
  3731  0023' 1D03               	skipz
  3732  0024' 2800'              	goto	u3545
  3733  0025' 0806'              	movf	___lwdiv@divisor,w
  3734  0026' 0208'              	subwf	___lwdiv@dividend,w
  3735  0027'                    u3545:
  3736  0027' 1C03               	skipc
  3737  0028' 2800'              	goto	u3541
  3738  0029' 2800'              	goto	u3540
  3739  002A'                    u3541:
  3740  002A' 2800'              	goto	l2433
  3741  002B'                    u3540:
  3742  002B'                    l2429:
  3743  002B' 0806'              	movf	___lwdiv@divisor,w
  3744  002C' 0288'              	subwf	___lwdiv@dividend,f
  3745  002D' 0807'              	movf	___lwdiv@divisor+1,w
  3746  002E' 1C03               	skipc
  3747  002F' 0389'              	decf	___lwdiv@dividend+1,f
  3748  0030' 0289'              	subwf	___lwdiv@dividend+1,f
  3749  0031'                    l2431:
  3750  0031' 140B'              	bsf	___lwdiv@quotient,0
  3751  0032'                    l2433:
  3752  0032' 3001               	movlw	1
  3753  0033'                    u3555:
  3754  0033' 1003               	clrc
  3755  0034' 0C87'              	rrf	___lwdiv@divisor+1,f
  3756  0035' 0C86'              	rrf	___lwdiv@divisor,f
  3757  0036' 3EFF               	addlw	-1
  3758  0037' 1D03               	skipz
  3759  0038' 2800'              	goto	u3555
  3760  0039'                    l2435:
  3761  0039' 3001               	movlw	1
  3762  003A' 028D'              	subwf	___lwdiv@counter,f
  3763  003B' 1D03               	btfss	3,2
  3764  003C' 2800'              	goto	u3561
  3765  003D' 2800'              	goto	u3560
  3766  003E'                    u3561:
  3767  003E' 2800'              	goto	l2427
  3768  003F'                    u3560:
  3769  003F'                    l2437:
  3770  003F' 080C'              	movf	___lwdiv@quotient+1,w
  3771  0040' 0087'              	movwf	?___lwdiv+1
  3772  0041' 080B'              	movf	___lwdiv@quotient,w
  3773  0042' 0086'              	movwf	?___lwdiv
  3774  0043'                    l603:
  3775  0043' 0008               	return
  3776  0044'                    __end_of___lwdiv:
  3777                           
  3778                           	psect	text8
  3779  0000'                    __ptext8:	
  3780 ;; *************** function ___flmul *****************
  3781 ;; Defined at:
  3782 ;;		line 8 in file "C:\Program Files\Microchip\xc8\v2.40\pic\sources\c90\common\sprcmul.c"
  3783 ;; Parameters:    Size  Location     Type
  3784 ;;  b               4   14[BANK0 ] unsigned int 
  3785 ;;  a               4   18[BANK0 ] unsigned int 
  3786 ;; Auto vars:     Size  Location     Type
  3787 ;;  prod            4   34[BANK0 ] struct .
  3788 ;;  grs             4   28[BANK0 ] unsigned long 
  3789 ;;  temp            2   38[BANK0 ] struct .
  3790 ;;  bexp            1   33[BANK0 ] unsigned char 
  3791 ;;  aexp            1   32[BANK0 ] unsigned char 
  3792 ;;  sign            1   27[BANK0 ] unsigned char 
  3793 ;; Return value:  Size  Location     Type
  3794 ;;                  4   14[BANK0 ] unsigned char 
  3795 ;; Registers used:
  3796 ;;		wreg, status,2, status,0, btemp+1, pclath, cstack
  3797 ;; Tracked objects:
  3798 ;;		On entry : 0/0
  3799 ;;		On exit  : 0/0
  3800 ;;		Unchanged: 0/0
  3801 ;; Data sizes:     COMMON   BANK0   BANK1   BANK3   BANK2
  3802 ;;      Params:         0       8       0       0       0
  3803 ;;      Locals:         0      13       0       0       0
  3804 ;;      Temps:          0       5       0       0       0
  3805 ;;      Totals:         0      26       0       0       0
  3806 ;;Total ram usage:       26 bytes
  3807 ;; Hardware stack levels used: 1
  3808 ;; Hardware stack levels required when called: 1
  3809 ;; This function calls:
  3810 ;;		__Umul8_16
  3811 ;; This function is called by:
  3812 ;;		_main
  3813 ;;		_fround
  3814 ;;		_scale
  3815 ;;		_sprintf
  3816 ;; This function uses a non-reentrant model
  3817 ;;
  3818                           
  3819  0000'                    ___flmul:	
  3820                           ;psect for function ___flmul
  3821                           
  3822  0000'                    l2657:	
  3823                           ;incstack = 0
  3824                           ; Regs used in ___flmul: [wreg+status,2+status,0+btemp+1+pclath+cstack]
  3825                           
  3826  0000' 1283               	bcf	3,5	;RP0=0, select bank0
  3827  0001' 1303               	bcf	3,6	;RP1=0, select bank0
  3828  0002' 0811'              	movf	___flmul@b+3,w
  3829  0003' 3980               	andlw	128
  3830  0004' 009B'              	movwf	___flmul@sign
  3831  0005'                    l2659:
  3832  0005' 0811'              	movf	___flmul@b+3,w
  3833  0006' 0096'              	movwf	??___flmul
  3834  0007' 0716'              	addwf	??___flmul,w
  3835  0008' 00A1'              	movwf	___flmul@bexp
  3836  0009'                    l2661:
  3837  0009' 1F90'              	btfss	___flmul@b+2,7
  3838  000A' 2800'              	goto	u4091
  3839  000B' 2800'              	goto	u4090
  3840  000C'                    u4091:
  3841  000C' 2800'              	goto	l2665
  3842  000D'                    u4090:
  3843  000D'                    l2663:
  3844  000D' 1421'              	bsf	___flmul@bexp,0
  3845  000E'                    l2665:
  3846  000E' 0821'              	movf	___flmul@bexp,w
  3847  000F' 1903               	btfsc	3,2
  3848  0010' 2800'              	goto	u4101
  3849  0011' 2800'              	goto	u4100
  3850  0012'                    u4101:
  3851  0012' 2800'              	goto	l2673
  3852  0013'                    u4100:
  3853  0013'                    l2667:
  3854  0013' 0A21'              	incf	___flmul@bexp,w
  3855  0014' 1D03               	btfss	3,2
  3856  0015' 2800'              	goto	u4111
  3857  0016' 2800'              	goto	u4110
  3858  0017'                    u4111:
  3859  0017' 2800'              	goto	l2671
  3860  0018'                    u4110:
  3861  0018'                    l2669:
  3862  0018' 3000               	movlw	0
  3863  0019' 0091'              	movwf	___flmul@b+3
  3864  001A' 3000               	movlw	0
  3865  001B' 0090'              	movwf	___flmul@b+2
  3866  001C' 3000               	movlw	0
  3867  001D' 008F'              	movwf	___flmul@b+1
  3868  001E' 3000               	movlw	0
  3869  001F' 008E'              	movwf	___flmul@b
  3870  0020'                    l2671:
  3871  0020' 1790'              	bsf	___flmul@b+2,7
  3872  0021' 2800'              	goto	l2675
  3873  0022'                    l2673:
  3874  0022' 3000               	movlw	0
  3875  0023' 0091'              	movwf	___flmul@b+3
  3876  0024' 3000               	movlw	0
  3877  0025' 0090'              	movwf	___flmul@b+2
  3878  0026' 3000               	movlw	0
  3879  0027' 008F'              	movwf	___flmul@b+1
  3880  0028' 3000               	movlw	0
  3881  0029' 008E'              	movwf	___flmul@b
  3882  002A'                    l2675:
  3883  002A' 0815'              	movf	___flmul@a+3,w
  3884  002B' 3980               	andlw	128
  3885  002C' 0096'              	movwf	??___flmul
  3886  002D' 0816'              	movf	??___flmul,w
  3887  002E' 069B'              	xorwf	___flmul@sign,f
  3888  002F'                    l2677:
  3889  002F' 0815'              	movf	___flmul@a+3,w
  3890  0030' 0096'              	movwf	??___flmul
  3891  0031' 0716'              	addwf	??___flmul,w
  3892  0032' 00A0'              	movwf	___flmul@aexp
  3893  0033'                    l2679:
  3894  0033' 1F94'              	btfss	___flmul@a+2,7
  3895  0034' 2800'              	goto	u4121
  3896  0035' 2800'              	goto	u4120
  3897  0036'                    u4121:
  3898  0036' 2800'              	goto	l2683
  3899  0037'                    u4120:
  3900  0037'                    l2681:
  3901  0037' 1420'              	bsf	___flmul@aexp,0
  3902  0038'                    l2683:
  3903  0038' 0820'              	movf	___flmul@aexp,w
  3904  0039' 1903               	btfsc	3,2
  3905  003A' 2800'              	goto	u4131
  3906  003B' 2800'              	goto	u4130
  3907  003C'                    u4131:
  3908  003C' 2800'              	goto	l2691
  3909  003D'                    u4130:
  3910  003D'                    l2685:
  3911  003D' 0A20'              	incf	___flmul@aexp,w
  3912  003E' 1D03               	btfss	3,2
  3913  003F' 2800'              	goto	u4141
  3914  0040' 2800'              	goto	u4140
  3915  0041'                    u4141:
  3916  0041' 2800'              	goto	l2689
  3917  0042'                    u4140:
  3918  0042'                    l2687:
  3919  0042' 3000               	movlw	0
  3920  0043' 0095'              	movwf	___flmul@a+3
  3921  0044' 3000               	movlw	0
  3922  0045' 0094'              	movwf	___flmul@a+2
  3923  0046' 3000               	movlw	0
  3924  0047' 0093'              	movwf	___flmul@a+1
  3925  0048' 3000               	movlw	0
  3926  0049' 0092'              	movwf	___flmul@a
  3927  004A'                    l2689:
  3928  004A' 1794'              	bsf	___flmul@a+2,7
  3929  004B' 2800'              	goto	l2693
  3930  004C'                    l2691:
  3931  004C' 3000               	movlw	0
  3932  004D' 0095'              	movwf	___flmul@a+3
  3933  004E' 3000               	movlw	0
  3934  004F' 0094'              	movwf	___flmul@a+2
  3935  0050' 3000               	movlw	0
  3936  0051' 0093'              	movwf	___flmul@a+1
  3937  0052' 3000               	movlw	0
  3938  0053' 0092'              	movwf	___flmul@a
  3939  0054'                    l2693:
  3940  0054' 0820'              	movf	___flmul@aexp,w
  3941  0055' 1903               	btfsc	3,2
  3942  0056' 2800'              	goto	u4151
  3943  0057' 2800'              	goto	u4150
  3944  0058'                    u4151:
  3945  0058' 2800'              	goto	l2697
  3946  0059'                    u4150:
  3947  0059'                    l2695:
  3948  0059' 0821'              	movf	___flmul@bexp,w
  3949  005A' 1D03               	btfss	3,2
  3950  005B' 2800'              	goto	u4161
  3951  005C' 2800'              	goto	u4160
  3952  005D'                    u4161:
  3953  005D' 2800'              	goto	l2701
  3954  005E'                    u4160:
  3955  005E'                    l2697:
  3956  005E' 3000               	movlw	0
  3957  005F' 0091'              	movwf	?___flmul+3
  3958  0060' 3000               	movlw	0
  3959  0061' 0090'              	movwf	?___flmul+2
  3960  0062' 3000               	movlw	0
  3961  0063' 008F'              	movwf	?___flmul+1
  3962  0064' 3000               	movlw	0
  3963  0065' 008E'              	movwf	?___flmul
  3964  0066' 2800'              	goto	l720
  3965  0067'                    l2701:
  3966  0067' 080E'              	movf	___flmul@b,w
  3967  0068' 0080'              	movwf	__Umul8_16@multiplicand
  3968  0069' 0814'              	movf	___flmul@a+2,w
  3969  006A' 120A' 118A' 2000' 120A' 118A' 	fcall	__Umul8_16
  3970  006F' 0801'              	movf	?__Umul8_16+1,w
  3971  0070' 1283               	bcf	3,5	;RP0=0, select bank0
  3972  0071' 1303               	bcf	3,6	;RP1=0, select bank0
  3973  0072' 00A7'              	movwf	___flmul@temp+1
  3974  0073' 0800'              	movf	?__Umul8_16,w
  3975  0074' 00A6'              	movwf	___flmul@temp
  3976  0075'                    l2703:
  3977  0075' 0826'              	movf	___flmul@temp,w
  3978  0076' 0096'              	movwf	??___flmul
  3979  0077' 0197'              	clrf	??___flmul+1
  3980  0078' 0198'              	clrf	??___flmul+2
  3981  0079' 0199'              	clrf	??___flmul+3
  3982  007A' 0819'              	movf	??___flmul+3,w
  3983  007B' 009F'              	movwf	___flmul@grs+3
  3984  007C' 0818'              	movf	??___flmul+2,w
  3985  007D' 009E'              	movwf	___flmul@grs+2
  3986  007E' 0817'              	movf	??___flmul+1,w
  3987  007F' 009D'              	movwf	___flmul@grs+1
  3988  0080' 0816'              	movf	??___flmul,w
  3989  0081' 009C'              	movwf	___flmul@grs
  3990  0082'                    l2705:
  3991  0082' 0827'              	movf	___flmul@temp+1,w
  3992  0083' 0096'              	movwf	??___flmul
  3993  0084' 0197'              	clrf	??___flmul+1
  3994  0085' 0198'              	clrf	??___flmul+2
  3995  0086' 0199'              	clrf	??___flmul+3
  3996  0087' 0819'              	movf	??___flmul+3,w
  3997  0088' 00A5'              	movwf	___flmul@prod+3
  3998  0089' 0818'              	movf	??___flmul+2,w
  3999  008A' 00A4'              	movwf	___flmul@prod+2
  4000  008B' 0817'              	movf	??___flmul+1,w
  4001  008C' 00A3'              	movwf	___flmul@prod+1
  4002  008D' 0816'              	movf	??___flmul,w
  4003  008E' 00A2'              	movwf	___flmul@prod
  4004  008F' 080F'              	movf	___flmul@b+1,w
  4005  0090' 0080'              	movwf	__Umul8_16@multiplicand
  4006  0091' 0813'              	movf	___flmul@a+1,w
  4007  0092' 120A' 118A' 2000' 120A' 118A' 	fcall	__Umul8_16
  4008  0097' 0801'              	movf	?__Umul8_16+1,w
  4009  0098' 1283               	bcf	3,5	;RP0=0, select bank0
  4010  0099' 1303               	bcf	3,6	;RP1=0, select bank0
  4011  009A' 00A7'              	movwf	___flmul@temp+1
  4012  009B' 0800'              	movf	?__Umul8_16,w
  4013  009C' 00A6'              	movwf	___flmul@temp
  4014  009D'                    l2707:
  4015  009D' 0826'              	movf	___flmul@temp,w
  4016  009E' 0096'              	movwf	??___flmul
  4017  009F' 0197'              	clrf	??___flmul+1
  4018  00A0' 0198'              	clrf	??___flmul+2
  4019  00A1' 0199'              	clrf	??___flmul+3
  4020  00A2' 0816'              	movf	??___flmul,w
  4021  00A3' 079C'              	addwf	___flmul@grs,f
  4022  00A4' 0817'              	movf	??___flmul+1,w
  4023  00A5' 1103               	clrz
  4024  00A6' 1803               	skipnc
  4025  00A7' 3E01               	addlw	1
  4026  00A8' 1903               	skipnz
  4027  00A9' 2800'              	goto	u4171
  4028  00AA' 079D'              	addwf	___flmul@grs+1,f
  4029  00AB'                    u4171:
  4030  00AB' 0818'              	movf	??___flmul+2,w
  4031  00AC' 1103               	clrz
  4032  00AD' 1803               	skipnc
  4033  00AE' 3E01               	addlw	1
  4034  00AF' 1903               	skipnz
  4035  00B0' 2800'              	goto	u4172
  4036  00B1' 079E'              	addwf	___flmul@grs+2,f
  4037  00B2'                    u4172:
  4038  00B2' 0819'              	movf	??___flmul+3,w
  4039  00B3' 1103               	clrz
  4040  00B4' 1803               	skipnc
  4041  00B5' 3E01               	addlw	1
  4042  00B6' 1903               	skipnz
  4043  00B7' 2800'              	goto	u4173
  4044  00B8' 079F'              	addwf	___flmul@grs+3,f
  4045  00B9'                    u4173:
  4046  00B9'                    l2709:
  4047  00B9' 0827'              	movf	___flmul@temp+1,w
  4048  00BA' 0096'              	movwf	??___flmul
  4049  00BB' 0197'              	clrf	??___flmul+1
  4050  00BC' 0198'              	clrf	??___flmul+2
  4051  00BD' 0199'              	clrf	??___flmul+3
  4052  00BE' 0816'              	movf	??___flmul,w
  4053  00BF' 07A2'              	addwf	___flmul@prod,f
  4054  00C0' 0817'              	movf	??___flmul+1,w
  4055  00C1' 1103               	clrz
  4056  00C2' 1803               	skipnc
  4057  00C3' 3E01               	addlw	1
  4058  00C4' 1903               	skipnz
  4059  00C5' 2800'              	goto	u4181
  4060  00C6' 07A3'              	addwf	___flmul@prod+1,f
  4061  00C7'                    u4181:
  4062  00C7' 0818'              	movf	??___flmul+2,w
  4063  00C8' 1103               	clrz
  4064  00C9' 1803               	skipnc
  4065  00CA' 3E01               	addlw	1
  4066  00CB' 1903               	skipnz
  4067  00CC' 2800'              	goto	u4182
  4068  00CD' 07A4'              	addwf	___flmul@prod+2,f
  4069  00CE'                    u4182:
  4070  00CE' 0819'              	movf	??___flmul+3,w
  4071  00CF' 1103               	clrz
  4072  00D0' 1803               	skipnc
  4073  00D1' 3E01               	addlw	1
  4074  00D2' 1903               	skipnz
  4075  00D3' 2800'              	goto	u4183
  4076  00D4' 07A5'              	addwf	___flmul@prod+3,f
  4077  00D5'                    u4183:
  4078  00D5' 0810'              	movf	___flmul@b+2,w
  4079  00D6' 0080'              	movwf	__Umul8_16@multiplicand
  4080  00D7' 0812'              	movf	___flmul@a,w
  4081  00D8' 120A' 118A' 2000' 120A' 118A' 	fcall	__Umul8_16
  4082  00DD' 0801'              	movf	?__Umul8_16+1,w
  4083  00DE' 1283               	bcf	3,5	;RP0=0, select bank0
  4084  00DF' 1303               	bcf	3,6	;RP1=0, select bank0
  4085  00E0' 00A7'              	movwf	___flmul@temp+1
  4086  00E1' 0800'              	movf	?__Umul8_16,w
  4087  00E2' 00A6'              	movwf	___flmul@temp
  4088  00E3'                    l2711:
  4089  00E3' 0826'              	movf	___flmul@temp,w
  4090  00E4' 0096'              	movwf	??___flmul
  4091  00E5' 0197'              	clrf	??___flmul+1
  4092  00E6' 0198'              	clrf	??___flmul+2
  4093  00E7' 0199'              	clrf	??___flmul+3
  4094  00E8' 0816'              	movf	??___flmul,w
  4095  00E9' 079C'              	addwf	___flmul@grs,f
  4096  00EA' 0817'              	movf	??___flmul+1,w
  4097  00EB' 1103               	clrz
  4098  00EC' 1803               	skipnc
  4099  00ED' 3E01               	addlw	1
  4100  00EE' 1903               	skipnz
  4101  00EF' 2800'              	goto	u4191
  4102  00F0' 079D'              	addwf	___flmul@grs+1,f
  4103  00F1'                    u4191:
  4104  00F1' 0818'              	movf	??___flmul+2,w
  4105  00F2' 1103               	clrz
  4106  00F3' 1803               	skipnc
  4107  00F4' 3E01               	addlw	1
  4108  00F5' 1903               	skipnz
  4109  00F6' 2800'              	goto	u4192
  4110  00F7' 079E'              	addwf	___flmul@grs+2,f
  4111  00F8'                    u4192:
  4112  00F8' 0819'              	movf	??___flmul+3,w
  4113  00F9' 1103               	clrz
  4114  00FA' 1803               	skipnc
  4115  00FB' 3E01               	addlw	1
  4116  00FC' 1903               	skipnz
  4117  00FD' 2800'              	goto	u4193
  4118  00FE' 079F'              	addwf	___flmul@grs+3,f
  4119  00FF'                    u4193:
  4120  00FF'                    l2713:
  4121  00FF' 0827'              	movf	___flmul@temp+1,w
  4122  0100' 0096'              	movwf	??___flmul
  4123  0101' 0197'              	clrf	??___flmul+1
  4124  0102' 0198'              	clrf	??___flmul+2
  4125  0103' 0199'              	clrf	??___flmul+3
  4126  0104' 0816'              	movf	??___flmul,w
  4127  0105' 07A2'              	addwf	___flmul@prod,f
  4128  0106' 0817'              	movf	??___flmul+1,w
  4129  0107' 1103               	clrz
  4130  0108' 1803               	skipnc
  4131  0109' 3E01               	addlw	1
  4132  010A' 1903               	skipnz
  4133  010B' 2800'              	goto	u4201
  4134  010C' 07A3'              	addwf	___flmul@prod+1,f
  4135  010D'                    u4201:
  4136  010D' 0818'              	movf	??___flmul+2,w
  4137  010E' 1103               	clrz
  4138  010F' 1803               	skipnc
  4139  0110' 3E01               	addlw	1
  4140  0111' 1903               	skipnz
  4141  0112' 2800'              	goto	u4202
  4142  0113' 07A4'              	addwf	___flmul@prod+2,f
  4143  0114'                    u4202:
  4144  0114' 0819'              	movf	??___flmul+3,w
  4145  0115' 1103               	clrz
  4146  0116' 1803               	skipnc
  4147  0117' 3E01               	addlw	1
  4148  0118' 1903               	skipnz
  4149  0119' 2800'              	goto	u4203
  4150  011A' 07A5'              	addwf	___flmul@prod+3,f
  4151  011B'                    u4203:
  4152  011B'                    l2715:
  4153  011B' 3008               	movlw	8
  4154  011C' 0096'              	movwf	??___flmul
  4155  011D'                    u4215:
  4156  011D' 1003               	clrc
  4157  011E' 0D9C'              	rlf	___flmul@grs,f
  4158  011F' 0D9D'              	rlf	___flmul@grs+1,f
  4159  0120' 0D9E'              	rlf	___flmul@grs+2,f
  4160  0121' 0D9F'              	rlf	___flmul@grs+3,f
  4161  0122' 0B96'              	decfsz	??___flmul,f
  4162  0123' 2800'              	goto	u4215
  4163  0124'                    l2717:
  4164  0124' 080F'              	movf	___flmul@b+1,w
  4165  0125' 0080'              	movwf	__Umul8_16@multiplicand
  4166  0126' 0812'              	movf	___flmul@a,w
  4167  0127' 120A' 118A' 2000' 120A' 118A' 	fcall	__Umul8_16
  4168  012C' 0801'              	movf	?__Umul8_16+1,w
  4169  012D' 1283               	bcf	3,5	;RP0=0, select bank0
  4170  012E' 1303               	bcf	3,6	;RP1=0, select bank0
  4171  012F' 00A7'              	movwf	___flmul@temp+1
  4172  0130' 0800'              	movf	?__Umul8_16,w
  4173  0131' 00A6'              	movwf	___flmul@temp
  4174  0132'                    l2719:
  4175  0132' 0826'              	movf	___flmul@temp,w
  4176  0133' 0096'              	movwf	??___flmul
  4177  0134' 0827'              	movf	___flmul@temp+1,w
  4178  0135' 0097'              	movwf	??___flmul+1
  4179  0136' 0198'              	clrf	??___flmul+2
  4180  0137' 0199'              	clrf	??___flmul+3
  4181  0138' 0816'              	movf	??___flmul,w
  4182  0139' 079C'              	addwf	___flmul@grs,f
  4183  013A' 0817'              	movf	??___flmul+1,w
  4184  013B' 1103               	clrz
  4185  013C' 1803               	skipnc
  4186  013D' 3E01               	addlw	1
  4187  013E' 1903               	skipnz
  4188  013F' 2800'              	goto	u4221
  4189  0140' 079D'              	addwf	___flmul@grs+1,f
  4190  0141'                    u4221:
  4191  0141' 0818'              	movf	??___flmul+2,w
  4192  0142' 1103               	clrz
  4193  0143' 1803               	skipnc
  4194  0144' 3E01               	addlw	1
  4195  0145' 1903               	skipnz
  4196  0146' 2800'              	goto	u4222
  4197  0147' 079E'              	addwf	___flmul@grs+2,f
  4198  0148'                    u4222:
  4199  0148' 0819'              	movf	??___flmul+3,w
  4200  0149' 1103               	clrz
  4201  014A' 1803               	skipnc
  4202  014B' 3E01               	addlw	1
  4203  014C' 1903               	skipnz
  4204  014D' 2800'              	goto	u4223
  4205  014E' 079F'              	addwf	___flmul@grs+3,f
  4206  014F'                    u4223:
  4207  014F'                    l2721:
  4208  014F' 080E'              	movf	___flmul@b,w
  4209  0150' 0080'              	movwf	__Umul8_16@multiplicand
  4210  0151' 0813'              	movf	___flmul@a+1,w
  4211  0152' 120A' 118A' 2000' 120A' 118A' 	fcall	__Umul8_16
  4212  0157' 0801'              	movf	?__Umul8_16+1,w
  4213  0158' 1283               	bcf	3,5	;RP0=0, select bank0
  4214  0159' 1303               	bcf	3,6	;RP1=0, select bank0
  4215  015A' 00A7'              	movwf	___flmul@temp+1
  4216  015B' 0800'              	movf	?__Umul8_16,w
  4217  015C' 00A6'              	movwf	___flmul@temp
  4218  015D'                    l2723:
  4219  015D' 0826'              	movf	___flmul@temp,w
  4220  015E' 0096'              	movwf	??___flmul
  4221  015F' 0827'              	movf	___flmul@temp+1,w
  4222  0160' 0097'              	movwf	??___flmul+1
  4223  0161' 0198'              	clrf	??___flmul+2
  4224  0162' 0199'              	clrf	??___flmul+3
  4225  0163' 0816'              	movf	??___flmul,w
  4226  0164' 079C'              	addwf	___flmul@grs,f
  4227  0165' 0817'              	movf	??___flmul+1,w
  4228  0166' 1103               	clrz
  4229  0167' 1803               	skipnc
  4230  0168' 3E01               	addlw	1
  4231  0169' 1903               	skipnz
  4232  016A' 2800'              	goto	u4231
  4233  016B' 079D'              	addwf	___flmul@grs+1,f
  4234  016C'                    u4231:
  4235  016C' 0818'              	movf	??___flmul+2,w
  4236  016D' 1103               	clrz
  4237  016E' 1803               	skipnc
  4238  016F' 3E01               	addlw	1
  4239  0170' 1903               	skipnz
  4240  0171' 2800'              	goto	u4232
  4241  0172' 079E'              	addwf	___flmul@grs+2,f
  4242  0173'                    u4232:
  4243  0173' 0819'              	movf	??___flmul+3,w
  4244  0174' 1103               	clrz
  4245  0175' 1803               	skipnc
  4246  0176' 3E01               	addlw	1
  4247  0177' 1903               	skipnz
  4248  0178' 2800'              	goto	u4233
  4249  0179' 079F'              	addwf	___flmul@grs+3,f
  4250  017A'                    u4233:
  4251  017A'                    l2725:
  4252  017A' 3008               	movlw	8
  4253  017B' 0096'              	movwf	??___flmul
  4254  017C'                    u4245:
  4255  017C' 1003               	clrc
  4256  017D' 0D9C'              	rlf	___flmul@grs,f
  4257  017E' 0D9D'              	rlf	___flmul@grs+1,f
  4258  017F' 0D9E'              	rlf	___flmul@grs+2,f
  4259  0180' 0D9F'              	rlf	___flmul@grs+3,f
  4260  0181' 0B96'              	decfsz	??___flmul,f
  4261  0182' 2800'              	goto	u4245
  4262  0183' 080E'              	movf	___flmul@b,w
  4263  0184' 0080'              	movwf	__Umul8_16@multiplicand
  4264  0185' 0812'              	movf	___flmul@a,w
  4265  0186' 120A' 118A' 2000' 120A' 118A' 	fcall	__Umul8_16
  4266  018B' 0801'              	movf	?__Umul8_16+1,w
  4267  018C' 1283               	bcf	3,5	;RP0=0, select bank0
  4268  018D' 1303               	bcf	3,6	;RP1=0, select bank0
  4269  018E' 00A7'              	movwf	___flmul@temp+1
  4270  018F' 0800'              	movf	?__Umul8_16,w
  4271  0190' 00A6'              	movwf	___flmul@temp
  4272  0191'                    l2727:
  4273  0191' 0826'              	movf	___flmul@temp,w
  4274  0192' 0096'              	movwf	??___flmul
  4275  0193' 0827'              	movf	___flmul@temp+1,w
  4276  0194' 0097'              	movwf	??___flmul+1
  4277  0195' 0198'              	clrf	??___flmul+2
  4278  0196' 0199'              	clrf	??___flmul+3
  4279  0197' 0816'              	movf	??___flmul,w
  4280  0198' 079C'              	addwf	___flmul@grs,f
  4281  0199' 0817'              	movf	??___flmul+1,w
  4282  019A' 1103               	clrz
  4283  019B' 1803               	skipnc
  4284  019C' 3E01               	addlw	1
  4285  019D' 1903               	skipnz
  4286  019E' 2800'              	goto	u4251
  4287  019F' 079D'              	addwf	___flmul@grs+1,f
  4288  01A0'                    u4251:
  4289  01A0' 0818'              	movf	??___flmul+2,w
  4290  01A1' 1103               	clrz
  4291  01A2' 1803               	skipnc
  4292  01A3' 3E01               	addlw	1
  4293  01A4' 1903               	skipnz
  4294  01A5' 2800'              	goto	u4252
  4295  01A6' 079E'              	addwf	___flmul@grs+2,f
  4296  01A7'                    u4252:
  4297  01A7' 0819'              	movf	??___flmul+3,w
  4298  01A8' 1103               	clrz
  4299  01A9' 1803               	skipnc
  4300  01AA' 3E01               	addlw	1
  4301  01AB' 1903               	skipnz
  4302  01AC' 2800'              	goto	u4253
  4303  01AD' 079F'              	addwf	___flmul@grs+3,f
  4304  01AE'                    u4253:
  4305  01AE'                    l2729:
  4306  01AE' 080F'              	movf	___flmul@b+1,w
  4307  01AF' 0080'              	movwf	__Umul8_16@multiplicand
  4308  01B0' 0814'              	movf	___flmul@a+2,w
  4309  01B1' 120A' 118A' 2000' 120A' 118A' 	fcall	__Umul8_16
  4310  01B6' 0801'              	movf	?__Umul8_16+1,w
  4311  01B7' 1283               	bcf	3,5	;RP0=0, select bank0
  4312  01B8' 1303               	bcf	3,6	;RP1=0, select bank0
  4313  01B9' 00A7'              	movwf	___flmul@temp+1
  4314  01BA' 0800'              	movf	?__Umul8_16,w
  4315  01BB' 00A6'              	movwf	___flmul@temp
  4316  01BC' 0826'              	movf	___flmul@temp,w
  4317  01BD' 0096'              	movwf	??___flmul
  4318  01BE' 0827'              	movf	___flmul@temp+1,w
  4319  01BF' 0097'              	movwf	??___flmul+1
  4320  01C0' 0198'              	clrf	??___flmul+2
  4321  01C1' 0199'              	clrf	??___flmul+3
  4322  01C2' 0816'              	movf	??___flmul,w
  4323  01C3' 07A2'              	addwf	___flmul@prod,f
  4324  01C4' 0817'              	movf	??___flmul+1,w
  4325  01C5' 1103               	clrz
  4326  01C6' 1803               	skipnc
  4327  01C7' 3E01               	addlw	1
  4328  01C8' 1903               	skipnz
  4329  01C9' 2800'              	goto	u4261
  4330  01CA' 07A3'              	addwf	___flmul@prod+1,f
  4331  01CB'                    u4261:
  4332  01CB' 0818'              	movf	??___flmul+2,w
  4333  01CC' 1103               	clrz
  4334  01CD' 1803               	skipnc
  4335  01CE' 3E01               	addlw	1
  4336  01CF' 1903               	skipnz
  4337  01D0' 2800'              	goto	u4262
  4338  01D1' 07A4'              	addwf	___flmul@prod+2,f
  4339  01D2'                    u4262:
  4340  01D2' 0819'              	movf	??___flmul+3,w
  4341  01D3' 1103               	clrz
  4342  01D4' 1803               	skipnc
  4343  01D5' 3E01               	addlw	1
  4344  01D6' 1903               	skipnz
  4345  01D7' 2800'              	goto	u4263
  4346  01D8' 07A5'              	addwf	___flmul@prod+3,f
  4347  01D9'                    u4263:
  4348  01D9'                    l2731:
  4349  01D9' 0810'              	movf	___flmul@b+2,w
  4350  01DA' 0080'              	movwf	__Umul8_16@multiplicand
  4351  01DB' 0813'              	movf	___flmul@a+1,w
  4352  01DC' 120A' 118A' 2000' 120A' 118A' 	fcall	__Umul8_16
  4353  01E1' 0801'              	movf	?__Umul8_16+1,w
  4354  01E2' 1283               	bcf	3,5	;RP0=0, select bank0
  4355  01E3' 1303               	bcf	3,6	;RP1=0, select bank0
  4356  01E4' 00A7'              	movwf	___flmul@temp+1
  4357  01E5' 0800'              	movf	?__Umul8_16,w
  4358  01E6' 00A6'              	movwf	___flmul@temp
  4359  01E7'                    l2733:
  4360  01E7' 0826'              	movf	___flmul@temp,w
  4361  01E8' 0096'              	movwf	??___flmul
  4362  01E9' 0827'              	movf	___flmul@temp+1,w
  4363  01EA' 0097'              	movwf	??___flmul+1
  4364  01EB' 0198'              	clrf	??___flmul+2
  4365  01EC' 0199'              	clrf	??___flmul+3
  4366  01ED' 0816'              	movf	??___flmul,w
  4367  01EE' 07A2'              	addwf	___flmul@prod,f
  4368  01EF' 0817'              	movf	??___flmul+1,w
  4369  01F0' 1103               	clrz
  4370  01F1' 1803               	skipnc
  4371  01F2' 3E01               	addlw	1
  4372  01F3' 1903               	skipnz
  4373  01F4' 2800'              	goto	u4271
  4374  01F5' 07A3'              	addwf	___flmul@prod+1,f
  4375  01F6'                    u4271:
  4376  01F6' 0818'              	movf	??___flmul+2,w
  4377  01F7' 1103               	clrz
  4378  01F8' 1803               	skipnc
  4379  01F9' 3E01               	addlw	1
  4380  01FA' 1903               	skipnz
  4381  01FB' 2800'              	goto	u4272
  4382  01FC' 07A4'              	addwf	___flmul@prod+2,f
  4383  01FD'                    u4272:
  4384  01FD' 0819'              	movf	??___flmul+3,w
  4385  01FE' 1103               	clrz
  4386  01FF' 1803               	skipnc
  4387  0200' 3E01               	addlw	1
  4388  0201' 1903               	skipnz
  4389  0202' 2800'              	goto	u4273
  4390  0203' 07A5'              	addwf	___flmul@prod+3,f
  4391  0204'                    u4273:
  4392  0204' 0810'              	movf	___flmul@b+2,w
  4393  0205' 0080'              	movwf	__Umul8_16@multiplicand
  4394  0206' 0814'              	movf	___flmul@a+2,w
  4395  0207' 120A' 118A' 2000' 120A' 118A' 	fcall	__Umul8_16
  4396  020C' 0801'              	movf	?__Umul8_16+1,w
  4397  020D' 1283               	bcf	3,5	;RP0=0, select bank0
  4398  020E' 1303               	bcf	3,6	;RP1=0, select bank0
  4399  020F' 00A7'              	movwf	___flmul@temp+1
  4400  0210' 0800'              	movf	?__Umul8_16,w
  4401  0211' 00A6'              	movwf	___flmul@temp
  4402  0212'                    l2735:
  4403  0212' 0826'              	movf	___flmul@temp,w
  4404  0213' 0096'              	movwf	??___flmul
  4405  0214' 0827'              	movf	___flmul@temp+1,w
  4406  0215' 0097'              	movwf	??___flmul+1
  4407  0216' 0198'              	clrf	??___flmul+2
  4408  0217' 0199'              	clrf	??___flmul+3
  4409  0218' 3008               	movlw	8
  4410  0219'                    u4285:
  4411  0219' 1003               	clrc
  4412  021A' 0D96'              	rlf	??___flmul,f
  4413  021B' 0D97'              	rlf	??___flmul+1,f
  4414  021C' 0D98'              	rlf	??___flmul+2,f
  4415  021D' 0D99'              	rlf	??___flmul+3,f
  4416  021E'                    u4280:
  4417  021E' 3EFF               	addlw	-1
  4418  021F' 1D03               	skipz
  4419  0220' 2800'              	goto	u4285
  4420  0221' 0816'              	movf	??___flmul,w
  4421  0222' 07A2'              	addwf	___flmul@prod,f
  4422  0223' 0817'              	movf	??___flmul+1,w
  4423  0224' 1103               	clrz
  4424  0225' 1803               	skipnc
  4425  0226' 3E01               	addlw	1
  4426  0227' 1903               	skipnz
  4427  0228' 2800'              	goto	u4291
  4428  0229' 07A3'              	addwf	___flmul@prod+1,f
  4429  022A'                    u4291:
  4430  022A' 0818'              	movf	??___flmul+2,w
  4431  022B' 1103               	clrz
  4432  022C' 1803               	skipnc
  4433  022D' 3E01               	addlw	1
  4434  022E' 1903               	skipnz
  4435  022F' 2800'              	goto	u4292
  4436  0230' 07A4'              	addwf	___flmul@prod+2,f
  4437  0231'                    u4292:
  4438  0231' 0819'              	movf	??___flmul+3,w
  4439  0232' 1103               	clrz
  4440  0233' 1803               	skipnc
  4441  0234' 3E01               	addlw	1
  4442  0235' 1903               	skipnz
  4443  0236' 2800'              	goto	u4293
  4444  0237' 07A5'              	addwf	___flmul@prod+3,f
  4445  0238'                    u4293:
  4446  0238'                    l2737:
  4447  0238' 081C'              	movf	___flmul@grs,w
  4448  0239' 0096'              	movwf	??___flmul
  4449  023A' 081D'              	movf	___flmul@grs+1,w
  4450  023B' 0097'              	movwf	??___flmul+1
  4451  023C' 081E'              	movf	___flmul@grs+2,w
  4452  023D' 0098'              	movwf	??___flmul+2
  4453  023E' 081F'              	movf	___flmul@grs+3,w
  4454  023F' 0099'              	movwf	??___flmul+3
  4455  0240' 3018               	movlw	24
  4456  0241'                    u4305:
  4457  0241' 1003               	clrc
  4458  0242' 0C99'              	rrf	??___flmul+3,f
  4459  0243' 0C98'              	rrf	??___flmul+2,f
  4460  0244' 0C97'              	rrf	??___flmul+1,f
  4461  0245' 0C96'              	rrf	??___flmul,f
  4462  0246'                    u4300:
  4463  0246' 3EFF               	addlw	-1
  4464  0247' 1D03               	skipz
  4465  0248' 2800'              	goto	u4305
  4466  0249' 0816'              	movf	??___flmul,w
  4467  024A' 07A2'              	addwf	___flmul@prod,f
  4468  024B' 0817'              	movf	??___flmul+1,w
  4469  024C' 1103               	clrz
  4470  024D' 1803               	skipnc
  4471  024E' 3E01               	addlw	1
  4472  024F' 1903               	skipnz
  4473  0250' 2800'              	goto	u4311
  4474  0251' 07A3'              	addwf	___flmul@prod+1,f
  4475  0252'                    u4311:
  4476  0252' 0818'              	movf	??___flmul+2,w
  4477  0253' 1103               	clrz
  4478  0254' 1803               	skipnc
  4479  0255' 3E01               	addlw	1
  4480  0256' 1903               	skipnz
  4481  0257' 2800'              	goto	u4312
  4482  0258' 07A4'              	addwf	___flmul@prod+2,f
  4483  0259'                    u4312:
  4484  0259' 0819'              	movf	??___flmul+3,w
  4485  025A' 1103               	clrz
  4486  025B' 1803               	skipnc
  4487  025C' 3E01               	addlw	1
  4488  025D' 1903               	skipnz
  4489  025E' 2800'              	goto	u4313
  4490  025F' 07A5'              	addwf	___flmul@prod+3,f
  4491  0260'                    u4313:
  4492  0260'                    l2739:
  4493  0260' 3008               	movlw	8
  4494  0261' 0096'              	movwf	??___flmul
  4495  0262'                    u4325:
  4496  0262' 1003               	clrc
  4497  0263' 0D9C'              	rlf	___flmul@grs,f
  4498  0264' 0D9D'              	rlf	___flmul@grs+1,f
  4499  0265' 0D9E'              	rlf	___flmul@grs+2,f
  4500  0266' 0D9F'              	rlf	___flmul@grs+3,f
  4501  0267' 0B96'              	decfsz	??___flmul,f
  4502  0268' 2800'              	goto	u4325
  4503  0269'                    l2741:
  4504  0269' 0821'              	movf	___flmul@bexp,w
  4505  026A' 0720'              	addwf	___flmul@aexp,w
  4506  026B' 0096'              	movwf	??___flmul
  4507  026C' 0197'              	clrf	??___flmul+1
  4508  026D' 0D97'              	rlf	??___flmul+1,f
  4509  026E' 0816'              	movf	??___flmul,w
  4510  026F' 3E82               	addlw	130
  4511  0270' 00A6'              	movwf	___flmul@temp
  4512  0271' 0817'              	movf	??___flmul+1,w
  4513  0272' 1803               	skipnc
  4514  0273' 3E01               	addlw	1
  4515  0274' 3EFF               	addlw	255
  4516  0275' 00A7'              	movwf	___flmul@temp+1
  4517  0276' 2800'              	goto	l2753
  4518  0277'                    l2743:
  4519  0277' 3001               	movlw	1
  4520  0278' 0096'              	movwf	??___flmul
  4521  0279'                    u4335:
  4522  0279' 1003               	clrc
  4523  027A' 0DA2'              	rlf	___flmul@prod,f
  4524  027B' 0DA3'              	rlf	___flmul@prod+1,f
  4525  027C' 0DA4'              	rlf	___flmul@prod+2,f
  4526  027D' 0DA5'              	rlf	___flmul@prod+3,f
  4527  027E' 0B96'              	decfsz	??___flmul,f
  4528  027F' 2800'              	goto	u4335
  4529  0280'                    l2745:
  4530  0280' 1F9F'              	btfss	___flmul@grs+3,7
  4531  0281' 2800'              	goto	u4341
  4532  0282' 2800'              	goto	u4340
  4533  0283'                    u4341:
  4534  0283' 2800'              	goto	l2749
  4535  0284'                    u4340:
  4536  0284'                    l2747:
  4537  0284' 1422'              	bsf	___flmul@prod,0
  4538  0285'                    l2749:
  4539  0285' 3001               	movlw	1
  4540  0286' 0096'              	movwf	??___flmul
  4541  0287'                    u4355:
  4542  0287' 1003               	clrc
  4543  0288' 0D9C'              	rlf	___flmul@grs,f
  4544  0289' 0D9D'              	rlf	___flmul@grs+1,f
  4545  028A' 0D9E'              	rlf	___flmul@grs+2,f
  4546  028B' 0D9F'              	rlf	___flmul@grs+3,f
  4547  028C' 0B96'              	decfsz	??___flmul,f
  4548  028D' 2800'              	goto	u4355
  4549  028E'                    l2751:
  4550  028E' 30FF               	movlw	255
  4551  028F' 07A6'              	addwf	___flmul@temp,f
  4552  0290' 1803               	skipnc
  4553  0291' 0AA7'              	incf	___flmul@temp+1,f
  4554  0292' 30FF               	movlw	255
  4555  0293' 07A7'              	addwf	___flmul@temp+1,f
  4556  0294'                    l2753:
  4557  0294' 1FA4'              	btfss	___flmul@prod+2,7
  4558  0295' 2800'              	goto	u4361
  4559  0296' 2800'              	goto	u4360
  4560  0297'                    u4361:
  4561  0297' 2800'              	goto	l2743
  4562  0298'                    u4360:
  4563  0298'                    l2755:
  4564  0298' 01A0'              	clrf	___flmul@aexp
  4565  0299'                    l2757:
  4566  0299' 1F9F'              	btfss	___flmul@grs+3,7
  4567  029A' 2800'              	goto	u4371
  4568  029B' 2800'              	goto	u4370
  4569  029C'                    u4371:
  4570  029C' 2800'              	goto	l2765
  4571  029D'                    u4370:
  4572  029D'                    l2759:
  4573  029D' 30FF               	movlw	255
  4574  029E' 051C'              	andwf	___flmul@grs,w
  4575  029F' 0096'              	movwf	??___flmul
  4576  02A0' 30FF               	movlw	255
  4577  02A1' 051D'              	andwf	___flmul@grs+1,w
  4578  02A2' 0097'              	movwf	??___flmul+1
  4579  02A3' 30FF               	movlw	255
  4580  02A4' 051E'              	andwf	___flmul@grs+2,w
  4581  02A5' 0098'              	movwf	??___flmul+2
  4582  02A6' 307F               	movlw	127
  4583  02A7' 051F'              	andwf	___flmul@grs+3,w
  4584  02A8' 0099'              	movwf	??___flmul+3
  4585  02A9' 0819'              	movf	??___flmul+3,w
  4586  02AA' 0418'              	iorwf	??___flmul+2,w
  4587  02AB' 0417'              	iorwf	??___flmul+1,w
  4588  02AC' 0416'              	iorwf	??___flmul,w
  4589  02AD' 1903               	skipnz
  4590  02AE' 2800'              	goto	u4381
  4591  02AF' 2800'              	goto	u4380
  4592  02B0'                    u4381:
  4593  02B0' 2800'              	goto	l726
  4594  02B1'                    u4380:
  4595  02B1'                    l2761:
  4596  02B1' 01A0'              	clrf	___flmul@aexp
  4597  02B2' 0AA0'              	incf	___flmul@aexp,f
  4598  02B3' 2800'              	goto	l2765
  4599  02B4'                    l726:
  4600  02B4' 1C22'              	btfss	___flmul@prod,0
  4601  02B5' 2800'              	goto	u4391
  4602  02B6' 2800'              	goto	u4390
  4603  02B7'                    u4391:
  4604  02B7' 2800'              	goto	l2765
  4605  02B8'                    u4390:
  4606  02B8' 2800'              	goto	l2761
  4607  02B9'                    l2765:
  4608  02B9' 0820'              	movf	___flmul@aexp,w
  4609  02BA' 1903               	btfsc	3,2
  4610  02BB' 2800'              	goto	u4401
  4611  02BC' 2800'              	goto	u4400
  4612  02BD'                    u4401:
  4613  02BD' 2800'              	goto	l2775
  4614  02BE'                    u4400:
  4615  02BE'                    l2767:
  4616  02BE' 3001               	movlw	1
  4617  02BF' 07A2'              	addwf	___flmul@prod,f
  4618  02C0' 3000               	movlw	0
  4619  02C1' 1803               	skipnc
  4620  02C2' 3001               	movlw	1
  4621  02C3' 07A3'              	addwf	___flmul@prod+1,f
  4622  02C4' 3000               	movlw	0
  4623  02C5' 1803               	skipnc
  4624  02C6' 3001               	movlw	1
  4625  02C7' 07A4'              	addwf	___flmul@prod+2,f
  4626  02C8' 3000               	movlw	0
  4627  02C9' 1803               	skipnc
  4628  02CA' 3001               	movlw	1
  4629  02CB' 07A5'              	addwf	___flmul@prod+3,f
  4630  02CC'                    l2769:
  4631  02CC' 1C25'              	btfss	___flmul@prod+3,0
  4632  02CD' 2800'              	goto	u4411
  4633  02CE' 2800'              	goto	u4410
  4634  02CF'                    u4411:
  4635  02CF' 2800'              	goto	l2775
  4636  02D0'                    u4410:
  4637  02D0'                    l2771:
  4638  02D0' 0822'              	movf	___flmul@prod,w
  4639  02D1' 0096'              	movwf	??___flmul
  4640  02D2' 0823'              	movf	___flmul@prod+1,w
  4641  02D3' 0097'              	movwf	??___flmul+1
  4642  02D4' 0824'              	movf	___flmul@prod+2,w
  4643  02D5' 0098'              	movwf	??___flmul+2
  4644  02D6' 0825'              	movf	___flmul@prod+3,w
  4645  02D7' 0099'              	movwf	??___flmul+3
  4646  02D8' 3001               	movlw	1
  4647  02D9' 009A'              	movwf	??___flmul+4
  4648  02DA'                    u4425:
  4649  02DA' 0D19'              	rlf	??___flmul+3,w
  4650  02DB' 0C99'              	rrf	??___flmul+3,f
  4651  02DC' 0C98'              	rrf	??___flmul+2,f
  4652  02DD' 0C97'              	rrf	??___flmul+1,f
  4653  02DE' 0C96'              	rrf	??___flmul,f
  4654  02DF'                    u4420:
  4655  02DF' 0B9A'              	decfsz	??___flmul+4,f
  4656  02E0' 2800'              	goto	u4425
  4657  02E1' 0819'              	movf	??___flmul+3,w
  4658  02E2' 00A5'              	movwf	___flmul@prod+3
  4659  02E3' 0818'              	movf	??___flmul+2,w
  4660  02E4' 00A4'              	movwf	___flmul@prod+2
  4661  02E5' 0817'              	movf	??___flmul+1,w
  4662  02E6' 00A3'              	movwf	___flmul@prod+1
  4663  02E7' 0816'              	movf	??___flmul,w
  4664  02E8' 00A2'              	movwf	___flmul@prod
  4665  02E9'                    l2773:
  4666  02E9' 3001               	movlw	1
  4667  02EA' 07A6'              	addwf	___flmul@temp,f
  4668  02EB' 1803               	skipnc
  4669  02EC' 0AA7'              	incf	___flmul@temp+1,f
  4670  02ED' 3000               	movlw	0
  4671  02EE' 07A7'              	addwf	___flmul@temp+1,f
  4672  02EF'                    l2775:
  4673  02EF' 0827'              	movf	___flmul@temp+1,w
  4674  02F0' 3A80               	xorlw	128
  4675  02F1' 00FF               	movwf	btemp+1
  4676  02F2' 3080               	movlw	128
  4677  02F3' 027F               	subwf	btemp+1,w
  4678  02F4' 1D03               	skipz
  4679  02F5' 2800'              	goto	u4435
  4680  02F6' 30FF               	movlw	255
  4681  02F7' 0226'              	subwf	___flmul@temp,w
  4682  02F8'                    u4435:
  4683  02F8' 1C03               	skipc
  4684  02F9' 2800'              	goto	u4431
  4685  02FA' 2800'              	goto	u4430
  4686  02FB'                    u4431:
  4687  02FB' 2800'              	goto	l2779
  4688  02FC'                    u4430:
  4689  02FC'                    l2777:
  4690  02FC' 307F               	movlw	127
  4691  02FD' 1283               	bcf	3,5	;RP0=0, select bank0
  4692  02FE' 1303               	bcf	3,6	;RP1=0, select bank0
  4693  02FF' 00A5'              	movwf	___flmul@prod+3
  4694  0300' 3080               	movlw	128
  4695  0301' 00A4'              	movwf	___flmul@prod+2
  4696  0302' 3000               	movlw	0
  4697  0303' 00A3'              	movwf	___flmul@prod+1
  4698  0304' 3000               	movlw	0
  4699  0305' 00A2'              	movwf	___flmul@prod
  4700  0306' 2800'              	goto	l732
  4701  0307'                    l2779:
  4702  0307' 1283               	bcf	3,5	;RP0=0, select bank0
  4703  0308' 1303               	bcf	3,6	;RP1=0, select bank0
  4704  0309' 0827'              	movf	___flmul@temp+1,w
  4705  030A' 3A80               	xorlw	128
  4706  030B' 00FF               	movwf	btemp+1
  4707  030C' 3080               	movlw	128
  4708  030D' 027F               	subwf	btemp+1,w
  4709  030E' 1D03               	skipz
  4710  030F' 2800'              	goto	u4445
  4711  0310' 3001               	movlw	1
  4712  0311' 0226'              	subwf	___flmul@temp,w
  4713  0312'                    u4445:
  4714  0312' 1803               	skipnc
  4715  0313' 2800'              	goto	u4441
  4716  0314' 2800'              	goto	u4440
  4717  0315'                    u4441:
  4718  0315' 2800'              	goto	l2785
  4719  0316'                    u4440:
  4720  0316'                    l2781:
  4721  0316' 3000               	movlw	0
  4722  0317' 1283               	bcf	3,5	;RP0=0, select bank0
  4723  0318' 1303               	bcf	3,6	;RP1=0, select bank0
  4724  0319' 00A5'              	movwf	___flmul@prod+3
  4725  031A' 3000               	movlw	0
  4726  031B' 00A4'              	movwf	___flmul@prod+2
  4727  031C' 3000               	movlw	0
  4728  031D' 00A3'              	movwf	___flmul@prod+1
  4729  031E' 3000               	movlw	0
  4730  031F' 00A2'              	movwf	___flmul@prod
  4731  0320'                    l2783:
  4732  0320' 019B'              	clrf	___flmul@sign
  4733  0321' 2800'              	goto	l732
  4734  0322'                    l2785:
  4735  0322' 1283               	bcf	3,5	;RP0=0, select bank0
  4736  0323' 1303               	bcf	3,6	;RP1=0, select bank0
  4737  0324' 0826'              	movf	___flmul@temp,w
  4738  0325' 00A1'              	movwf	___flmul@bexp
  4739  0326' 30FF               	movlw	255
  4740  0327' 05A2'              	andwf	___flmul@prod,f
  4741  0328' 30FF               	movlw	255
  4742  0329' 05A3'              	andwf	___flmul@prod+1,f
  4743  032A' 307F               	movlw	127
  4744  032B' 05A4'              	andwf	___flmul@prod+2,f
  4745  032C' 3000               	movlw	0
  4746  032D' 05A5'              	andwf	___flmul@prod+3,f
  4747  032E'                    l2787:
  4748  032E' 1C21'              	btfss	___flmul@bexp,0
  4749  032F' 2800'              	goto	u4451
  4750  0330' 2800'              	goto	u4450
  4751  0331'                    u4451:
  4752  0331' 2800'              	goto	l2791
  4753  0332'                    u4450:
  4754  0332'                    l2789:
  4755  0332' 17A4'              	bsf	___flmul@prod+2,7
  4756  0333'                    l2791:
  4757  0333' 0821'              	movf	___flmul@bexp,w
  4758  0334' 0096'              	movwf	??___flmul
  4759  0335' 1003               	clrc
  4760  0336' 0C16'              	rrf	??___flmul,w
  4761  0337' 00A5'              	movwf	___flmul@prod+3
  4762  0338'                    l732:
  4763  0338' 081B'              	movf	___flmul@sign,w
  4764  0339' 0096'              	movwf	??___flmul
  4765  033A' 0816'              	movf	??___flmul,w
  4766  033B' 04A5'              	iorwf	___flmul@prod+3,f
  4767  033C'                    l2793:
  4768  033C' 0825'              	movf	___flmul@prod+3,w
  4769  033D' 0091'              	movwf	?___flmul+3
  4770  033E' 0824'              	movf	___flmul@prod+2,w
  4771  033F' 0090'              	movwf	?___flmul+2
  4772  0340' 0823'              	movf	___flmul@prod+1,w
  4773  0341' 008F'              	movwf	?___flmul+1
  4774  0342' 0822'              	movf	___flmul@prod,w
  4775  0343' 008E'              	movwf	?___flmul
  4776  0344'                    l720:
  4777  0344' 0008               	return
  4778  0345'                    __end_of___flmul:
  4779                           
  4780                           	psect	text9
  4781  0000'                    __ptext9:	
  4782 ;; *************** function __Umul8_16 *****************
  4783 ;; Defined at:
  4784 ;;		line 4 in file "C:\Program Files\Microchip\xc8\v2.40\pic\sources\c90\common\Umul8_16.c"
  4785 ;; Parameters:    Size  Location     Type
  4786 ;;  multiplier      1    wreg     unsigned char 
  4787 ;;  multiplicand    1    0[COMMON] unsigned char 
  4788 ;; Auto vars:     Size  Location     Type
  4789 ;;  multiplier      1    8[COMMON] unsigned char 
  4790 ;;  word_mpld       2    6[COMMON] unsigned int 
  4791 ;;  product         2    4[COMMON] unsigned int 
  4792 ;; Return value:  Size  Location     Type
  4793 ;;                  2    0[COMMON] unsigned int 
  4794 ;; Registers used:
  4795 ;;		wreg, status,2, status,0
  4796 ;; Tracked objects:
  4797 ;;		On entry : 0/0
  4798 ;;		On exit  : 0/0
  4799 ;;		Unchanged: 0/0
  4800 ;; Data sizes:     COMMON   BANK0   BANK1   BANK3   BANK2
  4801 ;;      Params:         2       0       0       0       0
  4802 ;;      Locals:         5       0       0       0       0
  4803 ;;      Temps:          2       0       0       0       0
  4804 ;;      Totals:         9       0       0       0       0
  4805 ;;Total ram usage:        9 bytes
  4806 ;; Hardware stack levels used: 1
  4807 ;; This function calls:
  4808 ;;		Nothing
  4809 ;; This function is called by:
  4810 ;;		___flmul
  4811 ;; This function uses a non-reentrant model
  4812 ;;
  4813                           
  4814  0000'                    __Umul8_16:	
  4815                           ;psect for function __Umul8_16
  4816                           
  4817                           
  4818                           ;incstack = 0
  4819                           ; Regs used in __Umul8_16: [wreg+status,2+status,0]
  4820                           ;__Umul8_16@multiplier stored from wreg
  4821  0000' 0088'              	movwf	__Umul8_16@multiplier
  4822  0001'                    l2309:
  4823  0001' 0184'              	clrf	__Umul8_16@product
  4824  0002' 0185'              	clrf	__Umul8_16@product+1
  4825  0003'                    l2311:
  4826  0003' 0800'              	movf	__Umul8_16@multiplicand,w
  4827  0004' 0082'              	movwf	??__Umul8_16
  4828  0005' 0183'              	clrf	??__Umul8_16+1
  4829  0006' 0802'              	movf	??__Umul8_16,w
  4830  0007' 0086'              	movwf	__Umul8_16@word_mpld
  4831  0008' 0803'              	movf	??__Umul8_16+1,w
  4832  0009' 0087'              	movwf	__Umul8_16@word_mpld+1
  4833  000A'                    l2313:
  4834  000A' 1C08'              	btfss	__Umul8_16@multiplier,0
  4835  000B' 2800'              	goto	u3241
  4836  000C' 2800'              	goto	u3240
  4837  000D'                    u3241:
  4838  000D' 2800'              	goto	l739
  4839  000E'                    u3240:
  4840  000E'                    l2315:
  4841  000E' 0806'              	movf	__Umul8_16@word_mpld,w
  4842  000F' 0784'              	addwf	__Umul8_16@product,f
  4843  0010' 1803               	skipnc
  4844  0011' 0A85'              	incf	__Umul8_16@product+1,f
  4845  0012' 0807'              	movf	__Umul8_16@word_mpld+1,w
  4846  0013' 0785'              	addwf	__Umul8_16@product+1,f
  4847  0014'                    l739:
  4848  0014' 3001               	movlw	1
  4849  0015'                    u3255:
  4850  0015' 1003               	clrc
  4851  0016' 0D86'              	rlf	__Umul8_16@word_mpld,f
  4852  0017' 0D87'              	rlf	__Umul8_16@word_mpld+1,f
  4853  0018' 3EFF               	addlw	-1
  4854  0019' 1D03               	skipz
  4855  001A' 2800'              	goto	u3255
  4856  001B' 1003               	clrc
  4857  001C' 0C88'              	rrf	__Umul8_16@multiplier,f
  4858  001D'                    l2317:
  4859  001D' 0808'              	movf	__Umul8_16@multiplier,w
  4860  001E' 1D03               	btfss	3,2
  4861  001F' 2800'              	goto	u3261
  4862  0020' 2800'              	goto	u3260
  4863  0021'                    u3261:
  4864  0021' 2800'              	goto	l2313
  4865  0022'                    u3260:
  4866  0022'                    l2319:
  4867  0022' 0805'              	movf	__Umul8_16@product+1,w
  4868  0023' 0081'              	movwf	?__Umul8_16+1
  4869  0024' 0804'              	movf	__Umul8_16@product,w
  4870  0025' 0080'              	movwf	?__Umul8_16
  4871  0026'                    l741:
  4872  0026' 0008               	return
  4873  0027'                    __end_of__Umul8_16:
  4874                           
  4875                           	psect	text10
  4876  0000'                    __ptext10:	
  4877 ;; *************** function __tdiv_to_l_ *****************
  4878 ;; Defined at:
  4879 ;;		line 60 in file "C:\Program Files\Microchip\xc8\v2.40\pic\sources\c90\common\ftdivl.c"
  4880 ;; Parameters:    Size  Location     Type
  4881 ;;  f1              4    0[COMMON] float 
  4882 ;;  f2              4    4[COMMON] float 
  4883 ;; Auto vars:     Size  Location     Type
  4884 ;;  quot            4    0[BANK0 ] unsigned long 
  4885 ;;  exp1            1    5[BANK0 ] unsigned char 
  4886 ;;  cntr            1    4[BANK0 ] unsigned char 
  4887 ;; Return value:  Size  Location     Type
  4888 ;;                  4    0[COMMON] unsigned long 
  4889 ;; Registers used:
  4890 ;;		wreg, status,2, status,0
  4891 ;; Tracked objects:
  4892 ;;		On entry : 0/0
  4893 ;;		On exit  : 0/0
  4894 ;;		Unchanged: 0/0
  4895 ;; Data sizes:     COMMON   BANK0   BANK1   BANK3   BANK2
  4896 ;;      Params:         8       0       0       0       0
  4897 ;;      Locals:         0       6       0       0       0
  4898 ;;      Temps:          3       0       0       0       0
  4899 ;;      Totals:        11       6       0       0       0
  4900 ;;Total ram usage:       17 bytes
  4901 ;; Hardware stack levels used: 1
  4902 ;; This function calls:
  4903 ;;		Nothing
  4904 ;; This function is called by:
  4905 ;;		_sprintf
  4906 ;; This function uses a non-reentrant model
  4907 ;;
  4908                           
  4909  0000'                    __tdiv_to_l_:	
  4910                           ;psect for function __tdiv_to_l_
  4911                           
  4912  0000'                    l2885:	
  4913                           ;incstack = 0
  4914                           ; Regs used in __tdiv_to_l_: [wreg+status,2+status,0]
  4915                           
  4916  0000' 0800'              	movf	__tdiv_to_l_@f1,w
  4917  0001' 0088'              	movwf	??__tdiv_to_l_
  4918  0002' 0801'              	movf	__tdiv_to_l_@f1+1,w
  4919  0003' 0089'              	movwf	??__tdiv_to_l_+1
  4920  0004' 0802'              	movf	__tdiv_to_l_@f1+2,w
  4921  0005' 008A'              	movwf	??__tdiv_to_l_+2
  4922  0006' 1003               	clrc
  4923  0007' 0D09'              	rlf	??__tdiv_to_l_+1,w
  4924  0008' 0D0A'              	rlf	??__tdiv_to_l_+2,w
  4925  0009' 1283               	bcf	3,5	;RP0=0, select bank0
  4926  000A' 1303               	bcf	3,6	;RP1=0, select bank0
  4927  000B' 0085'              	movwf	__tdiv_to_l_@exp1
  4928  000C' 0805'              	movf	__tdiv_to_l_@exp1,w
  4929  000D' 1D03               	btfss	3,2
  4930  000E' 2800'              	goto	u4721
  4931  000F' 2800'              	goto	u4720
  4932  0010'                    u4721:
  4933  0010' 2800'              	goto	l2891
  4934  0011'                    u4720:
  4935  0011'                    l2887:
  4936  0011' 3000               	movlw	0
  4937  0012' 0083'              	movwf	?__tdiv_to_l_+3
  4938  0013' 3000               	movlw	0
  4939  0014' 0082'              	movwf	?__tdiv_to_l_+2
  4940  0015' 3000               	movlw	0
  4941  0016' 0081'              	movwf	?__tdiv_to_l_+1
  4942  0017' 3000               	movlw	0
  4943  0018' 0080'              	movwf	?__tdiv_to_l_
  4944  0019' 2800'              	goto	l514
  4945  001A'                    l2891:
  4946  001A' 0804'              	movf	__tdiv_to_l_@f2,w
  4947  001B' 0088'              	movwf	??__tdiv_to_l_
  4948  001C' 0805'              	movf	__tdiv_to_l_@f2+1,w
  4949  001D' 0089'              	movwf	??__tdiv_to_l_+1
  4950  001E' 0806'              	movf	__tdiv_to_l_@f2+2,w
  4951  001F' 008A'              	movwf	??__tdiv_to_l_+2
  4952  0020' 1003               	clrc
  4953  0021' 0D09'              	rlf	??__tdiv_to_l_+1,w
  4954  0022' 0D0A'              	rlf	??__tdiv_to_l_+2,w
  4955  0023' 0084'              	movwf	__tdiv_to_l_@cntr
  4956  0024' 0804'              	movf	__tdiv_to_l_@cntr,w
  4957  0025' 1D03               	btfss	3,2
  4958  0026' 2800'              	goto	u4731
  4959  0027' 2800'              	goto	u4730
  4960  0028'                    u4731:
  4961  0028' 2800'              	goto	l515
  4962  0029'                    u4730:
  4963  0029' 2800'              	goto	l2887
  4964  002A'                    l515:
  4965  002A' 1781'              	bsf	__tdiv_to_l_@f1+1,7
  4966  002B'                    l2897:
  4967  002B' 30FF               	movlw	255
  4968  002C' 0580'              	andwf	__tdiv_to_l_@f1,f
  4969  002D' 30FF               	movlw	255
  4970  002E' 0581'              	andwf	__tdiv_to_l_@f1+1,f
  4971  002F' 3000               	movlw	0
  4972  0030' 0582'              	andwf	__tdiv_to_l_@f1+2,f
  4973  0031'                    l2899:
  4974  0031' 1785'              	bsf	__tdiv_to_l_@f2+1,7
  4975  0032' 30FF               	movlw	255
  4976  0033' 0584'              	andwf	__tdiv_to_l_@f2,f
  4977  0034' 30FF               	movlw	255
  4978  0035' 0585'              	andwf	__tdiv_to_l_@f2+1,f
  4979  0036' 3000               	movlw	0
  4980  0037' 0586'              	andwf	__tdiv_to_l_@f2+2,f
  4981  0038' 3000               	movlw	0
  4982  0039' 0083'              	movwf	__tdiv_to_l_@quot+3
  4983  003A' 3000               	movlw	0
  4984  003B' 0082'              	movwf	__tdiv_to_l_@quot+2
  4985  003C' 3000               	movlw	0
  4986  003D' 0081'              	movwf	__tdiv_to_l_@quot+1
  4987  003E' 3000               	movlw	0
  4988  003F' 0080'              	movwf	__tdiv_to_l_@quot
  4989  0040'                    l2901:
  4990  0040' 307F               	movlw	127
  4991  0041' 0285'              	subwf	__tdiv_to_l_@exp1,f
  4992  0042'                    l2903:
  4993  0042' 3098               	movlw	152
  4994  0043' 0704'              	addwf	__tdiv_to_l_@cntr,w
  4995  0044' 0088'              	movwf	??__tdiv_to_l_
  4996  0045' 0808'              	movf	??__tdiv_to_l_,w
  4997  0046' 0285'              	subwf	__tdiv_to_l_@exp1,f
  4998  0047' 3018               	movlw	24
  4999  0048' 0084'              	movwf	__tdiv_to_l_@cntr
  5000  0049'                    l2905:
  5001  0049' 3001               	movlw	1
  5002  004A' 0088'              	movwf	??__tdiv_to_l_
  5003  004B'                    u4745:
  5004  004B' 1003               	clrc
  5005  004C' 0D80'              	rlf	__tdiv_to_l_@quot,f
  5006  004D' 0D81'              	rlf	__tdiv_to_l_@quot+1,f
  5007  004E' 0D82'              	rlf	__tdiv_to_l_@quot+2,f
  5008  004F' 0D83'              	rlf	__tdiv_to_l_@quot+3,f
  5009  0050' 0B88'              	decfsz	??__tdiv_to_l_,f
  5010  0051' 2800'              	goto	u4745
  5011  0052'                    l2907:
  5012  0052' 0806'              	movf	__tdiv_to_l_@f2+2,w
  5013  0053' 0202'              	subwf	__tdiv_to_l_@f1+2,w
  5014  0054' 1D03               	skipz
  5015  0055' 2800'              	goto	u4755
  5016  0056' 0805'              	movf	__tdiv_to_l_@f2+1,w
  5017  0057' 0201'              	subwf	__tdiv_to_l_@f1+1,w
  5018  0058' 1D03               	skipz
  5019  0059' 2800'              	goto	u4755
  5020  005A' 0804'              	movf	__tdiv_to_l_@f2,w
  5021  005B' 0200'              	subwf	__tdiv_to_l_@f1,w
  5022  005C'                    u4755:
  5023  005C' 1C03               	skipc
  5024  005D' 2800'              	goto	u4751
  5025  005E' 2800'              	goto	u4750
  5026  005F'                    u4751:
  5027  005F' 2800'              	goto	l2913
  5028  0060'                    u4750:
  5029  0060'                    l2909:
  5030  0060' 0804'              	movf	__tdiv_to_l_@f2,w
  5031  0061' 0280'              	subwf	__tdiv_to_l_@f1,f
  5032  0062' 0805'              	movf	__tdiv_to_l_@f2+1,w
  5033  0063' 1C03               	skipc
  5034  0064' 0F05'              	incfsz	__tdiv_to_l_@f2+1,w
  5035  0065' 0281'              	subwf	__tdiv_to_l_@f1+1,f
  5036  0066' 0806'              	movf	__tdiv_to_l_@f2+2,w
  5037  0067' 1C03               	skipc
  5038  0068' 0A06'              	incf	__tdiv_to_l_@f2+2,w
  5039  0069' 0282'              	subwf	__tdiv_to_l_@f1+2,f
  5040  006A'                    l2911:
  5041  006A' 1400'              	bsf	__tdiv_to_l_@quot,0
  5042  006B'                    l2913:
  5043  006B' 3001               	movlw	1
  5044  006C'                    u4765:
  5045  006C' 1003               	clrc
  5046  006D' 0D80'              	rlf	__tdiv_to_l_@f1,f
  5047  006E' 0D81'              	rlf	__tdiv_to_l_@f1+1,f
  5048  006F' 0D82'              	rlf	__tdiv_to_l_@f1+2,f
  5049  0070' 3EFF               	addlw	-1
  5050  0071' 1D03               	skipz
  5051  0072' 2800'              	goto	u4765
  5052  0073'                    l2915:
  5053  0073' 3001               	movlw	1
  5054  0074' 0284'              	subwf	__tdiv_to_l_@cntr,f
  5055  0075' 1D03               	btfss	3,2
  5056  0076' 2800'              	goto	u4771
  5057  0077' 2800'              	goto	u4770
  5058  0078'                    u4771:
  5059  0078' 2800'              	goto	l2905
  5060  0079'                    u4770:
  5061  0079'                    l518:
  5062  0079' 1F85'              	btfss	__tdiv_to_l_@exp1,7
  5063  007A' 2800'              	goto	u4781
  5064  007B' 2800'              	goto	u4780
  5065  007C'                    u4781:
  5066  007C' 2800'              	goto	l2925
  5067  007D'                    u4780:
  5068  007D'                    l2917:
  5069  007D' 0805'              	movf	__tdiv_to_l_@exp1,w
  5070  007E' 3A80               	xorlw	128
  5071  007F' 3E97               	addlw	151
  5072  0080' 1803               	skipnc
  5073  0081' 2800'              	goto	u4791
  5074  0082' 2800'              	goto	u4790
  5075  0083'                    u4791:
  5076  0083' 2800'              	goto	l2923
  5077  0084'                    u4790:
  5078  0084' 2800'              	goto	l2887
  5079  0085'                    l2923:
  5080  0085' 3001               	movlw	1
  5081  0086'                    u4805:
  5082  0086' 1003               	clrc
  5083  0087' 0C83'              	rrf	__tdiv_to_l_@quot+3,f
  5084  0088' 0C82'              	rrf	__tdiv_to_l_@quot+2,f
  5085  0089' 0C81'              	rrf	__tdiv_to_l_@quot+1,f
  5086  008A' 0C80'              	rrf	__tdiv_to_l_@quot,f
  5087  008B' 3EFF               	addlw	-1
  5088  008C' 1D03               	skipz
  5089  008D' 2800'              	goto	u4805
  5090  008E' 3001               	movlw	1
  5091  008F' 0088'              	movwf	??__tdiv_to_l_
  5092  0090' 0808'              	movf	??__tdiv_to_l_,w
  5093  0091' 0785'              	addwf	__tdiv_to_l_@exp1,f
  5094  0092' 1D03               	btfss	3,2
  5095  0093' 2800'              	goto	u4811
  5096  0094' 2800'              	goto	u4810
  5097  0095'                    u4811:
  5098  0095' 2800'              	goto	l2923
  5099  0096'                    u4810:
  5100  0096' 2800'              	goto	l2933
  5101  0097'                    l2925:
  5102  0097' 3018               	movlw	24
  5103  0098' 0205'              	subwf	__tdiv_to_l_@exp1,w
  5104  0099' 1C03               	skipc
  5105  009A' 2800'              	goto	u4821
  5106  009B' 2800'              	goto	u4820
  5107  009C'                    u4821:
  5108  009C' 2800'              	goto	l525
  5109  009D'                    u4820:
  5110  009D' 2800'              	goto	l2887
  5111  009E'                    l2931:
  5112  009E' 3001               	movlw	1
  5113  009F' 0088'              	movwf	??__tdiv_to_l_
  5114  00A0'                    u4835:
  5115  00A0' 1003               	clrc
  5116  00A1' 0D80'              	rlf	__tdiv_to_l_@quot,f
  5117  00A2' 0D81'              	rlf	__tdiv_to_l_@quot+1,f
  5118  00A3' 0D82'              	rlf	__tdiv_to_l_@quot+2,f
  5119  00A4' 0D83'              	rlf	__tdiv_to_l_@quot+3,f
  5120  00A5' 0B88'              	decfsz	??__tdiv_to_l_,f
  5121  00A6' 2800'              	goto	u4835
  5122  00A7' 3001               	movlw	1
  5123  00A8' 0285'              	subwf	__tdiv_to_l_@exp1,f
  5124  00A9'                    l525:
  5125  00A9' 0805'              	movf	__tdiv_to_l_@exp1,w
  5126  00AA' 1D03               	btfss	3,2
  5127  00AB' 2800'              	goto	u4841
  5128  00AC' 2800'              	goto	u4840
  5129  00AD'                    u4841:
  5130  00AD' 2800'              	goto	l2931
  5131  00AE'                    u4840:
  5132  00AE'                    l2933:
  5133  00AE' 0803'              	movf	__tdiv_to_l_@quot+3,w
  5134  00AF' 0083'              	movwf	?__tdiv_to_l_+3
  5135  00B0' 0802'              	movf	__tdiv_to_l_@quot+2,w
  5136  00B1' 0082'              	movwf	?__tdiv_to_l_+2
  5137  00B2' 0801'              	movf	__tdiv_to_l_@quot+1,w
  5138  00B3' 0081'              	movwf	?__tdiv_to_l_+1
  5139  00B4' 0800'              	movf	__tdiv_to_l_@quot,w
  5140  00B5' 0080'              	movwf	?__tdiv_to_l_
  5141  00B6'                    l514:
  5142  00B6' 0008               	return
  5143  00B7'                    __end_of__tdiv_to_l_:
  5144                           
  5145                           	psect	text11
  5146  0000'                    __ptext11:	
  5147 ;; *************** function __div_to_l_ *****************
  5148 ;; Defined at:
  5149 ;;		line 60 in file "C:\Program Files\Microchip\xc8\v2.40\pic\sources\c90\common\fldivl.c"
  5150 ;; Parameters:    Size  Location     Type
  5151 ;;  f1              4    0[COMMON] unsigned long 
  5152 ;;  f2              4    4[COMMON] unsigned long 
  5153 ;; Auto vars:     Size  Location     Type
  5154 ;;  quot            4    0[BANK0 ] unsigned long 
  5155 ;;  exp1            1    5[BANK0 ] unsigned char 
  5156 ;;  cntr            1    4[BANK0 ] unsigned char 
  5157 ;; Return value:  Size  Location     Type
  5158 ;;                  4    0[COMMON] unsigned long 
  5159 ;; Registers used:
  5160 ;;		wreg, status,2, status,0
  5161 ;; Tracked objects:
  5162 ;;		On entry : 0/0
  5163 ;;		On exit  : 0/0
  5164 ;;		Unchanged: 0/0
  5165 ;; Data sizes:     COMMON   BANK0   BANK1   BANK3   BANK2
  5166 ;;      Params:         8       0       0       0       0
  5167 ;;      Locals:         0       6       0       0       0
  5168 ;;      Temps:          1       0       0       0       0
  5169 ;;      Totals:         9       6       0       0       0
  5170 ;;Total ram usage:       15 bytes
  5171 ;; Hardware stack levels used: 1
  5172 ;; This function calls:
  5173 ;;		Nothing
  5174 ;; This function is called by:
  5175 ;;		_sprintf
  5176 ;; This function uses a non-reentrant model
  5177 ;;
  5178                           
  5179  0000'                    __div_to_l_:	
  5180                           ;psect for function __div_to_l_
  5181                           
  5182  0000'                    l2937:	
  5183                           ;incstack = 0
  5184                           ; Regs used in __div_to_l_: [wreg+status,2+status,0]
  5185                           
  5186  0000' 1003               	clrc
  5187  0001' 0D02'              	rlf	__div_to_l_@f1+2,w
  5188  0002' 0D03'              	rlf	__div_to_l_@f1+3,w
  5189  0003' 1283               	bcf	3,5	;RP0=0, select bank0
  5190  0004' 1303               	bcf	3,6	;RP1=0, select bank0
  5191  0005' 0085'              	movwf	__div_to_l_@exp1
  5192  0006' 0805'              	movf	__div_to_l_@exp1,w
  5193  0007' 1D03               	btfss	3,2
  5194  0008' 2800'              	goto	u4851
  5195  0009' 2800'              	goto	u4850
  5196  000A'                    u4851:
  5197  000A' 2800'              	goto	l2943
  5198  000B'                    u4850:
  5199  000B'                    l2939:
  5200  000B' 3000               	movlw	0
  5201  000C' 0083'              	movwf	?__div_to_l_+3
  5202  000D' 3000               	movlw	0
  5203  000E' 0082'              	movwf	?__div_to_l_+2
  5204  000F' 3000               	movlw	0
  5205  0010' 0081'              	movwf	?__div_to_l_+1
  5206  0011' 3000               	movlw	0
  5207  0012' 0080'              	movwf	?__div_to_l_
  5208  0013' 2800'              	goto	l467
  5209  0014'                    l2943:
  5210  0014' 1003               	clrc
  5211  0015' 0D06'              	rlf	__div_to_l_@f2+2,w
  5212  0016' 0D07'              	rlf	__div_to_l_@f2+3,w
  5213  0017' 0084'              	movwf	__div_to_l_@cntr
  5214  0018' 0804'              	movf	__div_to_l_@cntr,w
  5215  0019' 1D03               	btfss	3,2
  5216  001A' 2800'              	goto	u4861
  5217  001B' 2800'              	goto	u4860
  5218  001C'                    u4861:
  5219  001C' 2800'              	goto	l468
  5220  001D'                    u4860:
  5221  001D' 2800'              	goto	l2939
  5222  001E'                    l468:
  5223  001E' 1782'              	bsf	__div_to_l_@f1+2,7
  5224  001F'                    l2949:
  5225  001F' 30FF               	movlw	255
  5226  0020' 0580'              	andwf	__div_to_l_@f1,f
  5227  0021' 30FF               	movlw	255
  5228  0022' 0581'              	andwf	__div_to_l_@f1+1,f
  5229  0023' 30FF               	movlw	255
  5230  0024' 0582'              	andwf	__div_to_l_@f1+2,f
  5231  0025' 3000               	movlw	0
  5232  0026' 0583'              	andwf	__div_to_l_@f1+3,f
  5233  0027'                    l2951:
  5234  0027' 1786'              	bsf	__div_to_l_@f2+2,7
  5235  0028' 30FF               	movlw	255
  5236  0029' 0584'              	andwf	__div_to_l_@f2,f
  5237  002A' 30FF               	movlw	255
  5238  002B' 0585'              	andwf	__div_to_l_@f2+1,f
  5239  002C' 30FF               	movlw	255
  5240  002D' 0586'              	andwf	__div_to_l_@f2+2,f
  5241  002E' 3000               	movlw	0
  5242  002F' 0587'              	andwf	__div_to_l_@f2+3,f
  5243  0030' 3000               	movlw	0
  5244  0031' 0083'              	movwf	__div_to_l_@quot+3
  5245  0032' 3000               	movlw	0
  5246  0033' 0082'              	movwf	__div_to_l_@quot+2
  5247  0034' 3000               	movlw	0
  5248  0035' 0081'              	movwf	__div_to_l_@quot+1
  5249  0036' 3000               	movlw	0
  5250  0037' 0080'              	movwf	__div_to_l_@quot
  5251  0038'                    l2953:
  5252  0038' 307F               	movlw	127
  5253  0039' 0285'              	subwf	__div_to_l_@exp1,f
  5254  003A'                    l2955:
  5255  003A' 30A0               	movlw	160
  5256  003B' 0704'              	addwf	__div_to_l_@cntr,w
  5257  003C' 0088'              	movwf	??__div_to_l_
  5258  003D' 0808'              	movf	??__div_to_l_,w
  5259  003E' 0285'              	subwf	__div_to_l_@exp1,f
  5260  003F' 3020               	movlw	32
  5261  0040' 0084'              	movwf	__div_to_l_@cntr
  5262  0041'                    l2957:
  5263  0041' 3001               	movlw	1
  5264  0042' 0088'              	movwf	??__div_to_l_
  5265  0043'                    u4875:
  5266  0043' 1003               	clrc
  5267  0044' 0D80'              	rlf	__div_to_l_@quot,f
  5268  0045' 0D81'              	rlf	__div_to_l_@quot+1,f
  5269  0046' 0D82'              	rlf	__div_to_l_@quot+2,f
  5270  0047' 0D83'              	rlf	__div_to_l_@quot+3,f
  5271  0048' 0B88'              	decfsz	??__div_to_l_,f
  5272  0049' 2800'              	goto	u4875
  5273  004A'                    l2959:
  5274  004A' 0807'              	movf	__div_to_l_@f2+3,w
  5275  004B' 0203'              	subwf	__div_to_l_@f1+3,w
  5276  004C' 1D03               	skipz
  5277  004D' 2800'              	goto	u4885
  5278  004E' 0806'              	movf	__div_to_l_@f2+2,w
  5279  004F' 0202'              	subwf	__div_to_l_@f1+2,w
  5280  0050' 1D03               	skipz
  5281  0051' 2800'              	goto	u4885
  5282  0052' 0805'              	movf	__div_to_l_@f2+1,w
  5283  0053' 0201'              	subwf	__div_to_l_@f1+1,w
  5284  0054' 1D03               	skipz
  5285  0055' 2800'              	goto	u4885
  5286  0056' 0804'              	movf	__div_to_l_@f2,w
  5287  0057' 0200'              	subwf	__div_to_l_@f1,w
  5288  0058'                    u4885:
  5289  0058' 1C03               	skipc
  5290  0059' 2800'              	goto	u4881
  5291  005A' 2800'              	goto	u4880
  5292  005B'                    u4881:
  5293  005B' 2800'              	goto	l2965
  5294  005C'                    u4880:
  5295  005C'                    l2961:
  5296  005C' 0804'              	movf	__div_to_l_@f2,w
  5297  005D' 0280'              	subwf	__div_to_l_@f1,f
  5298  005E' 0805'              	movf	__div_to_l_@f2+1,w
  5299  005F' 1C03               	skipc
  5300  0060' 0F05'              	incfsz	__div_to_l_@f2+1,w
  5301  0061' 0281'              	subwf	__div_to_l_@f1+1,f
  5302  0062' 0806'              	movf	__div_to_l_@f2+2,w
  5303  0063' 1C03               	skipc
  5304  0064' 0F06'              	incfsz	__div_to_l_@f2+2,w
  5305  0065' 0282'              	subwf	__div_to_l_@f1+2,f
  5306  0066' 0807'              	movf	__div_to_l_@f2+3,w
  5307  0067' 1C03               	skipc
  5308  0068' 0F07'              	incfsz	__div_to_l_@f2+3,w
  5309  0069' 0283'              	subwf	__div_to_l_@f1+3,f
  5310  006A'                    l2963:
  5311  006A' 1400'              	bsf	__div_to_l_@quot,0
  5312  006B'                    l2965:
  5313  006B' 3001               	movlw	1
  5314  006C' 0088'              	movwf	??__div_to_l_
  5315  006D'                    u4895:
  5316  006D' 1003               	clrc
  5317  006E' 0D80'              	rlf	__div_to_l_@f1,f
  5318  006F' 0D81'              	rlf	__div_to_l_@f1+1,f
  5319  0070' 0D82'              	rlf	__div_to_l_@f1+2,f
  5320  0071' 0D83'              	rlf	__div_to_l_@f1+3,f
  5321  0072' 0B88'              	decfsz	??__div_to_l_,f
  5322  0073' 2800'              	goto	u4895
  5323  0074'                    l2967:
  5324  0074' 3001               	movlw	1
  5325  0075' 0284'              	subwf	__div_to_l_@cntr,f
  5326  0076' 1D03               	btfss	3,2
  5327  0077' 2800'              	goto	u4901
  5328  0078' 2800'              	goto	u4900
  5329  0079'                    u4901:
  5330  0079' 2800'              	goto	l2957
  5331  007A'                    u4900:
  5332  007A'                    l471:
  5333  007A' 1F85'              	btfss	__div_to_l_@exp1,7
  5334  007B' 2800'              	goto	u4911
  5335  007C' 2800'              	goto	u4910
  5336  007D'                    u4911:
  5337  007D' 2800'              	goto	l2977
  5338  007E'                    u4910:
  5339  007E'                    l2969:
  5340  007E' 0805'              	movf	__div_to_l_@exp1,w
  5341  007F' 3A80               	xorlw	128
  5342  0080' 3E9F               	addlw	159
  5343  0081' 1803               	skipnc
  5344  0082' 2800'              	goto	u4921
  5345  0083' 2800'              	goto	u4920
  5346  0084'                    u4921:
  5347  0084' 2800'              	goto	l2975
  5348  0085'                    u4920:
  5349  0085' 2800'              	goto	l2939
  5350  0086'                    l2975:
  5351  0086' 3001               	movlw	1
  5352  0087'                    u4935:
  5353  0087' 1003               	clrc
  5354  0088' 0C83'              	rrf	__div_to_l_@quot+3,f
  5355  0089' 0C82'              	rrf	__div_to_l_@quot+2,f
  5356  008A' 0C81'              	rrf	__div_to_l_@quot+1,f
  5357  008B' 0C80'              	rrf	__div_to_l_@quot,f
  5358  008C' 3EFF               	addlw	-1
  5359  008D' 1D03               	skipz
  5360  008E' 2800'              	goto	u4935
  5361  008F' 3001               	movlw	1
  5362  0090' 0088'              	movwf	??__div_to_l_
  5363  0091' 0808'              	movf	??__div_to_l_,w
  5364  0092' 0785'              	addwf	__div_to_l_@exp1,f
  5365  0093' 1D03               	btfss	3,2
  5366  0094' 2800'              	goto	u4941
  5367  0095' 2800'              	goto	u4940
  5368  0096'                    u4941:
  5369  0096' 2800'              	goto	l2975
  5370  0097'                    u4940:
  5371  0097' 2800'              	goto	l2985
  5372  0098'                    l2977:
  5373  0098' 3020               	movlw	32
  5374  0099' 0205'              	subwf	__div_to_l_@exp1,w
  5375  009A' 1C03               	skipc
  5376  009B' 2800'              	goto	u4951
  5377  009C' 2800'              	goto	u4950
  5378  009D'                    u4951:
  5379  009D' 2800'              	goto	l478
  5380  009E'                    u4950:
  5381  009E' 2800'              	goto	l2939
  5382  009F'                    l2983:
  5383  009F' 3001               	movlw	1
  5384  00A0' 0088'              	movwf	??__div_to_l_
  5385  00A1'                    u4965:
  5386  00A1' 1003               	clrc
  5387  00A2' 0D80'              	rlf	__div_to_l_@quot,f
  5388  00A3' 0D81'              	rlf	__div_to_l_@quot+1,f
  5389  00A4' 0D82'              	rlf	__div_to_l_@quot+2,f
  5390  00A5' 0D83'              	rlf	__div_to_l_@quot+3,f
  5391  00A6' 0B88'              	decfsz	??__div_to_l_,f
  5392  00A7' 2800'              	goto	u4965
  5393  00A8' 3001               	movlw	1
  5394  00A9' 0285'              	subwf	__div_to_l_@exp1,f
  5395  00AA'                    l478:
  5396  00AA' 0805'              	movf	__div_to_l_@exp1,w
  5397  00AB' 1D03               	btfss	3,2
  5398  00AC' 2800'              	goto	u4971
  5399  00AD' 2800'              	goto	u4970
  5400  00AE'                    u4971:
  5401  00AE' 2800'              	goto	l2983
  5402  00AF'                    u4970:
  5403  00AF'                    l2985:
  5404  00AF' 0803'              	movf	__div_to_l_@quot+3,w
  5405  00B0' 0083'              	movwf	?__div_to_l_+3
  5406  00B1' 0802'              	movf	__div_to_l_@quot+2,w
  5407  00B2' 0082'              	movwf	?__div_to_l_+2
  5408  00B3' 0801'              	movf	__div_to_l_@quot+1,w
  5409  00B4' 0081'              	movwf	?__div_to_l_+1
  5410  00B5' 0800'              	movf	__div_to_l_@quot,w
  5411  00B6' 0080'              	movwf	?__div_to_l_
  5412  00B7'                    l467:
  5413  00B7' 0008               	return
  5414  00B8'                    __end_of__div_to_l_:
  5415                           
  5416                           	psect	text12
  5417  0000'                    __ptext12:	
  5418 ;; *************** function ___xxtofl *****************
  5419 ;; Defined at:
  5420 ;;		line 10 in file "C:\Program Files\Microchip\xc8\v2.40\pic\sources\c90\common\xxtofl.c"
  5421 ;; Parameters:    Size  Location     Type
  5422 ;;  sign            1    wreg     unsigned char 
  5423 ;;  val             4    0[BANK0 ] long 
  5424 ;; Auto vars:     Size  Location     Type
  5425 ;;  sign            1    8[BANK0 ] unsigned char 
  5426 ;;  arg             4   10[BANK0 ] unsigned long 
  5427 ;;  exp             1    9[BANK0 ] unsigned char 
  5428 ;; Return value:  Size  Location     Type
  5429 ;;                  4    0[BANK0 ] unsigned char 
  5430 ;; Registers used:
  5431 ;;		wreg, status,2, status,0
  5432 ;; Tracked objects:
  5433 ;;		On entry : 0/0
  5434 ;;		On exit  : 0/0
  5435 ;;		Unchanged: 0/0
  5436 ;; Data sizes:     COMMON   BANK0   BANK1   BANK3   BANK2
  5437 ;;      Params:         0       4       0       0       0
  5438 ;;      Locals:         0       6       0       0       0
  5439 ;;      Temps:          0       4       0       0       0
  5440 ;;      Totals:         0      14       0       0       0
  5441 ;;Total ram usage:       14 bytes
  5442 ;; Hardware stack levels used: 1
  5443 ;; This function calls:
  5444 ;;		Nothing
  5445 ;; This function is called by:
  5446 ;;		_main
  5447 ;;		_sprintf
  5448 ;; This function uses a non-reentrant model
  5449 ;;
  5450                           
  5451  0000'                    ___xxtofl:	
  5452                           ;psect for function ___xxtofl
  5453                           
  5454                           
  5455                           ;incstack = 0
  5456                           ; Regs used in ___xxtofl: [wreg+status,2+status,0]
  5457                           ;___xxtofl@sign stored from wreg
  5458  0000' 1283               	bcf	3,5	;RP0=0, select bank0
  5459  0001' 1303               	bcf	3,6	;RP1=0, select bank0
  5460  0002' 0088'              	movwf	___xxtofl@sign
  5461  0003'                    l3271:
  5462  0003' 0808'              	movf	___xxtofl@sign,w
  5463  0004' 1903               	btfsc	3,2
  5464  0005' 2800'              	goto	u5661
  5465  0006' 2800'              	goto	u5660
  5466  0007'                    u5661:
  5467  0007' 2800'              	goto	l3277
  5468  0008'                    u5660:
  5469  0008'                    l3273:
  5470  0008' 1F83'              	btfss	___xxtofl@val+3,7
  5471  0009' 2800'              	goto	u5671
  5472  000A' 2800'              	goto	u5670
  5473  000B'                    u5671:
  5474  000B' 2800'              	goto	l3277
  5475  000C'                    u5670:
  5476  000C'                    l3275:
  5477  000C' 0900'              	comf	___xxtofl@val,w
  5478  000D' 008A'              	movwf	___xxtofl@arg
  5479  000E' 0901'              	comf	___xxtofl@val+1,w
  5480  000F' 008B'              	movwf	___xxtofl@arg+1
  5481  0010' 0902'              	comf	___xxtofl@val+2,w
  5482  0011' 008C'              	movwf	___xxtofl@arg+2
  5483  0012' 0903'              	comf	___xxtofl@val+3,w
  5484  0013' 008D'              	movwf	___xxtofl@arg+3
  5485  0014' 0A8A'              	incf	___xxtofl@arg,f
  5486  0015' 1903               	skipnz
  5487  0016' 0A8B'              	incf	___xxtofl@arg+1,f
  5488  0017' 1903               	skipnz
  5489  0018' 0A8C'              	incf	___xxtofl@arg+2,f
  5490  0019' 1903               	skipnz
  5491  001A' 0A8D'              	incf	___xxtofl@arg+3,f
  5492  001B' 2800'              	goto	l764
  5493  001C'                    l3277:
  5494  001C' 0803'              	movf	___xxtofl@val+3,w
  5495  001D' 008D'              	movwf	___xxtofl@arg+3
  5496  001E' 0802'              	movf	___xxtofl@val+2,w
  5497  001F' 008C'              	movwf	___xxtofl@arg+2
  5498  0020' 0801'              	movf	___xxtofl@val+1,w
  5499  0021' 008B'              	movwf	___xxtofl@arg+1
  5500  0022' 0800'              	movf	___xxtofl@val,w
  5501  0023' 008A'              	movwf	___xxtofl@arg
  5502  0024'                    l764:
  5503  0024' 0803'              	movf	___xxtofl@val+3,w
  5504  0025' 0402'              	iorwf	___xxtofl@val+2,w
  5505  0026' 0401'              	iorwf	___xxtofl@val+1,w
  5506  0027' 0400'              	iorwf	___xxtofl@val,w
  5507  0028' 1D03               	skipz
  5508  0029' 2800'              	goto	u5681
  5509  002A' 2800'              	goto	u5680
  5510  002B'                    u5681:
  5511  002B' 2800'              	goto	l3283
  5512  002C'                    u5680:
  5513  002C'                    l3279:
  5514  002C' 3000               	movlw	0
  5515  002D' 0083'              	movwf	?___xxtofl+3
  5516  002E' 3000               	movlw	0
  5517  002F' 0082'              	movwf	?___xxtofl+2
  5518  0030' 3000               	movlw	0
  5519  0031' 0081'              	movwf	?___xxtofl+1
  5520  0032' 3000               	movlw	0
  5521  0033' 0080'              	movwf	?___xxtofl
  5522  0034' 2800'              	goto	l766
  5523  0035'                    l3283:
  5524  0035' 3096               	movlw	150
  5525  0036' 0089'              	movwf	___xxtofl@exp
  5526  0037' 2800'              	goto	l3287
  5527  0038'                    l3285:
  5528  0038' 3001               	movlw	1
  5529  0039' 0084'              	movwf	??___xxtofl
  5530  003A' 0804'              	movf	??___xxtofl,w
  5531  003B' 0789'              	addwf	___xxtofl@exp,f
  5532  003C' 3001               	movlw	1
  5533  003D'                    u5695:
  5534  003D' 1003               	clrc
  5535  003E' 0C8D'              	rrf	___xxtofl@arg+3,f
  5536  003F' 0C8C'              	rrf	___xxtofl@arg+2,f
  5537  0040' 0C8B'              	rrf	___xxtofl@arg+1,f
  5538  0041' 0C8A'              	rrf	___xxtofl@arg,f
  5539  0042' 3EFF               	addlw	-1
  5540  0043' 1D03               	skipz
  5541  0044' 2800'              	goto	u5695
  5542  0045'                    l3287:
  5543  0045' 30FE               	movlw	254
  5544  0046' 050D'              	andwf	___xxtofl@arg+3,w
  5545  0047' 1D03               	btfss	3,2
  5546  0048' 2800'              	goto	u5701
  5547  0049' 2800'              	goto	u5700
  5548  004A'                    u5701:
  5549  004A' 2800'              	goto	l3285
  5550  004B'                    u5700:
  5551  004B' 2800'              	goto	l770
  5552  004C'                    l3289:
  5553  004C' 3001               	movlw	1
  5554  004D' 0084'              	movwf	??___xxtofl
  5555  004E' 0804'              	movf	??___xxtofl,w
  5556  004F' 0789'              	addwf	___xxtofl@exp,f
  5557  0050'                    l3291:
  5558  0050' 3001               	movlw	1
  5559  0051' 078A'              	addwf	___xxtofl@arg,f
  5560  0052' 3000               	movlw	0
  5561  0053' 1803               	skipnc
  5562  0054' 3001               	movlw	1
  5563  0055' 078B'              	addwf	___xxtofl@arg+1,f
  5564  0056' 3000               	movlw	0
  5565  0057' 1803               	skipnc
  5566  0058' 3001               	movlw	1
  5567  0059' 078C'              	addwf	___xxtofl@arg+2,f
  5568  005A' 3000               	movlw	0
  5569  005B' 1803               	skipnc
  5570  005C' 3001               	movlw	1
  5571  005D' 078D'              	addwf	___xxtofl@arg+3,f
  5572  005E'                    l3293:
  5573  005E' 3001               	movlw	1
  5574  005F'                    u5715:
  5575  005F' 1003               	clrc
  5576  0060' 0C8D'              	rrf	___xxtofl@arg+3,f
  5577  0061' 0C8C'              	rrf	___xxtofl@arg+2,f
  5578  0062' 0C8B'              	rrf	___xxtofl@arg+1,f
  5579  0063' 0C8A'              	rrf	___xxtofl@arg,f
  5580  0064' 3EFF               	addlw	-1
  5581  0065' 1D03               	skipz
  5582  0066' 2800'              	goto	u5715
  5583  0067'                    l770:
  5584  0067' 30FF               	movlw	255
  5585  0068' 050D'              	andwf	___xxtofl@arg+3,w
  5586  0069' 1D03               	btfss	3,2
  5587  006A' 2800'              	goto	u5721
  5588  006B' 2800'              	goto	u5720
  5589  006C'                    u5721:
  5590  006C' 2800'              	goto	l3289
  5591  006D'                    u5720:
  5592  006D' 2800'              	goto	l3297
  5593  006E'                    l3295:
  5594  006E' 3001               	movlw	1
  5595  006F' 0289'              	subwf	___xxtofl@exp,f
  5596  0070' 3001               	movlw	1
  5597  0071' 0084'              	movwf	??___xxtofl
  5598  0072'                    u5735:
  5599  0072' 1003               	clrc
  5600  0073' 0D8A'              	rlf	___xxtofl@arg,f
  5601  0074' 0D8B'              	rlf	___xxtofl@arg+1,f
  5602  0075' 0D8C'              	rlf	___xxtofl@arg+2,f
  5603  0076' 0D8D'              	rlf	___xxtofl@arg+3,f
  5604  0077' 0B84'              	decfsz	??___xxtofl,f
  5605  0078' 2800'              	goto	u5735
  5606  0079'                    l3297:
  5607  0079' 1B8C'              	btfsc	___xxtofl@arg+2,7
  5608  007A' 2800'              	goto	u5741
  5609  007B' 2800'              	goto	u5740
  5610  007C'                    u5741:
  5611  007C' 2800'              	goto	l777
  5612  007D'                    u5740:
  5613  007D'                    l3299:
  5614  007D' 3002               	movlw	2
  5615  007E' 0209'              	subwf	___xxtofl@exp,w
  5616  007F' 1803               	skipnc
  5617  0080' 2800'              	goto	u5751
  5618  0081' 2800'              	goto	u5750
  5619  0082'                    u5751:
  5620  0082' 2800'              	goto	l3295
  5621  0083'                    u5750:
  5622  0083'                    l777:
  5623  0083' 1809'              	btfsc	___xxtofl@exp,0
  5624  0084' 2800'              	goto	u5761
  5625  0085' 2800'              	goto	u5760
  5626  0086'                    u5761:
  5627  0086' 2800'              	goto	l778
  5628  0087'                    u5760:
  5629  0087'                    l3301:
  5630  0087' 30FF               	movlw	255
  5631  0088' 058A'              	andwf	___xxtofl@arg,f
  5632  0089' 30FF               	movlw	255
  5633  008A' 058B'              	andwf	___xxtofl@arg+1,f
  5634  008B' 307F               	movlw	127
  5635  008C' 058C'              	andwf	___xxtofl@arg+2,f
  5636  008D' 30FF               	movlw	255
  5637  008E' 058D'              	andwf	___xxtofl@arg+3,f
  5638  008F'                    l778:
  5639  008F' 1003               	clrc
  5640  0090' 0C89'              	rrf	___xxtofl@exp,f
  5641  0091'                    l3303:
  5642  0091' 0809'              	movf	___xxtofl@exp,w
  5643  0092' 0084'              	movwf	??___xxtofl
  5644  0093' 0185'              	clrf	??___xxtofl+1
  5645  0094' 0186'              	clrf	??___xxtofl+2
  5646  0095' 0187'              	clrf	??___xxtofl+3
  5647  0096' 3018               	movlw	24
  5648  0097'                    u5775:
  5649  0097' 1003               	clrc
  5650  0098' 0D84'              	rlf	??___xxtofl,f
  5651  0099' 0D85'              	rlf	??___xxtofl+1,f
  5652  009A' 0D86'              	rlf	??___xxtofl+2,f
  5653  009B' 0D87'              	rlf	??___xxtofl+3,f
  5654  009C'                    u5770:
  5655  009C' 3EFF               	addlw	-1
  5656  009D' 1D03               	skipz
  5657  009E' 2800'              	goto	u5775
  5658  009F' 0804'              	movf	??___xxtofl,w
  5659  00A0' 048A'              	iorwf	___xxtofl@arg,f
  5660  00A1' 0805'              	movf	??___xxtofl+1,w
  5661  00A2' 048B'              	iorwf	___xxtofl@arg+1,f
  5662  00A3' 0806'              	movf	??___xxtofl+2,w
  5663  00A4' 048C'              	iorwf	___xxtofl@arg+2,f
  5664  00A5' 0807'              	movf	??___xxtofl+3,w
  5665  00A6' 048D'              	iorwf	___xxtofl@arg+3,f
  5666  00A7'                    l3305:
  5667  00A7' 0808'              	movf	___xxtofl@sign,w
  5668  00A8' 1903               	btfsc	3,2
  5669  00A9' 2800'              	goto	u5781
  5670  00AA' 2800'              	goto	u5780
  5671  00AB'                    u5781:
  5672  00AB' 2800'              	goto	l3311
  5673  00AC'                    u5780:
  5674  00AC'                    l3307:
  5675  00AC' 1F83'              	btfss	___xxtofl@val+3,7
  5676  00AD' 2800'              	goto	u5791
  5677  00AE' 2800'              	goto	u5790
  5678  00AF'                    u5791:
  5679  00AF' 2800'              	goto	l3311
  5680  00B0'                    u5790:
  5681  00B0'                    l3309:
  5682  00B0' 178D'              	bsf	___xxtofl@arg+3,7
  5683  00B1'                    l3311:
  5684  00B1' 080D'              	movf	___xxtofl@arg+3,w
  5685  00B2' 0083'              	movwf	?___xxtofl+3
  5686  00B3' 080C'              	movf	___xxtofl@arg+2,w
  5687  00B4' 0082'              	movwf	?___xxtofl+2
  5688  00B5' 080B'              	movf	___xxtofl@arg+1,w
  5689  00B6' 0081'              	movwf	?___xxtofl+1
  5690  00B7' 080A'              	movf	___xxtofl@arg,w
  5691  00B8' 0080'              	movwf	?___xxtofl
  5692  00B9'                    l766:
  5693  00B9' 0008               	return
  5694  00BA'                    __end_of___xxtofl:
  5695                           
  5696                           	psect	text13
  5697  0000'                    __ptext13:	
  5698 ;; *************** function ___wmul *****************
  5699 ;; Defined at:
  5700 ;;		line 15 in file "C:\Program Files\Microchip\xc8\v2.40\pic\sources\c90\common\Umul16.c"
  5701 ;; Parameters:    Size  Location     Type
  5702 ;;  multiplier      2    0[COMMON] unsigned int 
  5703 ;;  multiplicand    2    2[COMMON] unsigned int 
  5704 ;; Auto vars:     Size  Location     Type
  5705 ;;  product         2    4[COMMON] unsigned int 
  5706 ;; Return value:  Size  Location     Type
  5707 ;;                  2    0[COMMON] unsigned int 
  5708 ;; Registers used:
  5709 ;;		wreg, status,2, status,0
  5710 ;; Tracked objects:
  5711 ;;		On entry : 0/0
  5712 ;;		On exit  : 0/0
  5713 ;;		Unchanged: 0/0
  5714 ;; Data sizes:     COMMON   BANK0   BANK1   BANK3   BANK2
  5715 ;;      Params:         4       0       0       0       0
  5716 ;;      Locals:         2       0       0       0       0
  5717 ;;      Temps:          0       0       0       0       0
  5718 ;;      Totals:         6       0       0       0       0
  5719 ;;Total ram usage:        6 bytes
  5720 ;; Hardware stack levels used: 1
  5721 ;; This function calls:
  5722 ;;		Nothing
  5723 ;; This function is called by:
  5724 ;;		_sprintf
  5725 ;; This function uses a non-reentrant model
  5726 ;;
  5727                           
  5728  0000'                    ___wmul:	
  5729                           ;psect for function ___wmul
  5730                           
  5731  0000'                    l2989:	
  5732                           ;incstack = 0
  5733                           ; Regs used in ___wmul: [wreg+status,2+status,0]
  5734                           
  5735  0000' 0184'              	clrf	___wmul@product
  5736  0001' 0185'              	clrf	___wmul@product+1
  5737  0002'                    l2991:
  5738  0002' 1C00'              	btfss	___wmul@multiplier,0
  5739  0003' 2800'              	goto	u4981
  5740  0004' 2800'              	goto	u4980
  5741  0005'                    u4981:
  5742  0005' 2800'              	goto	l297
  5743  0006'                    u4980:
  5744  0006'                    l2993:
  5745  0006' 0802'              	movf	___wmul@multiplicand,w
  5746  0007' 0784'              	addwf	___wmul@product,f
  5747  0008' 1803               	skipnc
  5748  0009' 0A85'              	incf	___wmul@product+1,f
  5749  000A' 0803'              	movf	___wmul@multiplicand+1,w
  5750  000B' 0785'              	addwf	___wmul@product+1,f
  5751  000C'                    l297:
  5752  000C' 3001               	movlw	1
  5753  000D'                    u4995:
  5754  000D' 1003               	clrc
  5755  000E' 0D82'              	rlf	___wmul@multiplicand,f
  5756  000F' 0D83'              	rlf	___wmul@multiplicand+1,f
  5757  0010' 3EFF               	addlw	-1
  5758  0011' 1D03               	skipz
  5759  0012' 2800'              	goto	u4995
  5760  0013'                    l2995:
  5761  0013' 3001               	movlw	1
  5762  0014'                    u5005:
  5763  0014' 1003               	clrc
  5764  0015' 0C81'              	rrf	___wmul@multiplier+1,f
  5765  0016' 0C80'              	rrf	___wmul@multiplier,f
  5766  0017' 3EFF               	addlw	-1
  5767  0018' 1D03               	skipz
  5768  0019' 2800'              	goto	u5005
  5769  001A'                    l2997:
  5770  001A' 0800'              	movf	___wmul@multiplier,w
  5771  001B' 0401'              	iorwf	___wmul@multiplier+1,w
  5772  001C' 1D03               	btfss	3,2
  5773  001D' 2800'              	goto	u5011
  5774  001E' 2800'              	goto	u5010
  5775  001F'                    u5011:
  5776  001F' 2800'              	goto	l2991
  5777  0020'                    u5010:
  5778  0020'                    l2999:
  5779  0020' 0805'              	movf	___wmul@product+1,w
  5780  0021' 0081'              	movwf	?___wmul+1
  5781  0022' 0804'              	movf	___wmul@product,w
  5782  0023' 0080'              	movwf	?___wmul
  5783  0024'                    l299:
  5784  0024' 0008               	return
  5785  0025'                    __end_of___wmul:
  5786                           
  5787                           	psect	text14
  5788  0000'                    __ptext14:	
  5789 ;; *************** function ___llmod *****************
  5790 ;; Defined at:
  5791 ;;		line 5 in file "C:\Program Files\Microchip\xc8\v2.40\pic\sources\c90\common\llmod.c"
  5792 ;; Parameters:    Size  Location     Type
  5793 ;;  divisor         4    0[COMMON] unsigned long 
  5794 ;;  dividend        4    4[COMMON] unsigned long 
  5795 ;; Auto vars:     Size  Location     Type
  5796 ;;  counter         1    9[COMMON] unsigned char 
  5797 ;; Return value:  Size  Location     Type
  5798 ;;                  4    0[COMMON] unsigned long 
  5799 ;; Registers used:
  5800 ;;		wreg, status,2, status,0
  5801 ;; Tracked objects:
  5802 ;;		On entry : 0/0
  5803 ;;		On exit  : 0/0
  5804 ;;		Unchanged: 0/0
  5805 ;; Data sizes:     COMMON   BANK0   BANK1   BANK3   BANK2
  5806 ;;      Params:         8       0       0       0       0
  5807 ;;      Locals:         1       0       0       0       0
  5808 ;;      Temps:          1       0       0       0       0
  5809 ;;      Totals:        10       0       0       0       0
  5810 ;;Total ram usage:       10 bytes
  5811 ;; Hardware stack levels used: 1
  5812 ;; This function calls:
  5813 ;;		Nothing
  5814 ;; This function is called by:
  5815 ;;		_sprintf
  5816 ;; This function uses a non-reentrant model
  5817 ;;
  5818                           
  5819  0000'                    ___llmod:	
  5820                           ;psect for function ___llmod
  5821                           
  5822  0000'                    l3103:	
  5823                           ;incstack = 0
  5824                           ; Regs used in ___llmod: [wreg+status,2+status,0]
  5825                           
  5826  0000' 0803'              	movf	___llmod@divisor+3,w
  5827  0001' 0402'              	iorwf	___llmod@divisor+2,w
  5828  0002' 0401'              	iorwf	___llmod@divisor+1,w
  5829  0003' 0400'              	iorwf	___llmod@divisor,w
  5830  0004' 1903               	skipnz
  5831  0005' 2800'              	goto	u5301
  5832  0006' 2800'              	goto	u5300
  5833  0007'                    u5301:
  5834  0007' 2800'              	goto	l3119
  5835  0008'                    u5300:
  5836  0008'                    l3105:
  5837  0008' 0189'              	clrf	___llmod@counter
  5838  0009' 0A89'              	incf	___llmod@counter,f
  5839  000A' 2800'              	goto	l3109
  5840  000B'                    l3107:
  5841  000B' 3001               	movlw	1
  5842  000C' 0088'              	movwf	??___llmod
  5843  000D'                    u5315:
  5844  000D' 1003               	clrc
  5845  000E' 0D80'              	rlf	___llmod@divisor,f
  5846  000F' 0D81'              	rlf	___llmod@divisor+1,f
  5847  0010' 0D82'              	rlf	___llmod@divisor+2,f
  5848  0011' 0D83'              	rlf	___llmod@divisor+3,f
  5849  0012' 0B88'              	decfsz	??___llmod,f
  5850  0013' 2800'              	goto	u5315
  5851  0014' 3001               	movlw	1
  5852  0015' 0088'              	movwf	??___llmod
  5853  0016' 0808'              	movf	??___llmod,w
  5854  0017' 0789'              	addwf	___llmod@counter,f
  5855  0018'                    l3109:
  5856  0018' 1F83'              	btfss	___llmod@divisor+3,7
  5857  0019' 2800'              	goto	u5321
  5858  001A' 2800'              	goto	u5320
  5859  001B'                    u5321:
  5860  001B' 2800'              	goto	l3107
  5861  001C'                    u5320:
  5862  001C'                    l3111:
  5863  001C' 0803'              	movf	___llmod@divisor+3,w
  5864  001D' 0207'              	subwf	___llmod@dividend+3,w
  5865  001E' 1D03               	skipz
  5866  001F' 2800'              	goto	u5335
  5867  0020' 0802'              	movf	___llmod@divisor+2,w
  5868  0021' 0206'              	subwf	___llmod@dividend+2,w
  5869  0022' 1D03               	skipz
  5870  0023' 2800'              	goto	u5335
  5871  0024' 0801'              	movf	___llmod@divisor+1,w
  5872  0025' 0205'              	subwf	___llmod@dividend+1,w
  5873  0026' 1D03               	skipz
  5874  0027' 2800'              	goto	u5335
  5875  0028' 0800'              	movf	___llmod@divisor,w
  5876  0029' 0204'              	subwf	___llmod@dividend,w
  5877  002A'                    u5335:
  5878  002A' 1C03               	skipc
  5879  002B' 2800'              	goto	u5331
  5880  002C' 2800'              	goto	u5330
  5881  002D'                    u5331:
  5882  002D' 2800'              	goto	l3115
  5883  002E'                    u5330:
  5884  002E'                    l3113:
  5885  002E' 0800'              	movf	___llmod@divisor,w
  5886  002F' 0284'              	subwf	___llmod@dividend,f
  5887  0030' 0801'              	movf	___llmod@divisor+1,w
  5888  0031' 1C03               	skipc
  5889  0032' 0F01'              	incfsz	___llmod@divisor+1,w
  5890  0033' 0285'              	subwf	___llmod@dividend+1,f
  5891  0034' 0802'              	movf	___llmod@divisor+2,w
  5892  0035' 1C03               	skipc
  5893  0036' 0F02'              	incfsz	___llmod@divisor+2,w
  5894  0037' 0286'              	subwf	___llmod@dividend+2,f
  5895  0038' 0803'              	movf	___llmod@divisor+3,w
  5896  0039' 1C03               	skipc
  5897  003A' 0F03'              	incfsz	___llmod@divisor+3,w
  5898  003B' 0287'              	subwf	___llmod@dividend+3,f
  5899  003C'                    l3115:
  5900  003C' 3001               	movlw	1
  5901  003D'                    u5345:
  5902  003D' 1003               	clrc
  5903  003E' 0C83'              	rrf	___llmod@divisor+3,f
  5904  003F' 0C82'              	rrf	___llmod@divisor+2,f
  5905  0040' 0C81'              	rrf	___llmod@divisor+1,f
  5906  0041' 0C80'              	rrf	___llmod@divisor,f
  5907  0042' 3EFF               	addlw	-1
  5908  0043' 1D03               	skipz
  5909  0044' 2800'              	goto	u5345
  5910  0045'                    l3117:
  5911  0045' 3001               	movlw	1
  5912  0046' 0289'              	subwf	___llmod@counter,f
  5913  0047' 1D03               	btfss	3,2
  5914  0048' 2800'              	goto	u5351
  5915  0049' 2800'              	goto	u5350
  5916  004A'                    u5351:
  5917  004A' 2800'              	goto	l3111
  5918  004B'                    u5350:
  5919  004B'                    l3119:
  5920  004B' 0807'              	movf	___llmod@dividend+3,w
  5921  004C' 0083'              	movwf	?___llmod+3
  5922  004D' 0806'              	movf	___llmod@dividend+2,w
  5923  004E' 0082'              	movwf	?___llmod+2
  5924  004F' 0805'              	movf	___llmod@dividend+1,w
  5925  0050' 0081'              	movwf	?___llmod+1
  5926  0051' 0804'              	movf	___llmod@dividend,w
  5927  0052' 0080'              	movwf	?___llmod
  5928  0053'                    l553:
  5929  0053' 0008               	return
  5930  0054'                    __end_of___llmod:
  5931                           
  5932                           	psect	text15
  5933  0000'                    __ptext15:	
  5934 ;; *************** function ___lldiv *****************
  5935 ;; Defined at:
  5936 ;;		line 5 in file "C:\Program Files\Microchip\xc8\v2.40\pic\sources\c90\common\__lldiv.c"
  5937 ;; Parameters:    Size  Location     Type
  5938 ;;  divisor         4    0[COMMON] unsigned long 
  5939 ;;  dividend        4    4[COMMON] unsigned long 
  5940 ;; Auto vars:     Size  Location     Type
  5941 ;;  quotient        4    9[COMMON] unsigned long 
  5942 ;;  counter         1   13[COMMON] unsigned char 
  5943 ;; Return value:  Size  Location     Type
  5944 ;;                  4    0[COMMON] unsigned long 
  5945 ;; Registers used:
  5946 ;;		wreg, status,2, status,0
  5947 ;; Tracked objects:
  5948 ;;		On entry : 0/0
  5949 ;;		On exit  : 0/0
  5950 ;;		Unchanged: 0/0
  5951 ;; Data sizes:     COMMON   BANK0   BANK1   BANK3   BANK2
  5952 ;;      Params:         8       0       0       0       0
  5953 ;;      Locals:         5       0       0       0       0
  5954 ;;      Temps:          1       0       0       0       0
  5955 ;;      Totals:        14       0       0       0       0
  5956 ;;Total ram usage:       14 bytes
  5957 ;; Hardware stack levels used: 1
  5958 ;; This function calls:
  5959 ;;		Nothing
  5960 ;; This function is called by:
  5961 ;;		_sprintf
  5962 ;; This function uses a non-reentrant model
  5963 ;;
  5964                           
  5965  0000'                    ___lldiv:	
  5966                           ;psect for function ___lldiv
  5967                           
  5968  0000'                    l3003:	
  5969                           ;incstack = 0
  5970                           ; Regs used in ___lldiv: [wreg+status,2+status,0]
  5971                           
  5972  0000' 3000               	movlw	0
  5973  0001' 008C'              	movwf	___lldiv@quotient+3
  5974  0002' 3000               	movlw	0
  5975  0003' 008B'              	movwf	___lldiv@quotient+2
  5976  0004' 3000               	movlw	0
  5977  0005' 008A'              	movwf	___lldiv@quotient+1
  5978  0006' 3000               	movlw	0
  5979  0007' 0089'              	movwf	___lldiv@quotient
  5980  0008' 0803'              	movf	___lldiv@divisor+3,w
  5981  0009' 0402'              	iorwf	___lldiv@divisor+2,w
  5982  000A' 0401'              	iorwf	___lldiv@divisor+1,w
  5983  000B' 0400'              	iorwf	___lldiv@divisor,w
  5984  000C' 1903               	skipnz
  5985  000D' 2800'              	goto	u5021
  5986  000E' 2800'              	goto	u5020
  5987  000F'                    u5021:
  5988  000F' 2800'              	goto	l3023
  5989  0010'                    u5020:
  5990  0010'                    l3005:
  5991  0010' 018D'              	clrf	___lldiv@counter
  5992  0011' 0A8D'              	incf	___lldiv@counter,f
  5993  0012' 2800'              	goto	l3009
  5994  0013'                    l3007:
  5995  0013' 3001               	movlw	1
  5996  0014' 0088'              	movwf	??___lldiv
  5997  0015'                    u5035:
  5998  0015' 1003               	clrc
  5999  0016' 0D80'              	rlf	___lldiv@divisor,f
  6000  0017' 0D81'              	rlf	___lldiv@divisor+1,f
  6001  0018' 0D82'              	rlf	___lldiv@divisor+2,f
  6002  0019' 0D83'              	rlf	___lldiv@divisor+3,f
  6003  001A' 0B88'              	decfsz	??___lldiv,f
  6004  001B' 2800'              	goto	u5035
  6005  001C' 3001               	movlw	1
  6006  001D' 0088'              	movwf	??___lldiv
  6007  001E' 0808'              	movf	??___lldiv,w
  6008  001F' 078D'              	addwf	___lldiv@counter,f
  6009  0020'                    l3009:
  6010  0020' 1F83'              	btfss	___lldiv@divisor+3,7
  6011  0021' 2800'              	goto	u5041
  6012  0022' 2800'              	goto	u5040
  6013  0023'                    u5041:
  6014  0023' 2800'              	goto	l3007
  6015  0024'                    u5040:
  6016  0024'                    l3011:
  6017  0024' 3001               	movlw	1
  6018  0025' 0088'              	movwf	??___lldiv
  6019  0026'                    u5055:
  6020  0026' 1003               	clrc
  6021  0027' 0D89'              	rlf	___lldiv@quotient,f
  6022  0028' 0D8A'              	rlf	___lldiv@quotient+1,f
  6023  0029' 0D8B'              	rlf	___lldiv@quotient+2,f
  6024  002A' 0D8C'              	rlf	___lldiv@quotient+3,f
  6025  002B' 0B88'              	decfsz	??___lldiv,f
  6026  002C' 2800'              	goto	u5055
  6027  002D'                    l3013:
  6028  002D' 0803'              	movf	___lldiv@divisor+3,w
  6029  002E' 0207'              	subwf	___lldiv@dividend+3,w
  6030  002F' 1D03               	skipz
  6031  0030' 2800'              	goto	u5065
  6032  0031' 0802'              	movf	___lldiv@divisor+2,w
  6033  0032' 0206'              	subwf	___lldiv@dividend+2,w
  6034  0033' 1D03               	skipz
  6035  0034' 2800'              	goto	u5065
  6036  0035' 0801'              	movf	___lldiv@divisor+1,w
  6037  0036' 0205'              	subwf	___lldiv@dividend+1,w
  6038  0037' 1D03               	skipz
  6039  0038' 2800'              	goto	u5065
  6040  0039' 0800'              	movf	___lldiv@divisor,w
  6041  003A' 0204'              	subwf	___lldiv@dividend,w
  6042  003B'                    u5065:
  6043  003B' 1C03               	skipc
  6044  003C' 2800'              	goto	u5061
  6045  003D' 2800'              	goto	u5060
  6046  003E'                    u5061:
  6047  003E' 2800'              	goto	l3019
  6048  003F'                    u5060:
  6049  003F'                    l3015:
  6050  003F' 0800'              	movf	___lldiv@divisor,w
  6051  0040' 0284'              	subwf	___lldiv@dividend,f
  6052  0041' 0801'              	movf	___lldiv@divisor+1,w
  6053  0042' 1C03               	skipc
  6054  0043' 0F01'              	incfsz	___lldiv@divisor+1,w
  6055  0044' 0285'              	subwf	___lldiv@dividend+1,f
  6056  0045' 0802'              	movf	___lldiv@divisor+2,w
  6057  0046' 1C03               	skipc
  6058  0047' 0F02'              	incfsz	___lldiv@divisor+2,w
  6059  0048' 0286'              	subwf	___lldiv@dividend+2,f
  6060  0049' 0803'              	movf	___lldiv@divisor+3,w
  6061  004A' 1C03               	skipc
  6062  004B' 0F03'              	incfsz	___lldiv@divisor+3,w
  6063  004C' 0287'              	subwf	___lldiv@dividend+3,f
  6064  004D'                    l3017:
  6065  004D' 1409'              	bsf	___lldiv@quotient,0
  6066  004E'                    l3019:
  6067  004E' 3001               	movlw	1
  6068  004F'                    u5075:
  6069  004F' 1003               	clrc
  6070  0050' 0C83'              	rrf	___lldiv@divisor+3,f
  6071  0051' 0C82'              	rrf	___lldiv@divisor+2,f
  6072  0052' 0C81'              	rrf	___lldiv@divisor+1,f
  6073  0053' 0C80'              	rrf	___lldiv@divisor,f
  6074  0054' 3EFF               	addlw	-1
  6075  0055' 1D03               	skipz
  6076  0056' 2800'              	goto	u5075
  6077  0057'                    l3021:
  6078  0057' 3001               	movlw	1
  6079  0058' 028D'              	subwf	___lldiv@counter,f
  6080  0059' 1D03               	btfss	3,2
  6081  005A' 2800'              	goto	u5081
  6082  005B' 2800'              	goto	u5080
  6083  005C'                    u5081:
  6084  005C' 2800'              	goto	l3011
  6085  005D'                    u5080:
  6086  005D'                    l3023:
  6087  005D' 080C'              	movf	___lldiv@quotient+3,w
  6088  005E' 0083'              	movwf	?___lldiv+3
  6089  005F' 080B'              	movf	___lldiv@quotient+2,w
  6090  0060' 0082'              	movwf	?___lldiv+2
  6091  0061' 080A'              	movf	___lldiv@quotient+1,w
  6092  0062' 0081'              	movwf	?___lldiv+1
  6093  0063' 0809'              	movf	___lldiv@quotient,w
  6094  0064' 0080'              	movwf	?___lldiv
  6095  0065'                    l333:
  6096  0065' 0008               	return
  6097  0066'                    __end_of___lldiv:
  6098                           
  6099                           	psect	text16
  6100  0000'                    __ptext16:	
  6101 ;; *************** function ___fltol *****************
  6102 ;; Defined at:
  6103 ;;		line 43 in file "C:\Program Files\Microchip\xc8\v2.40\pic\sources\c90\common\fltol.c"
  6104 ;; Parameters:    Size  Location     Type
  6105 ;;  f1              4   59[BANK0 ] unsigned long 
  6106 ;; Auto vars:     Size  Location     Type
  6107 ;;  exp1            1   68[BANK0 ] unsigned char 
  6108 ;;  sign1           1   67[BANK0 ] unsigned char 
  6109 ;; Return value:  Size  Location     Type
  6110 ;;                  4   59[BANK0 ] long 
  6111 ;; Registers used:
  6112 ;;		wreg, status,2, status,0
  6113 ;; Tracked objects:
  6114 ;;		On entry : 0/0
  6115 ;;		On exit  : 0/0
  6116 ;;		Unchanged: 0/0
  6117 ;; Data sizes:     COMMON   BANK0   BANK1   BANK3   BANK2
  6118 ;;      Params:         0       4       0       0       0
  6119 ;;      Locals:         0       2       0       0       0
  6120 ;;      Temps:          0       4       0       0       0
  6121 ;;      Totals:         0      10       0       0       0
  6122 ;;Total ram usage:       10 bytes
  6123 ;; Hardware stack levels used: 1
  6124 ;; This function calls:
  6125 ;;		Nothing
  6126 ;; This function is called by:
  6127 ;;		_main
  6128 ;;		_sprintf
  6129 ;; This function uses a non-reentrant model
  6130 ;;
  6131                           
  6132  0000'                    ___fltol:	
  6133                           ;psect for function ___fltol
  6134                           
  6135  0000'                    l3067:	
  6136                           ;incstack = 0
  6137                           ; Regs used in ___fltol: [wreg+status,2+status,0]
  6138                           
  6139  0000' 1003               	clrc
  6140  0001' 1283               	bcf	3,5	;RP0=0, select bank0
  6141  0002' 1303               	bcf	3,6	;RP1=0, select bank0
  6142  0003' 0D3D'              	rlf	___fltol@f1+2,w
  6143  0004' 0D3E'              	rlf	___fltol@f1+3,w
  6144  0005' 00C4'              	movwf	___fltol@exp1
  6145  0006' 0844'              	movf	___fltol@exp1,w
  6146  0007' 1D03               	btfss	3,2
  6147  0008' 2800'              	goto	u5201
  6148  0009' 2800'              	goto	u5200
  6149  000A'                    u5201:
  6150  000A' 2800'              	goto	l3073
  6151  000B'                    u5200:
  6152  000B'                    l3069:
  6153  000B' 3000               	movlw	0
  6154  000C' 00BE'              	movwf	?___fltol+3
  6155  000D' 3000               	movlw	0
  6156  000E' 00BD'              	movwf	?___fltol+2
  6157  000F' 3000               	movlw	0
  6158  0010' 00BC'              	movwf	?___fltol+1
  6159  0011' 3000               	movlw	0
  6160  0012' 00BB'              	movwf	?___fltol
  6161  0013' 2800'              	goto	l500
  6162  0014'                    l3073:
  6163  0014' 083B'              	movf	___fltol@f1,w
  6164  0015' 00BF'              	movwf	??___fltol
  6165  0016' 083C'              	movf	___fltol@f1+1,w
  6166  0017' 00C0'              	movwf	??___fltol+1
  6167  0018' 083D'              	movf	___fltol@f1+2,w
  6168  0019' 00C1'              	movwf	??___fltol+2
  6169  001A' 083E'              	movf	___fltol@f1+3,w
  6170  001B' 00C2'              	movwf	??___fltol+3
  6171  001C' 301F               	movlw	31
  6172  001D'                    u5215:
  6173  001D' 1003               	clrc
  6174  001E' 0CC2'              	rrf	??___fltol+3,f
  6175  001F' 0CC1'              	rrf	??___fltol+2,f
  6176  0020' 0CC0'              	rrf	??___fltol+1,f
  6177  0021' 0CBF'              	rrf	??___fltol,f
  6178  0022'                    u5210:
  6179  0022' 3EFF               	addlw	-1
  6180  0023' 1D03               	skipz
  6181  0024' 2800'              	goto	u5215
  6182  0025' 083F'              	movf	??___fltol,w
  6183  0026' 00C3'              	movwf	___fltol@sign1
  6184  0027'                    l3075:
  6185  0027' 17BD'              	bsf	___fltol@f1+2,7
  6186  0028'                    l3077:
  6187  0028' 30FF               	movlw	255
  6188  0029' 05BB'              	andwf	___fltol@f1,f
  6189  002A' 30FF               	movlw	255
  6190  002B' 05BC'              	andwf	___fltol@f1+1,f
  6191  002C' 30FF               	movlw	255
  6192  002D' 05BD'              	andwf	___fltol@f1+2,f
  6193  002E' 3000               	movlw	0
  6194  002F' 05BE'              	andwf	___fltol@f1+3,f
  6195  0030'                    l3079:
  6196  0030' 3096               	movlw	150
  6197  0031' 02C4'              	subwf	___fltol@exp1,f
  6198  0032'                    l3081:
  6199  0032' 1FC4'              	btfss	___fltol@exp1,7
  6200  0033' 2800'              	goto	u5221
  6201  0034' 2800'              	goto	u5220
  6202  0035'                    u5221:
  6203  0035' 2800'              	goto	l3091
  6204  0036'                    u5220:
  6205  0036'                    l3083:
  6206  0036' 0844'              	movf	___fltol@exp1,w
  6207  0037' 3A80               	xorlw	128
  6208  0038' 3E97               	addlw	151
  6209  0039' 1803               	skipnc
  6210  003A' 2800'              	goto	u5231
  6211  003B' 2800'              	goto	u5230
  6212  003C'                    u5231:
  6213  003C' 2800'              	goto	l3089
  6214  003D'                    u5230:
  6215  003D' 2800'              	goto	l3069
  6216  003E'                    l3089:
  6217  003E' 3001               	movlw	1
  6218  003F'                    u5245:
  6219  003F' 1003               	clrc
  6220  0040' 0CBE'              	rrf	___fltol@f1+3,f
  6221  0041' 0CBD'              	rrf	___fltol@f1+2,f
  6222  0042' 0CBC'              	rrf	___fltol@f1+1,f
  6223  0043' 0CBB'              	rrf	___fltol@f1,f
  6224  0044' 3EFF               	addlw	-1
  6225  0045' 1D03               	skipz
  6226  0046' 2800'              	goto	u5245
  6227  0047' 3001               	movlw	1
  6228  0048' 00BF'              	movwf	??___fltol
  6229  0049' 083F'              	movf	??___fltol,w
  6230  004A' 07C4'              	addwf	___fltol@exp1,f
  6231  004B' 1D03               	btfss	3,2
  6232  004C' 2800'              	goto	u5251
  6233  004D' 2800'              	goto	u5250
  6234  004E'                    u5251:
  6235  004E' 2800'              	goto	l3089
  6236  004F'                    u5250:
  6237  004F' 2800'              	goto	l3099
  6238  0050'                    l3091:
  6239  0050' 3020               	movlw	32
  6240  0051' 0244'              	subwf	___fltol@exp1,w
  6241  0052' 1C03               	skipc
  6242  0053' 2800'              	goto	u5261
  6243  0054' 2800'              	goto	u5260
  6244  0055'                    u5261:
  6245  0055' 2800'              	goto	l507
  6246  0056'                    u5260:
  6247  0056' 2800'              	goto	l3069
  6248  0057'                    l3097:
  6249  0057' 3001               	movlw	1
  6250  0058' 00BF'              	movwf	??___fltol
  6251  0059'                    u5275:
  6252  0059' 1003               	clrc
  6253  005A' 0DBB'              	rlf	___fltol@f1,f
  6254  005B' 0DBC'              	rlf	___fltol@f1+1,f
  6255  005C' 0DBD'              	rlf	___fltol@f1+2,f
  6256  005D' 0DBE'              	rlf	___fltol@f1+3,f
  6257  005E' 0BBF'              	decfsz	??___fltol,f
  6258  005F' 2800'              	goto	u5275
  6259  0060' 3001               	movlw	1
  6260  0061' 02C4'              	subwf	___fltol@exp1,f
  6261  0062'                    l507:
  6262  0062' 0844'              	movf	___fltol@exp1,w
  6263  0063' 1D03               	btfss	3,2
  6264  0064' 2800'              	goto	u5281
  6265  0065' 2800'              	goto	u5280
  6266  0066'                    u5281:
  6267  0066' 2800'              	goto	l3097
  6268  0067'                    u5280:
  6269  0067'                    l3099:
  6270  0067' 0843'              	movf	___fltol@sign1,w
  6271  0068' 1903               	btfsc	3,2
  6272  0069' 2800'              	goto	u5291
  6273  006A' 2800'              	goto	u5290
  6274  006B'                    u5291:
  6275  006B' 2800'              	goto	l510
  6276  006C'                    u5290:
  6277  006C'                    l3101:
  6278  006C' 09BB'              	comf	___fltol@f1,f
  6279  006D' 09BC'              	comf	___fltol@f1+1,f
  6280  006E' 09BD'              	comf	___fltol@f1+2,f
  6281  006F' 09BE'              	comf	___fltol@f1+3,f
  6282  0070' 0ABB'              	incf	___fltol@f1,f
  6283  0071' 1903               	skipnz
  6284  0072' 0ABC'              	incf	___fltol@f1+1,f
  6285  0073' 1903               	skipnz
  6286  0074' 0ABD'              	incf	___fltol@f1+2,f
  6287  0075' 1903               	skipnz
  6288  0076' 0ABE'              	incf	___fltol@f1+3,f
  6289  0077'                    l510:
  6290  0077'                    l500:
  6291  0077' 0008               	return
  6292  0078'                    __end_of___fltol:
  6293                           
  6294                           	psect	text17
  6295  0000'                    __ptext17:	
  6296 ;; *************** function ___flsub *****************
  6297 ;; Defined at:
  6298 ;;		line 242 in file "C:\Program Files\Microchip\xc8\v2.40\pic\sources\c90\common\sprcadd.c"
  6299 ;; Parameters:    Size  Location     Type
  6300 ;;  a               4    0[BANK1 ] long 
  6301 ;;  b               4    4[BANK1 ] long 
  6302 ;; Auto vars:     Size  Location     Type
  6303 ;;		None
  6304 ;; Return value:  Size  Location     Type
  6305 ;;                  4    0[BANK1 ] long 
  6306 ;; Registers used:
  6307 ;;		wreg, status,2, status,0, btemp+1, pclath, cstack
  6308 ;; Tracked objects:
  6309 ;;		On entry : 0/0
  6310 ;;		On exit  : 0/0
  6311 ;;		Unchanged: 0/0
  6312 ;; Data sizes:     COMMON   BANK0   BANK1   BANK3   BANK2
  6313 ;;      Params:         0       0       8       0       0
  6314 ;;      Locals:         0       0       0       0       0
  6315 ;;      Temps:          0       0       0       0       0
  6316 ;;      Totals:         0       0       8       0       0
  6317 ;;Total ram usage:        8 bytes
  6318 ;; Hardware stack levels used: 1
  6319 ;; Hardware stack levels required when called: 1
  6320 ;; This function calls:
  6321 ;;		___fladd
  6322 ;; This function is called by:
  6323 ;;		_sprintf
  6324 ;; This function uses a non-reentrant model
  6325 ;;
  6326                           
  6327  0000'                    ___flsub:	
  6328                           ;psect for function ___flsub
  6329                           
  6330  0000'                    l3123:	
  6331                           ;incstack = 0
  6332                           ; Regs used in ___flsub: [wreg+status,2+status,0+btemp+1+pclath+cstack]
  6333                           
  6334  0000' 3080               	movlw	128
  6335  0001' 1683               	bsf	3,5	;RP0=1, select bank1
  6336  0002' 1303               	bcf	3,6	;RP1=0, select bank1
  6337  0003' 0680'              	xorwf	(___flsub@a+3)^(0+128),f
  6338  0004'                    l3125:
  6339  0004' 0800'              	movf	(___flsub@b+3)^(0+128),w
  6340  0005' 1283               	bcf	3,5	;RP0=0, select bank0
  6341  0006' 1303               	bcf	3,6	;RP1=0, select bank0
  6342  0007' 00BF'              	movwf	___fladd@b+3
  6343  0008' 1683               	bsf	3,5	;RP0=1, select bank1
  6344  0009' 1303               	bcf	3,6	;RP1=0, select bank1
  6345  000A' 0800'              	movf	(___flsub@b+2)^(0+128),w
  6346  000B' 1283               	bcf	3,5	;RP0=0, select bank0
  6347  000C' 1303               	bcf	3,6	;RP1=0, select bank0
  6348  000D' 00BE'              	movwf	___fladd@b+2
  6349  000E' 1683               	bsf	3,5	;RP0=1, select bank1
  6350  000F' 1303               	bcf	3,6	;RP1=0, select bank1
  6351  0010' 0800'              	movf	(___flsub@b+1)^(0+128),w
  6352  0011' 1283               	bcf	3,5	;RP0=0, select bank0
  6353  0012' 1303               	bcf	3,6	;RP1=0, select bank0
  6354  0013' 00BD'              	movwf	___fladd@b+1
  6355  0014' 1683               	bsf	3,5	;RP0=1, select bank1
  6356  0015' 1303               	bcf	3,6	;RP1=0, select bank1
  6357  0016' 0800'              	movf	___flsub@b^(0+128),w
  6358  0017' 1283               	bcf	3,5	;RP0=0, select bank0
  6359  0018' 1303               	bcf	3,6	;RP1=0, select bank0
  6360  0019' 00BC'              	movwf	___fladd@b
  6361  001A' 1683               	bsf	3,5	;RP0=1, select bank1
  6362  001B' 1303               	bcf	3,6	;RP1=0, select bank1
  6363  001C' 0800'              	movf	(___flsub@a+3)^(0+128),w
  6364  001D' 1283               	bcf	3,5	;RP0=0, select bank0
  6365  001E' 1303               	bcf	3,6	;RP1=0, select bank0
  6366  001F' 00C3'              	movwf	___fladd@a+3
  6367  0020' 1683               	bsf	3,5	;RP0=1, select bank1
  6368  0021' 1303               	bcf	3,6	;RP1=0, select bank1
  6369  0022' 0800'              	movf	(___flsub@a+2)^(0+128),w
  6370  0023' 1283               	bcf	3,5	;RP0=0, select bank0
  6371  0024' 1303               	bcf	3,6	;RP1=0, select bank0
  6372  0025' 00C2'              	movwf	___fladd@a+2
  6373  0026' 1683               	bsf	3,5	;RP0=1, select bank1
  6374  0027' 1303               	bcf	3,6	;RP1=0, select bank1
  6375  0028' 0800'              	movf	(___flsub@a+1)^(0+128),w
  6376  0029' 1283               	bcf	3,5	;RP0=0, select bank0
  6377  002A' 1303               	bcf	3,6	;RP1=0, select bank0
  6378  002B' 00C1'              	movwf	___fladd@a+1
  6379  002C' 1683               	bsf	3,5	;RP0=1, select bank1
  6380  002D' 1303               	bcf	3,6	;RP1=0, select bank1
  6381  002E' 0800'              	movf	___flsub@a^(0+128),w
  6382  002F' 1283               	bcf	3,5	;RP0=0, select bank0
  6383  0030' 1303               	bcf	3,6	;RP1=0, select bank0
  6384  0031' 00C0'              	movwf	___fladd@a
  6385  0032' 120A' 118A' 2000' 120A' 118A' 	fcall	___fladd
  6386  0037' 1283               	bcf	3,5	;RP0=0, select bank0
  6387  0038' 1303               	bcf	3,6	;RP1=0, select bank0
  6388  0039' 083F'              	movf	?___fladd+3,w
  6389  003A' 1683               	bsf	3,5	;RP0=1, select bank1
  6390  003B' 1303               	bcf	3,6	;RP1=0, select bank1
  6391  003C' 0080'              	movwf	(?___flsub+3)^(0+128)
  6392  003D' 1283               	bcf	3,5	;RP0=0, select bank0
  6393  003E' 1303               	bcf	3,6	;RP1=0, select bank0
  6394  003F' 083E'              	movf	?___fladd+2,w
  6395  0040' 1683               	bsf	3,5	;RP0=1, select bank1
  6396  0041' 1303               	bcf	3,6	;RP1=0, select bank1
  6397  0042' 0080'              	movwf	(?___flsub+2)^(0+128)
  6398  0043' 1283               	bcf	3,5	;RP0=0, select bank0
  6399  0044' 1303               	bcf	3,6	;RP1=0, select bank0
  6400  0045' 083D'              	movf	?___fladd+1,w
  6401  0046' 1683               	bsf	3,5	;RP0=1, select bank1
  6402  0047' 1303               	bcf	3,6	;RP1=0, select bank1
  6403  0048' 0080'              	movwf	(?___flsub+1)^(0+128)
  6404  0049' 1283               	bcf	3,5	;RP0=0, select bank0
  6405  004A' 1303               	bcf	3,6	;RP1=0, select bank0
  6406  004B' 083C'              	movf	?___fladd,w
  6407  004C' 1683               	bsf	3,5	;RP0=1, select bank1
  6408  004D' 1303               	bcf	3,6	;RP1=0, select bank1
  6409  004E' 0080'              	movwf	?___flsub^(0+128)
  6410  004F'                    l670:
  6411  004F' 0008               	return
  6412  0050'                    __end_of___flsub:
  6413                           
  6414                           	psect	text18
  6415  0000'                    __ptext18:	
  6416 ;; *************** function ___fladd *****************
  6417 ;; Defined at:
  6418 ;;		line 10 in file "C:\Program Files\Microchip\xc8\v2.40\pic\sources\c90\common\sprcadd.c"
  6419 ;; Parameters:    Size  Location     Type
  6420 ;;  b               4   60[BANK0 ] long 
  6421 ;;  a               4   64[BANK0 ] long 
  6422 ;; Auto vars:     Size  Location     Type
  6423 ;;  grs             1   79[BANK0 ] unsigned char 
  6424 ;;  bexp            1   78[BANK0 ] unsigned char 
  6425 ;;  aexp            1   77[BANK0 ] unsigned char 
  6426 ;;  signs           1   76[BANK0 ] unsigned char 
  6427 ;; Return value:  Size  Location     Type
  6428 ;;                  4   60[BANK0 ] unsigned char 
  6429 ;; Registers used:
  6430 ;;		wreg, status,2, status,0, btemp+1
  6431 ;; Tracked objects:
  6432 ;;		On entry : 0/0
  6433 ;;		On exit  : 0/0
  6434 ;;		Unchanged: 0/0
  6435 ;; Data sizes:     COMMON   BANK0   BANK1   BANK3   BANK2
  6436 ;;      Params:         0       8       0       0       0
  6437 ;;      Locals:         0       4       0       0       0
  6438 ;;      Temps:          0       8       0       0       0
  6439 ;;      Totals:         0      20       0       0       0
  6440 ;;Total ram usage:       20 bytes
  6441 ;; Hardware stack levels used: 1
  6442 ;; This function calls:
  6443 ;;		Nothing
  6444 ;; This function is called by:
  6445 ;;		_sprintf
  6446 ;;		___flsub
  6447 ;; This function uses a non-reentrant model
  6448 ;;
  6449                           
  6450  0000'                    ___fladd:	
  6451                           ;psect for function ___fladd
  6452                           
  6453  0000'                    l2463:	
  6454                           ;incstack = 0
  6455                           ; Regs used in ___fladd: [wreg+status,2+status,0+btemp+1]
  6456                           
  6457  0000' 1283               	bcf	3,5	;RP0=0, select bank0
  6458  0001' 1303               	bcf	3,6	;RP1=0, select bank0
  6459  0002' 083F'              	movf	___fladd@b+3,w
  6460  0003' 3980               	andlw	128
  6461  0004' 00CC'              	movwf	___fladd@signs
  6462  0005'                    l2465:
  6463  0005' 083F'              	movf	___fladd@b+3,w
  6464  0006' 00C4'              	movwf	??___fladd
  6465  0007' 0744'              	addwf	??___fladd,w
  6466  0008' 00CE'              	movwf	___fladd@bexp
  6467  0009'                    l2467:
  6468  0009' 1FBE'              	btfss	___fladd@b+2,7
  6469  000A' 2800'              	goto	u3631
  6470  000B' 2800'              	goto	u3630
  6471  000C'                    u3631:
  6472  000C' 2800'              	goto	l2471
  6473  000D'                    u3630:
  6474  000D'                    l2469:
  6475  000D' 144E'              	bsf	___fladd@bexp,0
  6476  000E'                    l2471:
  6477  000E' 084E'              	movf	___fladd@bexp,w
  6478  000F' 1903               	btfsc	3,2
  6479  0010' 2800'              	goto	u3641
  6480  0011' 2800'              	goto	u3640
  6481  0012'                    u3641:
  6482  0012' 2800'              	goto	l2481
  6483  0013'                    u3640:
  6484  0013'                    l2473:
  6485  0013' 0A4E'              	incf	___fladd@bexp,w
  6486  0014' 1D03               	btfss	3,2
  6487  0015' 2800'              	goto	u3651
  6488  0016' 2800'              	goto	u3650
  6489  0017'                    u3651:
  6490  0017' 2800'              	goto	l2477
  6491  0018'                    u3650:
  6492  0018'                    l2475:
  6493  0018' 3000               	movlw	0
  6494  0019' 00BF'              	movwf	___fladd@b+3
  6495  001A' 3000               	movlw	0
  6496  001B' 00BE'              	movwf	___fladd@b+2
  6497  001C' 3000               	movlw	0
  6498  001D' 00BD'              	movwf	___fladd@b+1
  6499  001E' 3000               	movlw	0
  6500  001F' 00BC'              	movwf	___fladd@b
  6501  0020'                    l2477:
  6502  0020' 17BE'              	bsf	___fladd@b+2,7
  6503  0021'                    l2479:
  6504  0021' 01BF'              	clrf	___fladd@b+3
  6505  0022' 2800'              	goto	l2483
  6506  0023'                    l2481:
  6507  0023' 3000               	movlw	0
  6508  0024' 00BF'              	movwf	___fladd@b+3
  6509  0025' 3000               	movlw	0
  6510  0026' 00BE'              	movwf	___fladd@b+2
  6511  0027' 3000               	movlw	0
  6512  0028' 00BD'              	movwf	___fladd@b+1
  6513  0029' 3000               	movlw	0
  6514  002A' 00BC'              	movwf	___fladd@b
  6515  002B'                    l2483:
  6516  002B' 0843'              	movf	___fladd@a+3,w
  6517  002C' 3980               	andlw	128
  6518  002D' 00CD'              	movwf	___fladd@aexp
  6519  002E'                    l2485:
  6520  002E' 084D'              	movf	___fladd@aexp,w
  6521  002F' 064C'              	xorwf	___fladd@signs,w
  6522  0030' 1903               	skipnz
  6523  0031' 2800'              	goto	u3661
  6524  0032' 2800'              	goto	u3660
  6525  0033'                    u3661:
  6526  0033' 2800'              	goto	l2489
  6527  0034'                    u3660:
  6528  0034'                    l2487:
  6529  0034' 174C'              	bsf	___fladd@signs,6
  6530  0035'                    l2489:
  6531  0035' 0843'              	movf	___fladd@a+3,w
  6532  0036' 00C4'              	movwf	??___fladd
  6533  0037' 0744'              	addwf	??___fladd,w
  6534  0038' 00CD'              	movwf	___fladd@aexp
  6535  0039'                    l2491:
  6536  0039' 1FC2'              	btfss	___fladd@a+2,7
  6537  003A' 2800'              	goto	u3671
  6538  003B' 2800'              	goto	u3670
  6539  003C'                    u3671:
  6540  003C' 2800'              	goto	l2495
  6541  003D'                    u3670:
  6542  003D'                    l2493:
  6543  003D' 144D'              	bsf	___fladd@aexp,0
  6544  003E'                    l2495:
  6545  003E' 084D'              	movf	___fladd@aexp,w
  6546  003F' 1903               	btfsc	3,2
  6547  0040' 2800'              	goto	u3681
  6548  0041' 2800'              	goto	u3680
  6549  0042'                    u3681:
  6550  0042' 2800'              	goto	l2505
  6551  0043'                    u3680:
  6552  0043'                    l2497:
  6553  0043' 0A4D'              	incf	___fladd@aexp,w
  6554  0044' 1D03               	btfss	3,2
  6555  0045' 2800'              	goto	u3691
  6556  0046' 2800'              	goto	u3690
  6557  0047'                    u3691:
  6558  0047' 2800'              	goto	l2501
  6559  0048'                    u3690:
  6560  0048'                    l2499:
  6561  0048' 3000               	movlw	0
  6562  0049' 00C3'              	movwf	___fladd@a+3
  6563  004A' 3000               	movlw	0
  6564  004B' 00C2'              	movwf	___fladd@a+2
  6565  004C' 3000               	movlw	0
  6566  004D' 00C1'              	movwf	___fladd@a+1
  6567  004E' 3000               	movlw	0
  6568  004F' 00C0'              	movwf	___fladd@a
  6569  0050'                    l2501:
  6570  0050' 17C2'              	bsf	___fladd@a+2,7
  6571  0051'                    l2503:
  6572  0051' 01C3'              	clrf	___fladd@a+3
  6573  0052' 2800'              	goto	l624
  6574  0053'                    l2505:
  6575  0053' 3000               	movlw	0
  6576  0054' 00C3'              	movwf	___fladd@a+3
  6577  0055' 3000               	movlw	0
  6578  0056' 00C2'              	movwf	___fladd@a+2
  6579  0057' 3000               	movlw	0
  6580  0058' 00C1'              	movwf	___fladd@a+1
  6581  0059' 3000               	movlw	0
  6582  005A' 00C0'              	movwf	___fladd@a
  6583  005B'                    l624:
  6584  005B' 084E'              	movf	___fladd@bexp,w
  6585  005C' 024D'              	subwf	___fladd@aexp,w
  6586  005D' 1803               	skipnc
  6587  005E' 2800'              	goto	u3701
  6588  005F' 2800'              	goto	u3700
  6589  0060'                    u3701:
  6590  0060' 2800'              	goto	l2541
  6591  0061'                    u3700:
  6592  0061'                    l2507:
  6593  0061' 1F4C'              	btfss	___fladd@signs,6
  6594  0062' 2800'              	goto	u3711
  6595  0063' 2800'              	goto	u3710
  6596  0064'                    u3711:
  6597  0064' 2800'              	goto	l2511
  6598  0065'                    u3710:
  6599  0065'                    l2509:
  6600  0065' 3080               	movlw	128
  6601  0066' 00C4'              	movwf	??___fladd
  6602  0067' 0844'              	movf	??___fladd,w
  6603  0068' 06CC'              	xorwf	___fladd@signs,f
  6604  0069'                    l2511:
  6605  0069' 084E'              	movf	___fladd@bexp,w
  6606  006A' 00CF'              	movwf	___fladd@grs
  6607  006B'                    l2513:
  6608  006B' 084D'              	movf	___fladd@aexp,w
  6609  006C' 00CE'              	movwf	___fladd@bexp
  6610  006D'                    l2515:
  6611  006D' 084F'              	movf	___fladd@grs,w
  6612  006E' 00CD'              	movwf	___fladd@aexp
  6613  006F'                    l2517:
  6614  006F' 083C'              	movf	___fladd@b,w
  6615  0070' 00CF'              	movwf	___fladd@grs
  6616  0071'                    l2519:
  6617  0071' 0840'              	movf	___fladd@a,w
  6618  0072' 00BC'              	movwf	___fladd@b
  6619  0073'                    l2521:
  6620  0073' 084F'              	movf	___fladd@grs,w
  6621  0074' 00C0'              	movwf	___fladd@a
  6622  0075'                    l2523:
  6623  0075' 083D'              	movf	___fladd@b+1,w
  6624  0076' 00CF'              	movwf	___fladd@grs
  6625  0077'                    l2525:
  6626  0077' 0841'              	movf	___fladd@a+1,w
  6627  0078' 00BD'              	movwf	___fladd@b+1
  6628  0079'                    l2527:
  6629  0079' 084F'              	movf	___fladd@grs,w
  6630  007A' 00C1'              	movwf	___fladd@a+1
  6631  007B'                    l2529:
  6632  007B' 083E'              	movf	___fladd@b+2,w
  6633  007C' 00CF'              	movwf	___fladd@grs
  6634  007D'                    l2531:
  6635  007D' 0842'              	movf	___fladd@a+2,w
  6636  007E' 00BE'              	movwf	___fladd@b+2
  6637  007F'                    l2533:
  6638  007F' 084F'              	movf	___fladd@grs,w
  6639  0080' 00C2'              	movwf	___fladd@a+2
  6640  0081'                    l2535:
  6641  0081' 083F'              	movf	___fladd@b+3,w
  6642  0082' 00CF'              	movwf	___fladd@grs
  6643  0083'                    l2537:
  6644  0083' 0843'              	movf	___fladd@a+3,w
  6645  0084' 00BF'              	movwf	___fladd@b+3
  6646  0085'                    l2539:
  6647  0085' 084F'              	movf	___fladd@grs,w
  6648  0086' 00C3'              	movwf	___fladd@a+3
  6649  0087'                    l2541:
  6650  0087' 01CF'              	clrf	___fladd@grs
  6651  0088'                    l2543:
  6652  0088' 084D'              	movf	___fladd@aexp,w
  6653  0089' 00C4'              	movwf	??___fladd
  6654  008A' 01C5'              	clrf	??___fladd+1
  6655  008B' 0845'              	movf	??___fladd+1,w
  6656  008C' 00C7'              	movwf	??___fladd+3
  6657  008D' 084E'              	movf	___fladd@bexp,w
  6658  008E' 0244'              	subwf	??___fladd,w
  6659  008F' 00C6'              	movwf	??___fladd+2
  6660  0090' 1C03               	skipc
  6661  0091' 03C7'              	decf	??___fladd+3,f
  6662  0092' 0847'              	movf	??___fladd+3,w
  6663  0093' 3A80               	xorlw	128
  6664  0094' 00FF               	movwf	btemp+1
  6665  0095' 3080               	movlw	128
  6666  0096' 027F               	subwf	btemp+1,w
  6667  0097' 1D03               	skipz
  6668  0098' 2800'              	goto	u3725
  6669  0099' 301A               	movlw	26
  6670  009A' 0246'              	subwf	??___fladd+2,w
  6671  009B'                    u3725:
  6672  009B' 1C03               	skipc
  6673  009C' 2800'              	goto	u3721
  6674  009D' 2800'              	goto	u3720
  6675  009E'                    u3721:
  6676  009E' 2800'              	goto	l2559
  6677  009F'                    u3720:
  6678  009F'                    l2545:
  6679  009F' 1283               	bcf	3,5	;RP0=0, select bank0
  6680  00A0' 1303               	bcf	3,6	;RP1=0, select bank0
  6681  00A1' 083F'              	movf	___fladd@b+3,w
  6682  00A2' 043E'              	iorwf	___fladd@b+2,w
  6683  00A3' 043D'              	iorwf	___fladd@b+1,w
  6684  00A4' 043C'              	iorwf	___fladd@b,w
  6685  00A5' 1D03               	skipz
  6686  00A6' 2800'              	goto	u3731
  6687  00A7' 2800'              	goto	u3730
  6688  00A8'                    u3731:
  6689  00A8' 3001               	movlw	1
  6690  00A9' 2800'              	goto	u3740
  6691  00AA'                    u3730:
  6692  00AA' 3000               	movlw	0
  6693  00AB'                    u3740:
  6694  00AB' 00CF'              	movwf	___fladd@grs
  6695  00AC' 3000               	movlw	0
  6696  00AD' 00BF'              	movwf	___fladd@b+3
  6697  00AE' 3000               	movlw	0
  6698  00AF' 00BE'              	movwf	___fladd@b+2
  6699  00B0' 3000               	movlw	0
  6700  00B1' 00BD'              	movwf	___fladd@b+1
  6701  00B2' 3000               	movlw	0
  6702  00B3' 00BC'              	movwf	___fladd@b
  6703  00B4' 084D'              	movf	___fladd@aexp,w
  6704  00B5' 00CE'              	movwf	___fladd@bexp
  6705  00B6' 2800'              	goto	l628
  6706  00B7'                    l630:
  6707  00B7' 1C4F'              	btfss	___fladd@grs,0
  6708  00B8' 2800'              	goto	u3751
  6709  00B9' 2800'              	goto	u3750
  6710  00BA'                    u3751:
  6711  00BA' 2800'              	goto	l2549
  6712  00BB'                    u3750:
  6713  00BB'                    l2547:
  6714  00BB' 084F'              	movf	___fladd@grs,w
  6715  00BC' 00C4'              	movwf	??___fladd
  6716  00BD' 1003               	clrc
  6717  00BE' 0C44'              	rrf	??___fladd,w
  6718  00BF' 3801               	iorlw	1
  6719  00C0' 00CF'              	movwf	___fladd@grs
  6720  00C1' 2800'              	goto	l2551
  6721  00C2'                    l2549:
  6722  00C2' 1003               	clrc
  6723  00C3' 0CCF'              	rrf	___fladd@grs,f
  6724  00C4'                    l2551:
  6725  00C4' 1C3C'              	btfss	___fladd@b,0
  6726  00C5' 2800'              	goto	u3761
  6727  00C6' 2800'              	goto	u3760
  6728  00C7'                    u3761:
  6729  00C7' 2800'              	goto	l2555
  6730  00C8'                    u3760:
  6731  00C8'                    l2553:
  6732  00C8' 17CF'              	bsf	___fladd@grs,7
  6733  00C9'                    l2555:
  6734  00C9' 3001               	movlw	1
  6735  00CA' 00C4'              	movwf	??___fladd
  6736  00CB'                    u3775:
  6737  00CB' 0D3F'              	rlf	___fladd@b+3,w
  6738  00CC' 0CBF'              	rrf	___fladd@b+3,f
  6739  00CD' 0CBE'              	rrf	___fladd@b+2,f
  6740  00CE' 0CBD'              	rrf	___fladd@b+1,f
  6741  00CF' 0CBC'              	rrf	___fladd@b,f
  6742  00D0' 0B80'              	decfsz	??___fladd& (0+127),f
  6743  00D1' 2800'              	goto	u3775
  6744  00D2'                    l2557:
  6745  00D2' 3001               	movlw	1
  6746  00D3' 00C4'              	movwf	??___fladd
  6747  00D4' 0844'              	movf	??___fladd,w
  6748  00D5' 07CE'              	addwf	___fladd@bexp,f
  6749  00D6'                    l2559:
  6750  00D6' 1283               	bcf	3,5	;RP0=0, select bank0
  6751  00D7' 1303               	bcf	3,6	;RP1=0, select bank0
  6752  00D8' 084D'              	movf	___fladd@aexp,w
  6753  00D9' 024E'              	subwf	___fladd@bexp,w
  6754  00DA' 1C03               	skipc
  6755  00DB' 2800'              	goto	u3781
  6756  00DC' 2800'              	goto	u3780
  6757  00DD'                    u3781:
  6758  00DD' 2800'              	goto	l630
  6759  00DE'                    u3780:
  6760  00DE'                    l628:
  6761  00DE' 1B4C'              	btfsc	___fladd@signs,6
  6762  00DF' 2800'              	goto	u3791
  6763  00E0' 2800'              	goto	u3790
  6764  00E1'                    u3791:
  6765  00E1' 2800'              	goto	l2585
  6766  00E2'                    u3790:
  6767  00E2'                    l2561:
  6768  00E2' 084E'              	movf	___fladd@bexp,w
  6769  00E3' 1D03               	btfss	3,2
  6770  00E4' 2800'              	goto	u3801
  6771  00E5' 2800'              	goto	u3800
  6772  00E6'                    u3801:
  6773  00E6' 2800'              	goto	l2567
  6774  00E7'                    u3800:
  6775  00E7'                    l2563:
  6776  00E7' 3000               	movlw	0
  6777  00E8' 00BF'              	movwf	?___fladd+3
  6778  00E9' 3000               	movlw	0
  6779  00EA' 00BE'              	movwf	?___fladd+2
  6780  00EB' 3000               	movlw	0
  6781  00EC' 00BD'              	movwf	?___fladd+1
  6782  00ED' 3000               	movlw	0
  6783  00EE' 00BC'              	movwf	?___fladd
  6784  00EF' 2800'              	goto	l637
  6785  00F0'                    l2567:
  6786  00F0' 0840'              	movf	___fladd@a,w
  6787  00F1' 07BC'              	addwf	___fladd@b,f
  6788  00F2' 0841'              	movf	___fladd@a+1,w
  6789  00F3' 1103               	clrz
  6790  00F4' 1803               	skipnc
  6791  00F5' 3E01               	addlw	1
  6792  00F6' 1903               	skipnz
  6793  00F7' 2800'              	goto	u3811
  6794  00F8' 07BD'              	addwf	___fladd@b+1,f
  6795  00F9'                    u3811:
  6796  00F9' 0842'              	movf	___fladd@a+2,w
  6797  00FA' 1103               	clrz
  6798  00FB' 1803               	skipnc
  6799  00FC' 3E01               	addlw	1
  6800  00FD' 1903               	skipnz
  6801  00FE' 2800'              	goto	u3812
  6802  00FF' 07BE'              	addwf	___fladd@b+2,f
  6803  0100'                    u3812:
  6804  0100' 0843'              	movf	___fladd@a+3,w
  6805  0101' 1103               	clrz
  6806  0102' 1803               	skipnc
  6807  0103' 3E01               	addlw	1
  6808  0104' 1903               	skipnz
  6809  0105' 2800'              	goto	u3813
  6810  0106' 07BF'              	addwf	___fladd@b+3,f
  6811  0107'                    u3813:
  6812  0107'                    l2569:
  6813  0107' 1C3F'              	btfss	___fladd@b+3,0
  6814  0108' 2800'              	goto	u3821
  6815  0109' 2800'              	goto	u3820
  6816  010A'                    u3821:
  6817  010A' 2800'              	goto	l2619
  6818  010B'                    u3820:
  6819  010B'                    l2571:
  6820  010B' 1C4F'              	btfss	___fladd@grs,0
  6821  010C' 2800'              	goto	u3831
  6822  010D' 2800'              	goto	u3830
  6823  010E'                    u3831:
  6824  010E' 2800'              	goto	l2575
  6825  010F'                    u3830:
  6826  010F'                    l2573:
  6827  010F' 084F'              	movf	___fladd@grs,w
  6828  0110' 00C4'              	movwf	??___fladd
  6829  0111' 1003               	clrc
  6830  0112' 0C44'              	rrf	??___fladd,w
  6831  0113' 3801               	iorlw	1
  6832  0114' 00CF'              	movwf	___fladd@grs
  6833  0115' 2800'              	goto	l2577
  6834  0116'                    l2575:
  6835  0116' 1003               	clrc
  6836  0117' 0CCF'              	rrf	___fladd@grs,f
  6837  0118'                    l2577:
  6838  0118' 1C3C'              	btfss	___fladd@b,0
  6839  0119' 2800'              	goto	u3841
  6840  011A' 2800'              	goto	u3840
  6841  011B'                    u3841:
  6842  011B' 2800'              	goto	l2581
  6843  011C'                    u3840:
  6844  011C'                    l2579:
  6845  011C' 17CF'              	bsf	___fladd@grs,7
  6846  011D'                    l2581:
  6847  011D' 3001               	movlw	1
  6848  011E' 00C4'              	movwf	??___fladd
  6849  011F'                    u3855:
  6850  011F' 0D3F'              	rlf	___fladd@b+3,w
  6851  0120' 0CBF'              	rrf	___fladd@b+3,f
  6852  0121' 0CBE'              	rrf	___fladd@b+2,f
  6853  0122' 0CBD'              	rrf	___fladd@b+1,f
  6854  0123' 0CBC'              	rrf	___fladd@b,f
  6855  0124' 0B80'              	decfsz	??___fladd& (0+127),f
  6856  0125' 2800'              	goto	u3855
  6857  0126'                    l2583:
  6858  0126' 3001               	movlw	1
  6859  0127' 00C4'              	movwf	??___fladd
  6860  0128' 0844'              	movf	??___fladd,w
  6861  0129' 07CE'              	addwf	___fladd@bexp,f
  6862  012A' 2800'              	goto	l2619
  6863  012B'                    l2585:
  6864  012B' 083F'              	movf	___fladd@b+3,w
  6865  012C' 3A80               	xorlw	128
  6866  012D' 00FF               	movwf	btemp+1
  6867  012E' 0843'              	movf	___fladd@a+3,w
  6868  012F' 3A80               	xorlw	128
  6869  0130' 027F               	subwf	btemp+1,w
  6870  0131' 1D03               	skipz
  6871  0132' 2800'              	goto	u3863
  6872  0133' 0842'              	movf	___fladd@a+2,w
  6873  0134' 023E'              	subwf	___fladd@b+2,w
  6874  0135' 1D03               	skipz
  6875  0136' 2800'              	goto	u3863
  6876  0137' 0841'              	movf	___fladd@a+1,w
  6877  0138' 023D'              	subwf	___fladd@b+1,w
  6878  0139' 1D03               	skipz
  6879  013A' 2800'              	goto	u3863
  6880  013B' 0840'              	movf	___fladd@a,w
  6881  013C' 023C'              	subwf	___fladd@b,w
  6882  013D'                    u3863:
  6883  013D' 1803               	skipnc
  6884  013E' 2800'              	goto	u3861
  6885  013F' 2800'              	goto	u3860
  6886  0140'                    u3861:
  6887  0140' 2800'              	goto	l2595
  6888  0141'                    u3860:
  6889  0141'                    l2587:
  6890  0141' 30FF               	movlw	255
  6891  0142' 00C4'              	movwf	??___fladd
  6892  0143' 30FF               	movlw	255
  6893  0144' 00C5'              	movwf	??___fladd+1
  6894  0145' 30FF               	movlw	255
  6895  0146' 00C6'              	movwf	??___fladd+2
  6896  0147' 30FF               	movlw	255
  6897  0148' 00C7'              	movwf	??___fladd+3
  6898  0149' 0840'              	movf	___fladd@a,w
  6899  014A' 00C8'              	movwf	??___fladd+4
  6900  014B' 0841'              	movf	___fladd@a+1,w
  6901  014C' 00C9'              	movwf	??___fladd+5
  6902  014D' 0842'              	movf	___fladd@a+2,w
  6903  014E' 00CA'              	movwf	??___fladd+6
  6904  014F' 0843'              	movf	___fladd@a+3,w
  6905  0150' 00CB'              	movwf	??___fladd+7
  6906  0151' 083C'              	movf	___fladd@b,w
  6907  0152' 02C8'              	subwf	??___fladd+4,f
  6908  0153' 083D'              	movf	___fladd@b+1,w
  6909  0154' 1C03               	skipc
  6910  0155' 0F3D'              	incfsz	___fladd@b+1,w
  6911  0156' 2800'              	goto	u3871
  6912  0157' 2800'              	goto	u3872
  6913  0158'                    u3871:
  6914  0158' 02C9'              	subwf	??___fladd+5,f
  6915  0159'                    u3872:
  6916  0159' 083E'              	movf	___fladd@b+2,w
  6917  015A' 1C03               	skipc
  6918  015B' 0F3E'              	incfsz	___fladd@b+2,w
  6919  015C' 2800'              	goto	u3873
  6920  015D' 2800'              	goto	u3874
  6921  015E'                    u3873:
  6922  015E' 02CA'              	subwf	??___fladd+6,f
  6923  015F'                    u3874:
  6924  015F' 083F'              	movf	___fladd@b+3,w
  6925  0160' 1C03               	skipc
  6926  0161' 0F3F'              	incfsz	___fladd@b+3,w
  6927  0162' 2800'              	goto	u3875
  6928  0163' 2800'              	goto	u3876
  6929  0164'                    u3875:
  6930  0164' 02CB'              	subwf	??___fladd+7,f
  6931  0165'                    u3876:
  6932  0165' 0848'              	movf	??___fladd+4,w
  6933  0166' 07C4'              	addwf	??___fladd,f
  6934  0167' 0849'              	movf	??___fladd+5,w
  6935  0168' 1803               	skipnc
  6936  0169' 0F49'              	incfsz	??___fladd+5,w
  6937  016A' 2800'              	goto	u3880
  6938  016B' 2800'              	goto	u3881
  6939  016C'                    u3880:
  6940  016C' 07C5'              	addwf	??___fladd+1,f
  6941  016D'                    u3881:
  6942  016D' 084A'              	movf	??___fladd+6,w
  6943  016E' 1803               	skipnc
  6944  016F' 0F4A'              	incfsz	??___fladd+6,w
  6945  0170' 2800'              	goto	u3882
  6946  0171' 2800'              	goto	u3883
  6947  0172'                    u3882:
  6948  0172' 07C6'              	addwf	??___fladd+2,f
  6949  0173'                    u3883:
  6950  0173' 084B'              	movf	??___fladd+7,w
  6951  0174' 1803               	skipnc
  6952  0175' 0A4B'              	incf	??___fladd+7,w
  6953  0176' 07C7'              	addwf	??___fladd+3,f
  6954  0177' 0847'              	movf	??___fladd+3,w
  6955  0178' 00BF'              	movwf	___fladd@b+3
  6956  0179' 0846'              	movf	??___fladd+2,w
  6957  017A' 00BE'              	movwf	___fladd@b+2
  6958  017B' 0845'              	movf	??___fladd+1,w
  6959  017C' 00BD'              	movwf	___fladd@b+1
  6960  017D' 0844'              	movf	??___fladd,w
  6961  017E' 00BC'              	movwf	___fladd@b
  6962  017F'                    l2589:
  6963  017F' 3080               	movlw	128
  6964  0180' 00C4'              	movwf	??___fladd
  6965  0181' 0844'              	movf	??___fladd,w
  6966  0182' 06CC'              	xorwf	___fladd@signs,f
  6967  0183' 09CF'              	comf	___fladd@grs,f
  6968  0184' 0ACF'              	incf	___fladd@grs,f
  6969  0185'                    l2591:
  6970  0185' 084F'              	movf	___fladd@grs,w
  6971  0186' 1D03               	btfss	3,2
  6972  0187' 2800'              	goto	u3891
  6973  0188' 2800'              	goto	u3890
  6974  0189'                    u3891:
  6975  0189' 2800'              	goto	l645
  6976  018A'                    u3890:
  6977  018A'                    l2593:
  6978  018A' 3001               	movlw	1
  6979  018B' 07BC'              	addwf	___fladd@b,f
  6980  018C' 3000               	movlw	0
  6981  018D' 1803               	skipnc
  6982  018E' 3001               	movlw	1
  6983  018F' 07BD'              	addwf	___fladd@b+1,f
  6984  0190' 3000               	movlw	0
  6985  0191' 1803               	skipnc
  6986  0192' 3001               	movlw	1
  6987  0193' 07BE'              	addwf	___fladd@b+2,f
  6988  0194' 3000               	movlw	0
  6989  0195' 1803               	skipnc
  6990  0196' 3001               	movlw	1
  6991  0197' 07BF'              	addwf	___fladd@b+3,f
  6992  0198' 2800'              	goto	l645
  6993  0199'                    l2595:
  6994  0199' 0840'              	movf	___fladd@a,w
  6995  019A' 02BC'              	subwf	___fladd@b,f
  6996  019B' 0841'              	movf	___fladd@a+1,w
  6997  019C' 1C03               	skipc
  6998  019D' 0F41'              	incfsz	___fladd@a+1,w
  6999  019E' 02BD'              	subwf	___fladd@b+1,f
  7000  019F' 0842'              	movf	___fladd@a+2,w
  7001  01A0' 1C03               	skipc
  7002  01A1' 0F42'              	incfsz	___fladd@a+2,w
  7003  01A2' 02BE'              	subwf	___fladd@b+2,f
  7004  01A3' 0843'              	movf	___fladd@a+3,w
  7005  01A4' 1C03               	skipc
  7006  01A5' 0F43'              	incfsz	___fladd@a+3,w
  7007  01A6' 02BF'              	subwf	___fladd@b+3,f
  7008  01A7'                    l645:
  7009  01A7' 083F'              	movf	___fladd@b+3,w
  7010  01A8' 043E'              	iorwf	___fladd@b+2,w
  7011  01A9' 043D'              	iorwf	___fladd@b+1,w
  7012  01AA' 043C'              	iorwf	___fladd@b,w
  7013  01AB' 1D03               	skipz
  7014  01AC' 2800'              	goto	u3901
  7015  01AD' 2800'              	goto	u3900
  7016  01AE'                    u3901:
  7017  01AE' 2800'              	goto	l2617
  7018  01AF'                    u3900:
  7019  01AF'                    l2597:
  7020  01AF' 084F'              	movf	___fladd@grs,w
  7021  01B0' 1D03               	btfss	3,2
  7022  01B1' 2800'              	goto	u3911
  7023  01B2' 2800'              	goto	u3910
  7024  01B3'                    u3911:
  7025  01B3' 2800'              	goto	l2617
  7026  01B4'                    u3910:
  7027  01B4'                    l2599:
  7028  01B4' 3000               	movlw	0
  7029  01B5' 00BF'              	movwf	?___fladd+3
  7030  01B6' 3000               	movlw	0
  7031  01B7' 00BE'              	movwf	?___fladd+2
  7032  01B8' 3000               	movlw	0
  7033  01B9' 00BD'              	movwf	?___fladd+1
  7034  01BA' 3000               	movlw	0
  7035  01BB' 00BC'              	movwf	?___fladd
  7036  01BC' 2800'              	goto	l637
  7037  01BD'                    l2603:
  7038  01BD' 3001               	movlw	1
  7039  01BE' 00C4'              	movwf	??___fladd
  7040  01BF'                    u3925:
  7041  01BF' 1003               	clrc
  7042  01C0' 0DBC'              	rlf	___fladd@b,f
  7043  01C1' 0DBD'              	rlf	___fladd@b+1,f
  7044  01C2' 0DBE'              	rlf	___fladd@b+2,f
  7045  01C3' 0DBF'              	rlf	___fladd@b+3,f
  7046  01C4' 0BC4'              	decfsz	??___fladd,f
  7047  01C5' 2800'              	goto	u3925
  7048  01C6'                    l2605:
  7049  01C6' 1FCF'              	btfss	___fladd@grs,7
  7050  01C7' 2800'              	goto	u3931
  7051  01C8' 2800'              	goto	u3930
  7052  01C9'                    u3931:
  7053  01C9' 2800'              	goto	l649
  7054  01CA'                    u3930:
  7055  01CA'                    l2607:
  7056  01CA' 143C'              	bsf	___fladd@b,0
  7057  01CB'                    l649:
  7058  01CB' 1C4F'              	btfss	___fladd@grs,0
  7059  01CC' 2800'              	goto	u3941
  7060  01CD' 2800'              	goto	u3940
  7061  01CE'                    u3941:
  7062  01CE' 2800'              	goto	l2611
  7063  01CF'                    u3940:
  7064  01CF'                    l2609:
  7065  01CF' 1403               	setc
  7066  01D0' 0DCF'              	rlf	___fladd@grs,f
  7067  01D1' 2800'              	goto	l2613
  7068  01D2'                    l2611:
  7069  01D2' 1003               	clrc
  7070  01D3' 0DCF'              	rlf	___fladd@grs,f
  7071  01D4'                    l2613:
  7072  01D4' 084E'              	movf	___fladd@bexp,w
  7073  01D5' 1903               	btfsc	3,2
  7074  01D6' 2800'              	goto	u3951
  7075  01D7' 2800'              	goto	u3950
  7076  01D8'                    u3951:
  7077  01D8' 2800'              	goto	l2617
  7078  01D9'                    u3950:
  7079  01D9'                    l2615:
  7080  01D9' 3001               	movlw	1
  7081  01DA' 02CE'              	subwf	___fladd@bexp,f
  7082  01DB'                    l2617:
  7083  01DB' 1FBE'              	btfss	___fladd@b+2,7
  7084  01DC' 2800'              	goto	u3961
  7085  01DD' 2800'              	goto	u3960
  7086  01DE'                    u3961:
  7087  01DE' 2800'              	goto	l2603
  7088  01DF'                    u3960:
  7089  01DF'                    l2619:
  7090  01DF' 01CD'              	clrf	___fladd@aexp
  7091  01E0'                    l2621:
  7092  01E0' 1FCF'              	btfss	___fladd@grs,7
  7093  01E1' 2800'              	goto	u3971
  7094  01E2' 2800'              	goto	u3970
  7095  01E3'                    u3971:
  7096  01E3' 2800'              	goto	l2629
  7097  01E4'                    u3970:
  7098  01E4'                    l2623:
  7099  01E4' 084F'              	movf	___fladd@grs,w
  7100  01E5' 397F               	andlw	127
  7101  01E6' 1903               	btfsc	3,2
  7102  01E7' 2800'              	goto	u3981
  7103  01E8' 2800'              	goto	u3980
  7104  01E9'                    u3981:
  7105  01E9' 2800'              	goto	l655
  7106  01EA'                    u3980:
  7107  01EA'                    l2625:
  7108  01EA' 01CD'              	clrf	___fladd@aexp
  7109  01EB' 0ACD'              	incf	___fladd@aexp,f
  7110  01EC' 2800'              	goto	l2629
  7111  01ED'                    l655:
  7112  01ED' 1C3C'              	btfss	___fladd@b,0
  7113  01EE' 2800'              	goto	u3991
  7114  01EF' 2800'              	goto	u3990
  7115  01F0'                    u3991:
  7116  01F0' 2800'              	goto	l2629
  7117  01F1'                    u3990:
  7118  01F1' 2800'              	goto	l2625
  7119  01F2'                    l2629:
  7120  01F2' 084D'              	movf	___fladd@aexp,w
  7121  01F3' 1903               	btfsc	3,2
  7122  01F4' 2800'              	goto	u4001
  7123  01F5' 2800'              	goto	u4000
  7124  01F6'                    u4001:
  7125  01F6' 2800'              	goto	l658
  7126  01F7'                    u4000:
  7127  01F7'                    l2631:
  7128  01F7' 3001               	movlw	1
  7129  01F8' 07BC'              	addwf	___fladd@b,f
  7130  01F9' 3000               	movlw	0
  7131  01FA' 1803               	skipnc
  7132  01FB' 3001               	movlw	1
  7133  01FC' 07BD'              	addwf	___fladd@b+1,f
  7134  01FD' 3000               	movlw	0
  7135  01FE' 1803               	skipnc
  7136  01FF' 3001               	movlw	1
  7137  0200' 07BE'              	addwf	___fladd@b+2,f
  7138  0201' 3000               	movlw	0
  7139  0202' 1803               	skipnc
  7140  0203' 3001               	movlw	1
  7141  0204' 07BF'              	addwf	___fladd@b+3,f
  7142  0205'                    l2633:
  7143  0205' 1C3F'              	btfss	___fladd@b+3,0
  7144  0206' 2800'              	goto	u4011
  7145  0207' 2800'              	goto	u4010
  7146  0208'                    u4011:
  7147  0208' 2800'              	goto	l658
  7148  0209'                    u4010:
  7149  0209'                    l2635:
  7150  0209' 083C'              	movf	___fladd@b,w
  7151  020A' 00C4'              	movwf	??___fladd
  7152  020B' 083D'              	movf	___fladd@b+1,w
  7153  020C' 00C5'              	movwf	??___fladd+1
  7154  020D' 083E'              	movf	___fladd@b+2,w
  7155  020E' 00C6'              	movwf	??___fladd+2
  7156  020F' 083F'              	movf	___fladd@b+3,w
  7157  0210' 00C7'              	movwf	??___fladd+3
  7158  0211' 3001               	movlw	1
  7159  0212' 00C8'              	movwf	??___fladd+4
  7160  0213'                    u4025:
  7161  0213' 0D47'              	rlf	??___fladd+3,w
  7162  0214' 0CC7'              	rrf	??___fladd+3,f
  7163  0215' 0CC6'              	rrf	??___fladd+2,f
  7164  0216' 0CC5'              	rrf	??___fladd+1,f
  7165  0217' 0CC4'              	rrf	??___fladd,f
  7166  0218'                    u4020:
  7167  0218' 0BC8'              	decfsz	??___fladd+4,f
  7168  0219' 2800'              	goto	u4025
  7169  021A' 0847'              	movf	??___fladd+3,w
  7170  021B' 00BF'              	movwf	___fladd@b+3
  7171  021C' 0846'              	movf	??___fladd+2,w
  7172  021D' 00BE'              	movwf	___fladd@b+2
  7173  021E' 0845'              	movf	??___fladd+1,w
  7174  021F' 00BD'              	movwf	___fladd@b+1
  7175  0220' 0844'              	movf	??___fladd,w
  7176  0221' 00BC'              	movwf	___fladd@b
  7177  0222' 0A4E'              	incf	___fladd@bexp,w
  7178  0223' 1903               	btfsc	3,2
  7179  0224' 2800'              	goto	u4031
  7180  0225' 2800'              	goto	u4030
  7181  0226'                    u4031:
  7182  0226' 2800'              	goto	l658
  7183  0227'                    u4030:
  7184  0227'                    l2637:
  7185  0227' 3001               	movlw	1
  7186  0228' 00C4'              	movwf	??___fladd
  7187  0229' 0844'              	movf	??___fladd,w
  7188  022A' 07CE'              	addwf	___fladd@bexp,f
  7189  022B'                    l658:
  7190  022B' 0A4E'              	incf	___fladd@bexp,w
  7191  022C' 1903               	btfsc	3,2
  7192  022D' 2800'              	goto	u4041
  7193  022E' 2800'              	goto	u4040
  7194  022F'                    u4041:
  7195  022F' 2800'              	goto	l2641
  7196  0230'                    u4040:
  7197  0230'                    l2639:
  7198  0230' 084E'              	movf	___fladd@bexp,w
  7199  0231' 1D03               	btfss	3,2
  7200  0232' 2800'              	goto	u4051
  7201  0233' 2800'              	goto	u4050
  7202  0234'                    u4051:
  7203  0234' 2800'              	goto	l2647
  7204  0235'                    u4050:
  7205  0235'                    l2641:
  7206  0235' 3000               	movlw	0
  7207  0236' 00BF'              	movwf	___fladd@b+3
  7208  0237' 3000               	movlw	0
  7209  0238' 00BE'              	movwf	___fladd@b+2
  7210  0239' 3000               	movlw	0
  7211  023A' 00BD'              	movwf	___fladd@b+1
  7212  023B' 3000               	movlw	0
  7213  023C' 00BC'              	movwf	___fladd@b
  7214  023D'                    l2643:
  7215  023D' 084E'              	movf	___fladd@bexp,w
  7216  023E' 1D03               	btfss	3,2
  7217  023F' 2800'              	goto	u4061
  7218  0240' 2800'              	goto	u4060
  7219  0241'                    u4061:
  7220  0241' 2800'              	goto	l2647
  7221  0242'                    u4060:
  7222  0242'                    l2645:
  7223  0242' 01CC'              	clrf	___fladd@signs
  7224  0243'                    l2647:
  7225  0243' 1C4E'              	btfss	___fladd@bexp,0
  7226  0244' 2800'              	goto	u4071
  7227  0245' 2800'              	goto	u4070
  7228  0246'                    u4071:
  7229  0246' 2800'              	goto	l2651
  7230  0247'                    u4070:
  7231  0247'                    l2649:
  7232  0247' 17BE'              	bsf	___fladd@b+2,7
  7233  0248' 2800'              	goto	l666
  7234  0249'                    l2651:
  7235  0249' 307F               	movlw	127
  7236  024A' 00C4'              	movwf	??___fladd
  7237  024B' 0844'              	movf	??___fladd,w
  7238  024C' 05BE'              	andwf	___fladd@b+2,f
  7239  024D'                    l666:
  7240  024D' 084E'              	movf	___fladd@bexp,w
  7241  024E' 00C4'              	movwf	??___fladd
  7242  024F' 1003               	clrc
  7243  0250' 0C44'              	rrf	??___fladd,w
  7244  0251' 00BF'              	movwf	___fladd@b+3
  7245  0252'                    l2653:
  7246  0252' 1FCC'              	btfss	___fladd@signs,7
  7247  0253' 2800'              	goto	u4081
  7248  0254' 2800'              	goto	u4080
  7249  0255'                    u4081:
  7250  0255' 2800'              	goto	l667
  7251  0256'                    u4080:
  7252  0256'                    l2655:
  7253  0256' 17BF'              	bsf	___fladd@b+3,7
  7254  0257'                    l667:
  7255  0257'                    l637:
  7256  0257' 0008               	return
  7257  0258'                    __end_of___fladd:
  7258                           
  7259                           	psect	text19
  7260  0000'                    __ptext19:	
  7261 ;; *************** function ___flneg *****************
  7262 ;; Defined at:
  7263 ;;		line 15 in file "C:\Program Files\Microchip\xc8\v2.40\pic\sources\c90\common\flneg.c"
  7264 ;; Parameters:    Size  Location     Type
  7265 ;;  f1              4    0[COMMON] unsigned char 
  7266 ;; Auto vars:     Size  Location     Type
  7267 ;;		None
  7268 ;; Return value:  Size  Location     Type
  7269 ;;                  4    0[COMMON] unsigned char 
  7270 ;; Registers used:
  7271 ;;		wreg
  7272 ;; Tracked objects:
  7273 ;;		On entry : 0/0
  7274 ;;		On exit  : 0/0
  7275 ;;		Unchanged: 0/0
  7276 ;; Data sizes:     COMMON   BANK0   BANK1   BANK3   BANK2
  7277 ;;      Params:         4       0       0       0       0
  7278 ;;      Locals:         0       0       0       0       0
  7279 ;;      Temps:          0       0       0       0       0
  7280 ;;      Totals:         4       0       0       0       0
  7281 ;;Total ram usage:        4 bytes
  7282 ;; Hardware stack levels used: 1
  7283 ;; This function calls:
  7284 ;;		Nothing
  7285 ;; This function is called by:
  7286 ;;		_sprintf
  7287 ;; This function uses a non-reentrant model
  7288 ;;
  7289                           
  7290  0000'                    ___flneg:	
  7291                           ;psect for function ___flneg
  7292                           
  7293  0000'                    l3059:	
  7294                           ;incstack = 0
  7295                           ; Regs used in ___flneg: [wreg]
  7296                           
  7297  0000' 0803'              	movf	___flneg@f1+3,w
  7298  0001' 0402'              	iorwf	___flneg@f1+2,w
  7299  0002' 0401'              	iorwf	___flneg@f1+1,w
  7300  0003' 0400'              	iorwf	___flneg@f1,w
  7301  0004' 1903               	skipnz
  7302  0005' 2800'              	goto	u5191
  7303  0006' 2800'              	goto	u5190
  7304  0007'                    u5191:
  7305  0007' 2800'              	goto	l3063
  7306  0008'                    u5190:
  7307  0008'                    l3061:
  7308  0008' 3080               	movlw	128
  7309  0009' 0683'              	xorwf	___flneg@f1+3,f
  7310  000A'                    l3063:
  7311  000A'                    l496:
  7312  000A' 0008               	return
  7313  000B'                    __end_of___flneg:
  7314                           
  7315                           	psect	text20
  7316  0000'                    __ptext20:	
  7317 ;; *************** function ___flge *****************
  7318 ;; Defined at:
  7319 ;;		line 4 in file "C:\Program Files\Microchip\xc8\v2.40\pic\sources\c90\common\flge.c"
  7320 ;; Parameters:    Size  Location     Type
  7321 ;;  ff1             4    8[BANK1 ] unsigned char 
  7322 ;;  ff2             4   12[BANK1 ] unsigned char 
  7323 ;; Auto vars:     Size  Location     Type
  7324 ;;		None
  7325 ;; Return value:  Size  Location     Type
  7326 ;;		None               void
  7327 ;; Registers used:
  7328 ;;		wreg, status,2, status,0
  7329 ;; Tracked objects:
  7330 ;;		On entry : 0/0
  7331 ;;		On exit  : 0/0
  7332 ;;		Unchanged: 0/0
  7333 ;; Data sizes:     COMMON   BANK0   BANK1   BANK3   BANK2
  7334 ;;      Params:         0       0       8       0       0
  7335 ;;      Locals:         0       0       0       0       0
  7336 ;;      Temps:          0       0       4       0       0
  7337 ;;      Totals:         0       0      12       0       0
  7338 ;;Total ram usage:       12 bytes
  7339 ;; Hardware stack levels used: 1
  7340 ;; This function calls:
  7341 ;;		Nothing
  7342 ;; This function is called by:
  7343 ;;		_main
  7344 ;;		_sprintf
  7345 ;; This function uses a non-reentrant model
  7346 ;;
  7347                           
  7348  0000'                    ___flge:	
  7349                           ;psect for function ___flge
  7350                           
  7351  0000'                    l3039:	
  7352                           ;incstack = 0
  7353                           ; Regs used in ___flge: [wreg+status,2+status,0]
  7354                           
  7355  0000' 3000               	movlw	0
  7356  0001' 1683               	bsf	3,5	;RP0=1, select bank1
  7357  0002' 1303               	bcf	3,6	;RP1=0, select bank1
  7358  0003' 0500'              	andwf	___flge@ff1^(0+128),w
  7359  0004' 0080'              	movwf	??___flge^(0+128)
  7360  0005' 3000               	movlw	0
  7361  0006' 0500'              	andwf	(___flge@ff1+1)^(0+128),w
  7362  0007' 0081'              	movwf	(??___flge^(0+128)+1)
  7363  0008' 3080               	movlw	128
  7364  0009' 0500'              	andwf	(___flge@ff1+2)^(0+128),w
  7365  000A' 0082'              	movwf	(??___flge^(0+128)+2)
  7366  000B' 307F               	movlw	127
  7367  000C' 0500'              	andwf	(___flge@ff1+3)^(0+128),w
  7368  000D' 0083'              	movwf	(??___flge^(0+128)+3)
  7369  000E' 0800'              	movf	(??___flge+3)^(0+128),w
  7370  000F' 0400'              	iorwf	(??___flge+2)^(0+128),w
  7371  0010' 0400'              	iorwf	(??___flge+1)^(0+128),w
  7372  0011' 0400'              	iorwf	??___flge^(0+128),w
  7373  0012' 1D03               	skipz
  7374  0013' 2800'              	goto	u5121
  7375  0014' 2800'              	goto	u5120
  7376  0015'                    u5121:
  7377  0015' 2800'              	goto	l488
  7378  0016'                    u5120:
  7379  0016'                    l3041:
  7380  0016' 3000               	movlw	0
  7381  0017' 0080'              	movwf	(___flge@ff1+3)^(0+128)
  7382  0018' 3000               	movlw	0
  7383  0019' 0080'              	movwf	(___flge@ff1+2)^(0+128)
  7384  001A' 3000               	movlw	0
  7385  001B' 0080'              	movwf	(___flge@ff1+1)^(0+128)
  7386  001C' 3000               	movlw	0
  7387  001D' 0080'              	movwf	___flge@ff1^(0+128)
  7388  001E'                    l488:
  7389  001E' 3000               	movlw	0
  7390  001F' 0500'              	andwf	___flge@ff2^(0+128),w
  7391  0020' 0080'              	movwf	??___flge^(0+128)
  7392  0021' 3000               	movlw	0
  7393  0022' 0500'              	andwf	(___flge@ff2+1)^(0+128),w
  7394  0023' 0081'              	movwf	(??___flge^(0+128)+1)
  7395  0024' 3080               	movlw	128
  7396  0025' 0500'              	andwf	(___flge@ff2+2)^(0+128),w
  7397  0026' 0082'              	movwf	(??___flge^(0+128)+2)
  7398  0027' 307F               	movlw	127
  7399  0028' 0500'              	andwf	(___flge@ff2+3)^(0+128),w
  7400  0029' 0083'              	movwf	(??___flge^(0+128)+3)
  7401  002A' 0800'              	movf	(??___flge+3)^(0+128),w
  7402  002B' 0400'              	iorwf	(??___flge+2)^(0+128),w
  7403  002C' 0400'              	iorwf	(??___flge+1)^(0+128),w
  7404  002D' 0400'              	iorwf	??___flge^(0+128),w
  7405  002E' 1D03               	skipz
  7406  002F' 2800'              	goto	u5131
  7407  0030' 2800'              	goto	u5130
  7408  0031'                    u5131:
  7409  0031' 2800'              	goto	l3045
  7410  0032'                    u5130:
  7411  0032'                    l3043:
  7412  0032' 3000               	movlw	0
  7413  0033' 0080'              	movwf	(___flge@ff2+3)^(0+128)
  7414  0034' 3000               	movlw	0
  7415  0035' 0080'              	movwf	(___flge@ff2+2)^(0+128)
  7416  0036' 3000               	movlw	0
  7417  0037' 0080'              	movwf	(___flge@ff2+1)^(0+128)
  7418  0038' 3000               	movlw	0
  7419  0039' 0080'              	movwf	___flge@ff2^(0+128)
  7420  003A'                    l3045:
  7421  003A' 1F80'              	btfss	(___flge@ff1+3)^(0+128),7
  7422  003B' 2800'              	goto	u5141
  7423  003C' 2800'              	goto	u5140
  7424  003D'                    u5141:
  7425  003D' 2800'              	goto	l3049
  7426  003E'                    u5140:
  7427  003E'                    l3047:
  7428  003E' 3000               	movlw	0
  7429  003F' 0080'              	movwf	??___flge^(0+128)
  7430  0040' 3000               	movlw	0
  7431  0041' 0081'              	movwf	(??___flge^(0+128)+1)
  7432  0042' 3000               	movlw	0
  7433  0043' 0082'              	movwf	(??___flge^(0+128)+2)
  7434  0044' 3080               	movlw	128
  7435  0045' 0083'              	movwf	(??___flge^(0+128)+3)
  7436  0046' 0800'              	movf	___flge@ff1^(0+128),w
  7437  0047' 0280'              	subwf	??___flge^(0+128),f
  7438  0048' 0800'              	movf	(___flge@ff1+1)^(0+128),w
  7439  0049' 1C03               	skipc
  7440  004A' 0F00'              	incfsz	(___flge@ff1+1)^(0+128),w
  7441  004B' 2800'              	goto	u5151
  7442  004C' 2800'              	goto	u5152
  7443  004D'                    u5151:
  7444  004D' 0281'              	subwf	(??___flge^(0+128)+1),f
  7445  004E'                    u5152:
  7446  004E' 0800'              	movf	(___flge@ff1+2)^(0+128),w
  7447  004F' 1C03               	skipc
  7448  0050' 0F00'              	incfsz	(___flge@ff1+2)^(0+128),w
  7449  0051' 2800'              	goto	u5153
  7450  0052' 2800'              	goto	u5154
  7451  0053'                    u5153:
  7452  0053' 0282'              	subwf	(??___flge^(0+128)+2),f
  7453  0054'                    u5154:
  7454  0054' 0800'              	movf	(___flge@ff1+3)^(0+128),w
  7455  0055' 1C03               	skipc
  7456  0056' 0F00'              	incfsz	(___flge@ff1+3)^(0+128),w
  7457  0057' 2800'              	goto	u5155
  7458  0058' 2800'              	goto	u5156
  7459  0059'                    u5155:
  7460  0059' 0283'              	subwf	(??___flge^(0+128)+3),f
  7461  005A'                    u5156:
  7462  005A' 0800'              	movf	(??___flge+3)^(0+128),w
  7463  005B' 0080'              	movwf	(___flge@ff1+3)^(0+128)
  7464  005C' 0800'              	movf	(??___flge+2)^(0+128),w
  7465  005D' 0080'              	movwf	(___flge@ff1+2)^(0+128)
  7466  005E' 0800'              	movf	(??___flge+1)^(0+128),w
  7467  005F' 0080'              	movwf	(___flge@ff1+1)^(0+128)
  7468  0060' 0800'              	movf	??___flge^(0+128),w
  7469  0061' 0080'              	movwf	___flge@ff1^(0+128)
  7470  0062'                    l3049:
  7471  0062' 1F80'              	btfss	(___flge@ff2+3)^(0+128),7
  7472  0063' 2800'              	goto	u5161
  7473  0064' 2800'              	goto	u5160
  7474  0065'                    u5161:
  7475  0065' 2800'              	goto	l491
  7476  0066'                    u5160:
  7477  0066'                    l3051:
  7478  0066' 3000               	movlw	0
  7479  0067' 0080'              	movwf	??___flge^(0+128)
  7480  0068' 3000               	movlw	0
  7481  0069' 0081'              	movwf	(??___flge^(0+128)+1)
  7482  006A' 3000               	movlw	0
  7483  006B' 0082'              	movwf	(??___flge^(0+128)+2)
  7484  006C' 3080               	movlw	128
  7485  006D' 0083'              	movwf	(??___flge^(0+128)+3)
  7486  006E' 0800'              	movf	___flge@ff2^(0+128),w
  7487  006F' 0280'              	subwf	??___flge^(0+128),f
  7488  0070' 0800'              	movf	(___flge@ff2+1)^(0+128),w
  7489  0071' 1C03               	skipc
  7490  0072' 0F00'              	incfsz	(___flge@ff2+1)^(0+128),w
  7491  0073' 2800'              	goto	u5171
  7492  0074' 2800'              	goto	u5172
  7493  0075'                    u5171:
  7494  0075' 0281'              	subwf	(??___flge^(0+128)+1),f
  7495  0076'                    u5172:
  7496  0076' 0800'              	movf	(___flge@ff2+2)^(0+128),w
  7497  0077' 1C03               	skipc
  7498  0078' 0F00'              	incfsz	(___flge@ff2+2)^(0+128),w
  7499  0079' 2800'              	goto	u5173
  7500  007A' 2800'              	goto	u5174
  7501  007B'                    u5173:
  7502  007B' 0282'              	subwf	(??___flge^(0+128)+2),f
  7503  007C'                    u5174:
  7504  007C' 0800'              	movf	(___flge@ff2+3)^(0+128),w
  7505  007D' 1C03               	skipc
  7506  007E' 0F00'              	incfsz	(___flge@ff2+3)^(0+128),w
  7507  007F' 2800'              	goto	u5175
  7508  0080' 2800'              	goto	u5176
  7509  0081'                    u5175:
  7510  0081' 0283'              	subwf	(??___flge^(0+128)+3),f
  7511  0082'                    u5176:
  7512  0082' 0800'              	movf	(??___flge+3)^(0+128),w
  7513  0083' 0080'              	movwf	(___flge@ff2+3)^(0+128)
  7514  0084' 0800'              	movf	(??___flge+2)^(0+128),w
  7515  0085' 0080'              	movwf	(___flge@ff2+2)^(0+128)
  7516  0086' 0800'              	movf	(??___flge+1)^(0+128),w
  7517  0087' 0080'              	movwf	(___flge@ff2+1)^(0+128)
  7518  0088' 0800'              	movf	??___flge^(0+128),w
  7519  0089' 0080'              	movwf	___flge@ff2^(0+128)
  7520  008A'                    l491:
  7521  008A' 3080               	movlw	128
  7522  008B' 0680'              	xorwf	(___flge@ff1+3)^(0+128),f
  7523  008C' 3080               	movlw	128
  7524  008D' 0680'              	xorwf	(___flge@ff2+3)^(0+128),f
  7525  008E' 0800'              	movf	(___flge@ff2+3)^(0+128),w
  7526  008F' 0200'              	subwf	(___flge@ff1+3)^(0+128),w
  7527  0090' 1D03               	skipz
  7528  0091' 2800'              	goto	u5185
  7529  0092' 0800'              	movf	(___flge@ff2+2)^(0+128),w
  7530  0093' 0200'              	subwf	(___flge@ff1+2)^(0+128),w
  7531  0094' 1D03               	skipz
  7532  0095' 2800'              	goto	u5185
  7533  0096' 0800'              	movf	(___flge@ff2+1)^(0+128),w
  7534  0097' 0200'              	subwf	(___flge@ff1+1)^(0+128),w
  7535  0098' 1D03               	skipz
  7536  0099' 2800'              	goto	u5185
  7537  009A' 0800'              	movf	___flge@ff2^(0+128),w
  7538  009B' 0200'              	subwf	___flge@ff1^(0+128),w
  7539  009C'                    u5185:
  7540  009C' 1803               	skipnc
  7541  009D' 2800'              	goto	u5181
  7542  009E' 2800'              	goto	u5180
  7543  009F'                    u5181:
  7544  009F' 2800'              	goto	l3055
  7545  00A0'                    u5180:
  7546  00A0'                    l3053:
  7547  00A0' 1003               	clrc
  7548  00A1' 2800'              	goto	l492
  7549  00A2'                    l3055:
  7550  00A2' 1403               	setc
  7551  00A3'                    l492:
  7552  00A3' 0008               	return
  7553  00A4'                    __end_of___flge:
  7554                           
  7555                           	psect	text21
  7556  0000'                    __ptext21:	
  7557 ;; *************** function ___fleq *****************
  7558 ;; Defined at:
  7559 ;;		line 4 in file "C:\Program Files\Microchip\xc8\v2.40\pic\sources\c90\common\fleq.c"
  7560 ;; Parameters:    Size  Location     Type
  7561 ;;  ff1             4    0[COMMON] unsigned char 
  7562 ;;  ff2             4    4[COMMON] unsigned char 
  7563 ;; Auto vars:     Size  Location     Type
  7564 ;;		None
  7565 ;; Return value:  Size  Location     Type
  7566 ;;		None               void
  7567 ;; Registers used:
  7568 ;;		wreg, status,2, status,0
  7569 ;; Tracked objects:
  7570 ;;		On entry : 0/0
  7571 ;;		On exit  : 0/0
  7572 ;;		Unchanged: 0/0
  7573 ;; Data sizes:     COMMON   BANK0   BANK1   BANK3   BANK2
  7574 ;;      Params:         8       0       0       0       0
  7575 ;;      Locals:         0       0       0       0       0
  7576 ;;      Temps:          4       0       0       0       0
  7577 ;;      Totals:        12       0       0       0       0
  7578 ;;Total ram usage:       12 bytes
  7579 ;; Hardware stack levels used: 1
  7580 ;; This function calls:
  7581 ;;		Nothing
  7582 ;; This function is called by:
  7583 ;;		_sprintf
  7584 ;; This function uses a non-reentrant model
  7585 ;;
  7586                           
  7587  0000'                    ___fleq:	
  7588                           ;psect for function ___fleq
  7589                           
  7590  0000'                    l3027:	
  7591                           ;incstack = 0
  7592                           ; Regs used in ___fleq: [wreg+status,2+status,0]
  7593                           
  7594  0000' 3000               	movlw	0
  7595  0001' 0500'              	andwf	___fleq@ff1,w
  7596  0002' 0088'              	movwf	??___fleq
  7597  0003' 3000               	movlw	0
  7598  0004' 0501'              	andwf	___fleq@ff1+1,w
  7599  0005' 0089'              	movwf	??___fleq+1
  7600  0006' 3080               	movlw	128
  7601  0007' 0502'              	andwf	___fleq@ff1+2,w
  7602  0008' 008A'              	movwf	??___fleq+2
  7603  0009' 307F               	movlw	127
  7604  000A' 0503'              	andwf	___fleq@ff1+3,w
  7605  000B' 008B'              	movwf	??___fleq+3
  7606  000C' 080B'              	movf	??___fleq+3,w
  7607  000D' 040A'              	iorwf	??___fleq+2,w
  7608  000E' 0409'              	iorwf	??___fleq+1,w
  7609  000F' 0408'              	iorwf	??___fleq,w
  7610  0010' 1D03               	skipz
  7611  0011' 2800'              	goto	u5091
  7612  0012' 2800'              	goto	u5090
  7613  0013'                    u5091:
  7614  0013' 2800'              	goto	l483
  7615  0014'                    u5090:
  7616  0014'                    l3029:
  7617  0014' 3000               	movlw	0
  7618  0015' 0083'              	movwf	___fleq@ff1+3
  7619  0016' 3000               	movlw	0
  7620  0017' 0082'              	movwf	___fleq@ff1+2
  7621  0018' 3000               	movlw	0
  7622  0019' 0081'              	movwf	___fleq@ff1+1
  7623  001A' 3000               	movlw	0
  7624  001B' 0080'              	movwf	___fleq@ff1
  7625  001C'                    l483:
  7626  001C' 3000               	movlw	0
  7627  001D' 0504'              	andwf	___fleq@ff2,w
  7628  001E' 0088'              	movwf	??___fleq
  7629  001F' 3000               	movlw	0
  7630  0020' 0505'              	andwf	___fleq@ff2+1,w
  7631  0021' 0089'              	movwf	??___fleq+1
  7632  0022' 3080               	movlw	128
  7633  0023' 0506'              	andwf	___fleq@ff2+2,w
  7634  0024' 008A'              	movwf	??___fleq+2
  7635  0025' 307F               	movlw	127
  7636  0026' 0507'              	andwf	___fleq@ff2+3,w
  7637  0027' 008B'              	movwf	??___fleq+3
  7638  0028' 080B'              	movf	??___fleq+3,w
  7639  0029' 040A'              	iorwf	??___fleq+2,w
  7640  002A' 0409'              	iorwf	??___fleq+1,w
  7641  002B' 0408'              	iorwf	??___fleq,w
  7642  002C' 1D03               	skipz
  7643  002D' 2800'              	goto	u5101
  7644  002E' 2800'              	goto	u5100
  7645  002F'                    u5101:
  7646  002F' 2800'              	goto	l484
  7647  0030'                    u5100:
  7648  0030'                    l3031:
  7649  0030' 3000               	movlw	0
  7650  0031' 0087'              	movwf	___fleq@ff2+3
  7651  0032' 3000               	movlw	0
  7652  0033' 0086'              	movwf	___fleq@ff2+2
  7653  0034' 3000               	movlw	0
  7654  0035' 0085'              	movwf	___fleq@ff2+1
  7655  0036' 3000               	movlw	0
  7656  0037' 0084'              	movwf	___fleq@ff2
  7657  0038'                    l484:
  7658  0038' 0807'              	movf	___fleq@ff2+3,w
  7659  0039' 0603'              	xorwf	___fleq@ff1+3,w
  7660  003A' 1D03               	skipz
  7661  003B' 2800'              	goto	u5115
  7662  003C' 0806'              	movf	___fleq@ff2+2,w
  7663  003D' 0602'              	xorwf	___fleq@ff1+2,w
  7664  003E' 1D03               	skipz
  7665  003F' 2800'              	goto	u5115
  7666  0040' 0805'              	movf	___fleq@ff2+1,w
  7667  0041' 0601'              	xorwf	___fleq@ff1+1,w
  7668  0042' 1D03               	skipz
  7669  0043' 2800'              	goto	u5115
  7670  0044' 0804'              	movf	___fleq@ff2,w
  7671  0045' 0600'              	xorwf	___fleq@ff1,w
  7672  0046'                    u5115:
  7673  0046' 1903               	skipnz
  7674  0047' 2800'              	goto	u5111
  7675  0048' 2800'              	goto	u5110
  7676  0049'                    u5111:
  7677  0049' 2800'              	goto	l3035
  7678  004A'                    u5110:
  7679  004A'                    l3033:
  7680  004A' 1003               	clrc
  7681  004B' 2800'              	goto	l485
  7682  004C'                    l3035:
  7683  004C' 1403               	setc
  7684  004D'                    l485:
  7685  004D' 0008               	return
  7686  004E'                    __end_of___fleq:
  7687                           
  7688                           	psect	text22
  7689  0000'                    __ptext22:	
  7690 ;; *************** function ___fldiv *****************
  7691 ;; Defined at:
  7692 ;;		line 8 in file "C:\Program Files\Microchip\xc8\v2.40\pic\sources\c90\common\sprcdiv.c"
  7693 ;; Parameters:    Size  Location     Type
  7694 ;;  a               4   59[BANK0 ] unsigned char 
  7695 ;;  b               4   63[BANK0 ] unsigned char 
  7696 ;; Auto vars:     Size  Location     Type
  7697 ;;  grs             4    7[BANK1 ] unsigned long 
  7698 ;;  rem             4    0[BANK1 ] unsigned long 
  7699 ;;  new_exp         2    5[BANK1 ] int 
  7700 ;;  aexp            1   12[BANK1 ] unsigned char 
  7701 ;;  bexp            1   11[BANK1 ] unsigned char 
  7702 ;;  sign            1    4[BANK1 ] unsigned char 
  7703 ;; Return value:  Size  Location     Type
  7704 ;;                  4   59[BANK0 ] unsigned char 
  7705 ;; Registers used:
  7706 ;;		wreg, status,2, status,0, btemp+1
  7707 ;; Tracked objects:
  7708 ;;		On entry : 0/0
  7709 ;;		On exit  : 0/0
  7710 ;;		Unchanged: 0/0
  7711 ;; Data sizes:     COMMON   BANK0   BANK1   BANK3   BANK2
  7712 ;;      Params:         0       8       0       0       0
  7713 ;;      Locals:         0       0      13       0       0
  7714 ;;      Temps:          0       5       0       0       0
  7715 ;;      Totals:         0      13      13       0       0
  7716 ;;Total ram usage:       26 bytes
  7717 ;; Hardware stack levels used: 1
  7718 ;; This function calls:
  7719 ;;		Nothing
  7720 ;; This function is called by:
  7721 ;;		_sprintf
  7722 ;; This function uses a non-reentrant model
  7723 ;;
  7724                           
  7725  0000'                    ___fldiv:	
  7726                           ;psect for function ___fldiv
  7727                           
  7728  0000'                    l3129:	
  7729                           ;incstack = 0
  7730                           ; Regs used in ___fldiv: [wreg+status,2+status,0+btemp+1]
  7731                           
  7732  0000' 1283               	bcf	3,5	;RP0=0, select bank0
  7733  0001' 1303               	bcf	3,6	;RP1=0, select bank0
  7734  0002' 0842'              	movf	___fldiv@b+3,w
  7735  0003' 3980               	andlw	128
  7736  0004' 1683               	bsf	3,5	;RP0=1, select bank1
  7737  0005' 1303               	bcf	3,6	;RP1=0, select bank1
  7738  0006' 0080'              	movwf	___fldiv@sign^(0+128)
  7739  0007'                    l3131:
  7740  0007' 1283               	bcf	3,5	;RP0=0, select bank0
  7741  0008' 1303               	bcf	3,6	;RP1=0, select bank0
  7742  0009' 0842'              	movf	___fldiv@b+3,w
  7743  000A' 00C3'              	movwf	??___fldiv
  7744  000B' 0743'              	addwf	??___fldiv,w
  7745  000C' 1683               	bsf	3,5	;RP0=1, select bank1
  7746  000D' 1303               	bcf	3,6	;RP1=0, select bank1
  7747  000E' 0080'              	movwf	___fldiv@bexp^(0+128)
  7748  000F'                    l3133:
  7749  000F' 1283               	bcf	3,5	;RP0=0, select bank0
  7750  0010' 1303               	bcf	3,6	;RP1=0, select bank0
  7751  0011' 1FC1'              	btfss	___fldiv@b+2,7
  7752  0012' 2800'              	goto	u5361
  7753  0013' 2800'              	goto	u5360
  7754  0014'                    u5361:
  7755  0014' 2800'              	goto	l3137
  7756  0015'                    u5360:
  7757  0015'                    l3135:
  7758  0015' 1683               	bsf	3,5	;RP0=1, select bank1
  7759  0016' 1303               	bcf	3,6	;RP1=0, select bank1
  7760  0017' 1400'              	bsf	___fldiv@bexp^(0+128),0
  7761  0018'                    l3137:
  7762  0018' 1683               	bsf	3,5	;RP0=1, select bank1
  7763  0019' 1303               	bcf	3,6	;RP1=0, select bank1
  7764  001A' 0800'              	movf	___fldiv@bexp^(0+128),w
  7765  001B' 1903               	btfsc	3,2
  7766  001C' 2800'              	goto	u5371
  7767  001D' 2800'              	goto	u5370
  7768  001E'                    u5371:
  7769  001E' 2800'              	goto	l3147
  7770  001F'                    u5370:
  7771  001F'                    l3139:
  7772  001F' 0A00'              	incf	___fldiv@bexp^(0+128),w
  7773  0020' 1D03               	btfss	3,2
  7774  0021' 2800'              	goto	u5381
  7775  0022' 2800'              	goto	u5380
  7776  0023'                    u5381:
  7777  0023' 2800'              	goto	l3143
  7778  0024'                    u5380:
  7779  0024'                    l3141:
  7780  0024' 3000               	movlw	0
  7781  0025' 1283               	bcf	3,5	;RP0=0, select bank0
  7782  0026' 1303               	bcf	3,6	;RP1=0, select bank0
  7783  0027' 00C2'              	movwf	___fldiv@b+3
  7784  0028' 3000               	movlw	0
  7785  0029' 00C1'              	movwf	___fldiv@b+2
  7786  002A' 3000               	movlw	0
  7787  002B' 00C0'              	movwf	___fldiv@b+1
  7788  002C' 3000               	movlw	0
  7789  002D' 00BF'              	movwf	___fldiv@b
  7790  002E'                    l3143:
  7791  002E' 1283               	bcf	3,5	;RP0=0, select bank0
  7792  002F' 17C1'              	bsf	___fldiv@b+2,7
  7793  0030'                    l3145:
  7794  0030' 01C2'              	clrf	___fldiv@b+3
  7795  0031' 2800'              	goto	l3149
  7796  0032'                    l3147:
  7797  0032' 3000               	movlw	0
  7798  0033' 1283               	bcf	3,5	;RP0=0, select bank0
  7799  0034' 1303               	bcf	3,6	;RP1=0, select bank0
  7800  0035' 00C2'              	movwf	___fldiv@b+3
  7801  0036' 3000               	movlw	0
  7802  0037' 00C1'              	movwf	___fldiv@b+2
  7803  0038' 3000               	movlw	0
  7804  0039' 00C0'              	movwf	___fldiv@b+1
  7805  003A' 3000               	movlw	0
  7806  003B' 00BF'              	movwf	___fldiv@b
  7807  003C'                    l3149:
  7808  003C' 083E'              	movf	___fldiv@a+3,w
  7809  003D' 3980               	andlw	128
  7810  003E' 00C3'              	movwf	??___fldiv
  7811  003F' 0843'              	movf	??___fldiv,w
  7812  0040' 1683               	bsf	3,5	;RP0=1, select bank1
  7813  0041' 1303               	bcf	3,6	;RP1=0, select bank1
  7814  0042' 0680'              	xorwf	___fldiv@sign^(0+128),f
  7815  0043'                    l3151:
  7816  0043' 1283               	bcf	3,5	;RP0=0, select bank0
  7817  0044' 1303               	bcf	3,6	;RP1=0, select bank0
  7818  0045' 083E'              	movf	___fldiv@a+3,w
  7819  0046' 00C3'              	movwf	??___fldiv
  7820  0047' 0743'              	addwf	??___fldiv,w
  7821  0048' 1683               	bsf	3,5	;RP0=1, select bank1
  7822  0049' 1303               	bcf	3,6	;RP1=0, select bank1
  7823  004A' 0080'              	movwf	___fldiv@aexp^(0+128)
  7824  004B'                    l3153:
  7825  004B' 1283               	bcf	3,5	;RP0=0, select bank0
  7826  004C' 1303               	bcf	3,6	;RP1=0, select bank0
  7827  004D' 1FBD'              	btfss	___fldiv@a+2,7
  7828  004E' 2800'              	goto	u5391
  7829  004F' 2800'              	goto	u5390
  7830  0050'                    u5391:
  7831  0050' 2800'              	goto	l3157
  7832  0051'                    u5390:
  7833  0051'                    l3155:
  7834  0051' 1683               	bsf	3,5	;RP0=1, select bank1
  7835  0052' 1303               	bcf	3,6	;RP1=0, select bank1
  7836  0053' 1400'              	bsf	___fldiv@aexp^(0+128),0
  7837  0054'                    l3157:
  7838  0054' 1683               	bsf	3,5	;RP0=1, select bank1
  7839  0055' 1303               	bcf	3,6	;RP1=0, select bank1
  7840  0056' 0800'              	movf	___fldiv@aexp^(0+128),w
  7841  0057' 1903               	btfsc	3,2
  7842  0058' 2800'              	goto	u5401
  7843  0059' 2800'              	goto	u5400
  7844  005A'                    u5401:
  7845  005A' 2800'              	goto	l3167
  7846  005B'                    u5400:
  7847  005B'                    l3159:
  7848  005B' 0A00'              	incf	___fldiv@aexp^(0+128),w
  7849  005C' 1D03               	btfss	3,2
  7850  005D' 2800'              	goto	u5411
  7851  005E' 2800'              	goto	u5410
  7852  005F'                    u5411:
  7853  005F' 2800'              	goto	l3163
  7854  0060'                    u5410:
  7855  0060'                    l3161:
  7856  0060' 3000               	movlw	0
  7857  0061' 1283               	bcf	3,5	;RP0=0, select bank0
  7858  0062' 1303               	bcf	3,6	;RP1=0, select bank0
  7859  0063' 00BE'              	movwf	___fldiv@a+3
  7860  0064' 3000               	movlw	0
  7861  0065' 00BD'              	movwf	___fldiv@a+2
  7862  0066' 3000               	movlw	0
  7863  0067' 00BC'              	movwf	___fldiv@a+1
  7864  0068' 3000               	movlw	0
  7865  0069' 00BB'              	movwf	___fldiv@a
  7866  006A'                    l3163:
  7867  006A' 1283               	bcf	3,5	;RP0=0, select bank0
  7868  006B' 17BD'              	bsf	___fldiv@a+2,7
  7869  006C'                    l3165:
  7870  006C' 01BE'              	clrf	___fldiv@a+3
  7871  006D' 2800'              	goto	l680
  7872  006E'                    l3167:
  7873  006E' 3000               	movlw	0
  7874  006F' 1283               	bcf	3,5	;RP0=0, select bank0
  7875  0070' 1303               	bcf	3,6	;RP1=0, select bank0
  7876  0071' 00BE'              	movwf	___fldiv@a+3
  7877  0072' 3000               	movlw	0
  7878  0073' 00BD'              	movwf	___fldiv@a+2
  7879  0074' 3000               	movlw	0
  7880  0075' 00BC'              	movwf	___fldiv@a+1
  7881  0076' 3000               	movlw	0
  7882  0077' 00BB'              	movwf	___fldiv@a
  7883  0078'                    l680:
  7884  0078' 083E'              	movf	___fldiv@a+3,w
  7885  0079' 043D'              	iorwf	___fldiv@a+2,w
  7886  007A' 043C'              	iorwf	___fldiv@a+1,w
  7887  007B' 043B'              	iorwf	___fldiv@a,w
  7888  007C' 1D03               	skipz
  7889  007D' 2800'              	goto	u5421
  7890  007E' 2800'              	goto	u5420
  7891  007F'                    u5421:
  7892  007F' 2800'              	goto	l3177
  7893  0080'                    u5420:
  7894  0080'                    l3169:
  7895  0080' 3000               	movlw	0
  7896  0081' 00C2'              	movwf	___fldiv@b+3
  7897  0082' 3000               	movlw	0
  7898  0083' 00C1'              	movwf	___fldiv@b+2
  7899  0084' 3000               	movlw	0
  7900  0085' 00C0'              	movwf	___fldiv@b+1
  7901  0086' 3000               	movlw	0
  7902  0087' 00BF'              	movwf	___fldiv@b
  7903  0088' 3080               	movlw	128
  7904  0089' 04C1'              	iorwf	___fldiv@b+2,f
  7905  008A' 307F               	movlw	127
  7906  008B' 04C2'              	iorwf	___fldiv@b+3,f
  7907  008C'                    l3171:
  7908  008C' 1683               	bsf	3,5	;RP0=1, select bank1
  7909  008D' 1303               	bcf	3,6	;RP1=0, select bank1
  7910  008E' 0800'              	movf	___fldiv@sign^(0+128),w
  7911  008F' 1283               	bcf	3,5	;RP0=0, select bank0
  7912  0090' 1303               	bcf	3,6	;RP1=0, select bank0
  7913  0091' 00C3'              	movwf	??___fldiv
  7914  0092' 0843'              	movf	??___fldiv,w
  7915  0093' 04C2'              	iorwf	___fldiv@b+3,f
  7916  0094'                    l3173:
  7917  0094' 0842'              	movf	___fldiv@b+3,w
  7918  0095' 00BE'              	movwf	?___fldiv+3
  7919  0096' 0841'              	movf	___fldiv@b+2,w
  7920  0097' 00BD'              	movwf	?___fldiv+2
  7921  0098' 0840'              	movf	___fldiv@b+1,w
  7922  0099' 00BC'              	movwf	?___fldiv+1
  7923  009A' 083F'              	movf	___fldiv@b,w
  7924  009B' 00BB'              	movwf	?___fldiv
  7925  009C' 2800'              	goto	l682
  7926  009D'                    l3177:
  7927  009D' 1683               	bsf	3,5	;RP0=1, select bank1
  7928  009E' 1303               	bcf	3,6	;RP1=0, select bank1
  7929  009F' 0800'              	movf	___fldiv@bexp^(0+128),w
  7930  00A0' 1D03               	btfss	3,2
  7931  00A1' 2800'              	goto	u5431
  7932  00A2' 2800'              	goto	u5430
  7933  00A3'                    u5431:
  7934  00A3' 2800'              	goto	l3183
  7935  00A4'                    u5430:
  7936  00A4'                    l3179:
  7937  00A4' 3000               	movlw	0
  7938  00A5' 1283               	bcf	3,5	;RP0=0, select bank0
  7939  00A6' 1303               	bcf	3,6	;RP1=0, select bank0
  7940  00A7' 00BE'              	movwf	?___fldiv+3
  7941  00A8' 3000               	movlw	0
  7942  00A9' 00BD'              	movwf	?___fldiv+2
  7943  00AA' 3000               	movlw	0
  7944  00AB' 00BC'              	movwf	?___fldiv+1
  7945  00AC' 3000               	movlw	0
  7946  00AD' 00BB'              	movwf	?___fldiv
  7947  00AE' 2800'              	goto	l682
  7948  00AF'                    l3183:
  7949  00AF' 0800'              	movf	___fldiv@bexp^(0+128),w
  7950  00B0' 1283               	bcf	3,5	;RP0=0, select bank0
  7951  00B1' 1303               	bcf	3,6	;RP1=0, select bank0
  7952  00B2' 00C3'              	movwf	??___fldiv
  7953  00B3' 01C4'              	clrf	??___fldiv+1
  7954  00B4' 0844'              	movf	??___fldiv+1,w
  7955  00B5' 00C6'              	movwf	??___fldiv+3
  7956  00B6' 1683               	bsf	3,5	;RP0=1, select bank1
  7957  00B7' 1303               	bcf	3,6	;RP1=0, select bank1
  7958  00B8' 0800'              	movf	___fldiv@aexp^(0+128),w
  7959  00B9' 1283               	bcf	3,5	;RP0=0, select bank0
  7960  00BA' 1303               	bcf	3,6	;RP1=0, select bank0
  7961  00BB' 0243'              	subwf	??___fldiv,w
  7962  00BC' 00C5'              	movwf	??___fldiv+2
  7963  00BD' 1C03               	skipc
  7964  00BE' 03C6'              	decf	??___fldiv+3,f
  7965  00BF' 0845'              	movf	??___fldiv+2,w
  7966  00C0' 3E7F               	addlw	127
  7967  00C1' 1683               	bsf	3,5	;RP0=1, select bank1
  7968  00C2' 1303               	bcf	3,6	;RP1=0, select bank1
  7969  00C3' 0080'              	movwf	___fldiv@new_exp^(0+128)
  7970  00C4' 1283               	bcf	3,5	;RP0=0, select bank0
  7971  00C5' 1303               	bcf	3,6	;RP1=0, select bank0
  7972  00C6' 0846'              	movf	??___fldiv+3,w
  7973  00C7' 1803               	skipnc
  7974  00C8' 3E01               	addlw	1
  7975  00C9' 3E00               	addlw	0
  7976  00CA' 1683               	bsf	3,5	;RP0=1, select bank1
  7977  00CB' 1303               	bcf	3,6	;RP1=0, select bank1
  7978  00CC' 0080'              	movwf	(___fldiv@new_exp+1)^(0+128)
  7979  00CD'                    l3185:
  7980  00CD' 1283               	bcf	3,5	;RP0=0, select bank0
  7981  00CE' 1303               	bcf	3,6	;RP1=0, select bank0
  7982  00CF' 0842'              	movf	___fldiv@b+3,w
  7983  00D0' 1683               	bsf	3,5	;RP0=1, select bank1
  7984  00D1' 1303               	bcf	3,6	;RP1=0, select bank1
  7985  00D2' 0080'              	movwf	(___fldiv@rem+3)^(0+128)
  7986  00D3' 1283               	bcf	3,5	;RP0=0, select bank0
  7987  00D4' 1303               	bcf	3,6	;RP1=0, select bank0
  7988  00D5' 0841'              	movf	___fldiv@b+2,w
  7989  00D6' 1683               	bsf	3,5	;RP0=1, select bank1
  7990  00D7' 1303               	bcf	3,6	;RP1=0, select bank1
  7991  00D8' 0080'              	movwf	(___fldiv@rem+2)^(0+128)
  7992  00D9' 1283               	bcf	3,5	;RP0=0, select bank0
  7993  00DA' 1303               	bcf	3,6	;RP1=0, select bank0
  7994  00DB' 0840'              	movf	___fldiv@b+1,w
  7995  00DC' 1683               	bsf	3,5	;RP0=1, select bank1
  7996  00DD' 1303               	bcf	3,6	;RP1=0, select bank1
  7997  00DE' 0080'              	movwf	(___fldiv@rem+1)^(0+128)
  7998  00DF' 1283               	bcf	3,5	;RP0=0, select bank0
  7999  00E0' 1303               	bcf	3,6	;RP1=0, select bank0
  8000  00E1' 083F'              	movf	___fldiv@b,w
  8001  00E2' 1683               	bsf	3,5	;RP0=1, select bank1
  8002  00E3' 1303               	bcf	3,6	;RP1=0, select bank1
  8003  00E4' 0080'              	movwf	___fldiv@rem^(0+128)
  8004  00E5'                    l3187:
  8005  00E5' 3000               	movlw	0
  8006  00E6' 1283               	bcf	3,5	;RP0=0, select bank0
  8007  00E7' 1303               	bcf	3,6	;RP1=0, select bank0
  8008  00E8' 00C2'              	movwf	___fldiv@b+3
  8009  00E9' 3000               	movlw	0
  8010  00EA' 00C1'              	movwf	___fldiv@b+2
  8011  00EB' 3000               	movlw	0
  8012  00EC' 00C0'              	movwf	___fldiv@b+1
  8013  00ED' 3000               	movlw	0
  8014  00EE' 00BF'              	movwf	___fldiv@b
  8015  00EF'                    l3189:
  8016  00EF' 3000               	movlw	0
  8017  00F0' 1683               	bsf	3,5	;RP0=1, select bank1
  8018  00F1' 1303               	bcf	3,6	;RP1=0, select bank1
  8019  00F2' 0080'              	movwf	(___fldiv@grs+3)^(0+128)
  8020  00F3' 3000               	movlw	0
  8021  00F4' 0080'              	movwf	(___fldiv@grs+2)^(0+128)
  8022  00F5' 3000               	movlw	0
  8023  00F6' 0080'              	movwf	(___fldiv@grs+1)^(0+128)
  8024  00F7' 3000               	movlw	0
  8025  00F8' 0080'              	movwf	___fldiv@grs^(0+128)
  8026  00F9'                    l3191:
  8027  00F9' 0180'              	clrf	___fldiv@aexp^(0+128)
  8028  00FA' 2800'              	goto	l3211
  8029  00FB'                    l3193:
  8030  00FB' 0800'              	movf	___fldiv@aexp^(0+128),w
  8031  00FC' 1903               	btfsc	3,2
  8032  00FD' 2800'              	goto	u5441
  8033  00FE' 2800'              	goto	u5440
  8034  00FF'                    u5441:
  8035  00FF' 2800'              	goto	l3203
  8036  0100'                    u5440:
  8037  0100'                    l3195:
  8038  0100' 3001               	movlw	1
  8039  0101' 1283               	bcf	3,5	;RP0=0, select bank0
  8040  0102' 1303               	bcf	3,6	;RP1=0, select bank0
  8041  0103' 00C3'              	movwf	??___fldiv
  8042  0104'                    u5455:
  8043  0104' 1003               	clrc
  8044  0105' 1683               	bsf	3,5	;RP0=1, select bank1
  8045  0106' 1303               	bcf	3,6	;RP1=0, select bank1
  8046  0107' 0D80'              	rlf	___fldiv@rem^(0+128),f
  8047  0108' 0D80'              	rlf	(___fldiv@rem+1)^(0+128),f
  8048  0109' 0D80'              	rlf	(___fldiv@rem+2)^(0+128),f
  8049  010A' 0D80'              	rlf	(___fldiv@rem+3)^(0+128),f
  8050  010B' 1283               	bcf	3,5	;RP0=0, select bank0
  8051  010C' 1303               	bcf	3,6	;RP1=0, select bank0
  8052  010D' 0BC3'              	decfsz	??___fldiv,f
  8053  010E' 2800'              	goto	u5455
  8054  010F' 3001               	movlw	1
  8055  0110' 00C3'              	movwf	??___fldiv
  8056  0111'                    u5465:
  8057  0111' 1003               	clrc
  8058  0112' 0DBF'              	rlf	___fldiv@b,f
  8059  0113' 0DC0'              	rlf	___fldiv@b+1,f
  8060  0114' 0DC1'              	rlf	___fldiv@b+2,f
  8061  0115' 0DC2'              	rlf	___fldiv@b+3,f
  8062  0116' 0BC3'              	decfsz	??___fldiv,f
  8063  0117' 2800'              	goto	u5465
  8064  0118'                    l3197:
  8065  0118' 1683               	bsf	3,5	;RP0=1, select bank1
  8066  0119' 1303               	bcf	3,6	;RP1=0, select bank1
  8067  011A' 1F80'              	btfss	(___fldiv@grs+3)^(0+128),7
  8068  011B' 2800'              	goto	u5471
  8069  011C' 2800'              	goto	u5470
  8070  011D'                    u5471:
  8071  011D' 2800'              	goto	l3201
  8072  011E'                    u5470:
  8073  011E'                    l3199:
  8074  011E' 1283               	bcf	3,5	;RP0=0, select bank0
  8075  011F' 1303               	bcf	3,6	;RP1=0, select bank0
  8076  0120' 143F'              	bsf	___fldiv@b,0
  8077  0121'                    l3201:
  8078  0121' 3001               	movlw	1
  8079  0122' 1283               	bcf	3,5	;RP0=0, select bank0
  8080  0123' 00C3'              	movwf	??___fldiv
  8081  0124'                    u5485:
  8082  0124' 1003               	clrc
  8083  0125' 1683               	bsf	3,5	;RP0=1, select bank1
  8084  0126' 1303               	bcf	3,6	;RP1=0, select bank1
  8085  0127' 0D80'              	rlf	___fldiv@grs^(0+128),f
  8086  0128' 0D80'              	rlf	(___fldiv@grs+1)^(0+128),f
  8087  0129' 0D80'              	rlf	(___fldiv@grs+2)^(0+128),f
  8088  012A' 0D80'              	rlf	(___fldiv@grs+3)^(0+128),f
  8089  012B' 1283               	bcf	3,5	;RP0=0, select bank0
  8090  012C' 1303               	bcf	3,6	;RP1=0, select bank0
  8091  012D' 0BC3'              	decfsz	??___fldiv,f
  8092  012E' 2800'              	goto	u5485
  8093  012F'                    l3203:
  8094  012F' 1283               	bcf	3,5	;RP0=0, select bank0
  8095  0130' 083E'              	movf	___fldiv@a+3,w
  8096  0131' 1683               	bsf	3,5	;RP0=1, select bank1
  8097  0132' 1303               	bcf	3,6	;RP1=0, select bank1
  8098  0133' 0200'              	subwf	(___fldiv@rem+3)^(0+128),w
  8099  0134' 1D03               	skipz
  8100  0135' 2800'              	goto	u5495
  8101  0136' 1283               	bcf	3,5	;RP0=0, select bank0
  8102  0137' 1303               	bcf	3,6	;RP1=0, select bank0
  8103  0138' 083D'              	movf	___fldiv@a+2,w
  8104  0139' 1683               	bsf	3,5	;RP0=1, select bank1
  8105  013A' 1303               	bcf	3,6	;RP1=0, select bank1
  8106  013B' 0200'              	subwf	(___fldiv@rem+2)^(0+128),w
  8107  013C' 1D03               	skipz
  8108  013D' 2800'              	goto	u5495
  8109  013E' 1283               	bcf	3,5	;RP0=0, select bank0
  8110  013F' 1303               	bcf	3,6	;RP1=0, select bank0
  8111  0140' 083C'              	movf	___fldiv@a+1,w
  8112  0141' 1683               	bsf	3,5	;RP0=1, select bank1
  8113  0142' 1303               	bcf	3,6	;RP1=0, select bank1
  8114  0143' 0200'              	subwf	(___fldiv@rem+1)^(0+128),w
  8115  0144' 1D03               	skipz
  8116  0145' 2800'              	goto	u5495
  8117  0146' 1283               	bcf	3,5	;RP0=0, select bank0
  8118  0147' 1303               	bcf	3,6	;RP1=0, select bank0
  8119  0148' 083B'              	movf	___fldiv@a,w
  8120  0149' 1683               	bsf	3,5	;RP0=1, select bank1
  8121  014A' 1303               	bcf	3,6	;RP1=0, select bank1
  8122  014B' 0200'              	subwf	___fldiv@rem^(0+128),w
  8123  014C'                    u5495:
  8124  014C' 1C03               	skipc
  8125  014D' 2800'              	goto	u5491
  8126  014E' 2800'              	goto	u5490
  8127  014F'                    u5491:
  8128  014F' 2800'              	goto	l3209
  8129  0150'                    u5490:
  8130  0150'                    l3205:
  8131  0150' 1703'              	bsf	(___fldiv@grs^(0+128)+3),6
  8132  0151'                    l3207:
  8133  0151' 1283               	bcf	3,5	;RP0=0, select bank0
  8134  0152' 1303               	bcf	3,6	;RP1=0, select bank0
  8135  0153' 083B'              	movf	___fldiv@a,w
  8136  0154' 1683               	bsf	3,5	;RP0=1, select bank1
  8137  0155' 1303               	bcf	3,6	;RP1=0, select bank1
  8138  0156' 0280'              	subwf	___fldiv@rem^(0+128),f
  8139  0157' 1283               	bcf	3,5	;RP0=0, select bank0
  8140  0158' 1303               	bcf	3,6	;RP1=0, select bank0
  8141  0159' 083C'              	movf	___fldiv@a+1,w
  8142  015A' 1C03               	skipc
  8143  015B' 0F3C'              	incfsz	___fldiv@a+1,w
  8144  015C' 2800'              	goto	u5505
  8145  015D' 2800'              	goto	u5506
  8146  015E'                    u5505:
  8147  015E' 1683               	bsf	3,5	;RP0=1, select bank1
  8148  015F' 1303               	bcf	3,6	;RP1=0, select bank1
  8149  0160' 0280'              	subwf	(___fldiv@rem+1)^(0+128),f
  8150  0161'                    u5506:
  8151  0161' 1283               	bcf	3,5	;RP0=0, select bank0
  8152  0162' 1303               	bcf	3,6	;RP1=0, select bank0
  8153  0163' 083D'              	movf	___fldiv@a+2,w
  8154  0164' 1C03               	skipc
  8155  0165' 0F3D'              	incfsz	___fldiv@a+2,w
  8156  0166' 2800'              	goto	u5507
  8157  0167' 2800'              	goto	u5508
  8158  0168'                    u5507:
  8159  0168' 1683               	bsf	3,5	;RP0=1, select bank1
  8160  0169' 1303               	bcf	3,6	;RP1=0, select bank1
  8161  016A' 0280'              	subwf	(___fldiv@rem+2)^(0+128),f
  8162  016B'                    u5508:
  8163  016B' 1283               	bcf	3,5	;RP0=0, select bank0
  8164  016C' 1303               	bcf	3,6	;RP1=0, select bank0
  8165  016D' 083E'              	movf	___fldiv@a+3,w
  8166  016E' 1C03               	skipc
  8167  016F' 0F3E'              	incfsz	___fldiv@a+3,w
  8168  0170' 2800'              	goto	u5509
  8169  0171' 2800'              	goto	u5500
  8170  0172'                    u5509:
  8171  0172' 1683               	bsf	3,5	;RP0=1, select bank1
  8172  0173' 1303               	bcf	3,6	;RP1=0, select bank1
  8173  0174' 0280'              	subwf	(___fldiv@rem+3)^(0+128),f
  8174  0175'                    u5500:
  8175  0175' 1283               	bcf	3,5	;RP0=0, select bank0
  8176  0176' 1303               	bcf	3,6	;RP1=0, select bank0
  8177  0177' 1683               	bsf	3,5	;RP0=1, select bank1
  8178  0178' 1303               	bcf	3,6	;RP1=0, select bank1
  8179  0179'                    l3209:
  8180  0179' 3001               	movlw	1
  8181  017A' 1283               	bcf	3,5	;RP0=0, select bank0
  8182  017B' 1303               	bcf	3,6	;RP1=0, select bank0
  8183  017C' 00C3'              	movwf	??___fldiv
  8184  017D' 0843'              	movf	??___fldiv,w
  8185  017E' 1683               	bsf	3,5	;RP0=1, select bank1
  8186  017F' 1303               	bcf	3,6	;RP1=0, select bank1
  8187  0180' 0780'              	addwf	___fldiv@aexp^(0+128),f
  8188  0181'                    l3211:
  8189  0181' 301A               	movlw	26
  8190  0182' 0200'              	subwf	___fldiv@aexp^(0+128),w
  8191  0183' 1C03               	skipc
  8192  0184' 2800'              	goto	u5511
  8193  0185' 2800'              	goto	u5510
  8194  0186'                    u5511:
  8195  0186' 2800'              	goto	l3193
  8196  0187'                    u5510:
  8197  0187'                    l3213:
  8198  0187' 0800'              	movf	(___fldiv@rem+3)^(0+128),w
  8199  0188' 0400'              	iorwf	(___fldiv@rem+2)^(0+128),w
  8200  0189' 0400'              	iorwf	(___fldiv@rem+1)^(0+128),w
  8201  018A' 0400'              	iorwf	___fldiv@rem^(0+128),w
  8202  018B' 1903               	skipnz
  8203  018C' 2800'              	goto	u5521
  8204  018D' 2800'              	goto	u5520
  8205  018E'                    u5521:
  8206  018E' 2800'              	goto	l3227
  8207  018F'                    u5520:
  8208  018F'                    l3215:
  8209  018F' 1400'              	bsf	___fldiv@grs^(0+128),0
  8210  0190' 2800'              	goto	l3227
  8211  0191'                    l3217:
  8212  0191' 3001               	movlw	1
  8213  0192' 00C3'              	movwf	??___fldiv
  8214  0193'                    u5535:
  8215  0193' 1003               	clrc
  8216  0194' 0DBF'              	rlf	___fldiv@b,f
  8217  0195' 0DC0'              	rlf	___fldiv@b+1,f
  8218  0196' 0DC1'              	rlf	___fldiv@b+2,f
  8219  0197' 0DC2'              	rlf	___fldiv@b+3,f
  8220  0198' 0BC3'              	decfsz	??___fldiv,f
  8221  0199' 2800'              	goto	u5535
  8222  019A'                    l3219:
  8223  019A' 1683               	bsf	3,5	;RP0=1, select bank1
  8224  019B' 1303               	bcf	3,6	;RP1=0, select bank1
  8225  019C' 1F80'              	btfss	(___fldiv@grs+3)^(0+128),7
  8226  019D' 2800'              	goto	u5541
  8227  019E' 2800'              	goto	u5540
  8228  019F'                    u5541:
  8229  019F' 2800'              	goto	l3223
  8230  01A0'                    u5540:
  8231  01A0'                    l3221:
  8232  01A0' 1283               	bcf	3,5	;RP0=0, select bank0
  8233  01A1' 1303               	bcf	3,6	;RP1=0, select bank0
  8234  01A2' 143F'              	bsf	___fldiv@b,0
  8235  01A3'                    l3223:
  8236  01A3' 3001               	movlw	1
  8237  01A4' 1283               	bcf	3,5	;RP0=0, select bank0
  8238  01A5' 00C3'              	movwf	??___fldiv
  8239  01A6'                    u5555:
  8240  01A6' 1003               	clrc
  8241  01A7' 1683               	bsf	3,5	;RP0=1, select bank1
  8242  01A8' 1303               	bcf	3,6	;RP1=0, select bank1
  8243  01A9' 0D80'              	rlf	___fldiv@grs^(0+128),f
  8244  01AA' 0D80'              	rlf	(___fldiv@grs+1)^(0+128),f
  8245  01AB' 0D80'              	rlf	(___fldiv@grs+2)^(0+128),f
  8246  01AC' 0D80'              	rlf	(___fldiv@grs+3)^(0+128),f
  8247  01AD' 1283               	bcf	3,5	;RP0=0, select bank0
  8248  01AE' 1303               	bcf	3,6	;RP1=0, select bank0
  8249  01AF' 0BC3'              	decfsz	??___fldiv,f
  8250  01B0' 2800'              	goto	u5555
  8251  01B1'                    l3225:
  8252  01B1' 30FF               	movlw	255
  8253  01B2' 1683               	bsf	3,5	;RP0=1, select bank1
  8254  01B3' 1303               	bcf	3,6	;RP1=0, select bank1
  8255  01B4' 0780'              	addwf	___fldiv@new_exp^(0+128),f
  8256  01B5' 1803               	skipnc
  8257  01B6' 0A80'              	incf	(___fldiv@new_exp+1)^(0+128),f
  8258  01B7' 30FF               	movlw	255
  8259  01B8' 0780'              	addwf	(___fldiv@new_exp+1)^(0+128),f
  8260  01B9'                    l3227:
  8261  01B9' 1283               	bcf	3,5	;RP0=0, select bank0
  8262  01BA' 1303               	bcf	3,6	;RP1=0, select bank0
  8263  01BB' 1FC1'              	btfss	___fldiv@b+2,7
  8264  01BC' 2800'              	goto	u5561
  8265  01BD' 2800'              	goto	u5560
  8266  01BE'                    u5561:
  8267  01BE' 2800'              	goto	l3217
  8268  01BF'                    u5560:
  8269  01BF'                    l3229:
  8270  01BF' 1683               	bsf	3,5	;RP0=1, select bank1
  8271  01C0' 1303               	bcf	3,6	;RP1=0, select bank1
  8272  01C1' 0180'              	clrf	___fldiv@aexp^(0+128)
  8273  01C2'                    l3231:
  8274  01C2' 1F80'              	btfss	(___fldiv@grs+3)^(0+128),7
  8275  01C3' 2800'              	goto	u5571
  8276  01C4' 2800'              	goto	u5570
  8277  01C5'                    u5571:
  8278  01C5' 2800'              	goto	l3239
  8279  01C6'                    u5570:
  8280  01C6'                    l3233:
  8281  01C6' 30FF               	movlw	255
  8282  01C7' 0500'              	andwf	___fldiv@grs^(0+128),w
  8283  01C8' 1283               	bcf	3,5	;RP0=0, select bank0
  8284  01C9' 1303               	bcf	3,6	;RP1=0, select bank0
  8285  01CA' 00C3'              	movwf	??___fldiv
  8286  01CB' 30FF               	movlw	255
  8287  01CC' 1683               	bsf	3,5	;RP0=1, select bank1
  8288  01CD' 1303               	bcf	3,6	;RP1=0, select bank1
  8289  01CE' 0500'              	andwf	(___fldiv@grs+1)^(0+128),w
  8290  01CF' 1283               	bcf	3,5	;RP0=0, select bank0
  8291  01D0' 1303               	bcf	3,6	;RP1=0, select bank0
  8292  01D1' 00C4'              	movwf	??___fldiv+1
  8293  01D2' 30FF               	movlw	255
  8294  01D3' 1683               	bsf	3,5	;RP0=1, select bank1
  8295  01D4' 1303               	bcf	3,6	;RP1=0, select bank1
  8296  01D5' 0500'              	andwf	(___fldiv@grs+2)^(0+128),w
  8297  01D6' 1283               	bcf	3,5	;RP0=0, select bank0
  8298  01D7' 1303               	bcf	3,6	;RP1=0, select bank0
  8299  01D8' 00C5'              	movwf	??___fldiv+2
  8300  01D9' 307F               	movlw	127
  8301  01DA' 1683               	bsf	3,5	;RP0=1, select bank1
  8302  01DB' 1303               	bcf	3,6	;RP1=0, select bank1
  8303  01DC' 0500'              	andwf	(___fldiv@grs+3)^(0+128),w
  8304  01DD' 1283               	bcf	3,5	;RP0=0, select bank0
  8305  01DE' 1303               	bcf	3,6	;RP1=0, select bank0
  8306  01DF' 00C6'              	movwf	??___fldiv+3
  8307  01E0' 0846'              	movf	??___fldiv+3,w
  8308  01E1' 0445'              	iorwf	??___fldiv+2,w
  8309  01E2' 0444'              	iorwf	??___fldiv+1,w
  8310  01E3' 0443'              	iorwf	??___fldiv,w
  8311  01E4' 1903               	skipnz
  8312  01E5' 2800'              	goto	u5581
  8313  01E6' 2800'              	goto	u5580
  8314  01E7'                    u5581:
  8315  01E7' 2800'              	goto	l696
  8316  01E8'                    u5580:
  8317  01E8'                    l3235:
  8318  01E8' 1683               	bsf	3,5	;RP0=1, select bank1
  8319  01E9' 1303               	bcf	3,6	;RP1=0, select bank1
  8320  01EA' 0180'              	clrf	___fldiv@aexp^(0+128)
  8321  01EB' 0A80'              	incf	___fldiv@aexp^(0+128),f
  8322  01EC' 2800'              	goto	l3239
  8323  01ED'                    l696:
  8324  01ED' 1C3F'              	btfss	___fldiv@b,0
  8325  01EE' 2800'              	goto	u5591
  8326  01EF' 2800'              	goto	u5590
  8327  01F0'                    u5591:
  8328  01F0' 2800'              	goto	l3239
  8329  01F1'                    u5590:
  8330  01F1' 2800'              	goto	l3235
  8331  01F2'                    l3239:
  8332  01F2' 1683               	bsf	3,5	;RP0=1, select bank1
  8333  01F3' 1303               	bcf	3,6	;RP1=0, select bank1
  8334  01F4' 0800'              	movf	___fldiv@aexp^(0+128),w
  8335  01F5' 1903               	btfsc	3,2
  8336  01F6' 2800'              	goto	u5601
  8337  01F7' 2800'              	goto	u5600
  8338  01F8'                    u5601:
  8339  01F8' 2800'              	goto	l3249
  8340  01F9'                    u5600:
  8341  01F9'                    l3241:
  8342  01F9' 3001               	movlw	1
  8343  01FA' 1283               	bcf	3,5	;RP0=0, select bank0
  8344  01FB' 1303               	bcf	3,6	;RP1=0, select bank0
  8345  01FC' 07BF'              	addwf	___fldiv@b,f
  8346  01FD' 3000               	movlw	0
  8347  01FE' 1803               	skipnc
  8348  01FF' 3001               	movlw	1
  8349  0200' 07C0'              	addwf	___fldiv@b+1,f
  8350  0201' 3000               	movlw	0
  8351  0202' 1803               	skipnc
  8352  0203' 3001               	movlw	1
  8353  0204' 07C1'              	addwf	___fldiv@b+2,f
  8354  0205' 3000               	movlw	0
  8355  0206' 1803               	skipnc
  8356  0207' 3001               	movlw	1
  8357  0208' 07C2'              	addwf	___fldiv@b+3,f
  8358  0209'                    l3243:
  8359  0209' 1C42'              	btfss	___fldiv@b+3,0
  8360  020A' 2800'              	goto	u5611
  8361  020B' 2800'              	goto	u5610
  8362  020C'                    u5611:
  8363  020C' 2800'              	goto	l3249
  8364  020D'                    u5610:
  8365  020D'                    l3245:
  8366  020D' 083F'              	movf	___fldiv@b,w
  8367  020E' 00C3'              	movwf	??___fldiv
  8368  020F' 0840'              	movf	___fldiv@b+1,w
  8369  0210' 00C4'              	movwf	??___fldiv+1
  8370  0211' 0841'              	movf	___fldiv@b+2,w
  8371  0212' 00C5'              	movwf	??___fldiv+2
  8372  0213' 0842'              	movf	___fldiv@b+3,w
  8373  0214' 00C6'              	movwf	??___fldiv+3
  8374  0215' 3001               	movlw	1
  8375  0216' 00C7'              	movwf	??___fldiv+4
  8376  0217'                    u5625:
  8377  0217' 0D46'              	rlf	??___fldiv+3,w
  8378  0218' 0CC6'              	rrf	??___fldiv+3,f
  8379  0219' 0CC5'              	rrf	??___fldiv+2,f
  8380  021A' 0CC4'              	rrf	??___fldiv+1,f
  8381  021B' 0CC3'              	rrf	??___fldiv,f
  8382  021C'                    u5620:
  8383  021C' 0BC7'              	decfsz	??___fldiv+4,f
  8384  021D' 2800'              	goto	u5625
  8385  021E' 0846'              	movf	??___fldiv+3,w
  8386  021F' 00C2'              	movwf	___fldiv@b+3
  8387  0220' 0845'              	movf	??___fldiv+2,w
  8388  0221' 00C1'              	movwf	___fldiv@b+2
  8389  0222' 0844'              	movf	??___fldiv+1,w
  8390  0223' 00C0'              	movwf	___fldiv@b+1
  8391  0224' 0843'              	movf	??___fldiv,w
  8392  0225' 00BF'              	movwf	___fldiv@b
  8393  0226'                    l3247:
  8394  0226' 3001               	movlw	1
  8395  0227' 1683               	bsf	3,5	;RP0=1, select bank1
  8396  0228' 1303               	bcf	3,6	;RP1=0, select bank1
  8397  0229' 0780'              	addwf	___fldiv@new_exp^(0+128),f
  8398  022A' 1803               	skipnc
  8399  022B' 0A80'              	incf	(___fldiv@new_exp+1)^(0+128),f
  8400  022C' 3000               	movlw	0
  8401  022D' 0780'              	addwf	(___fldiv@new_exp+1)^(0+128),f
  8402  022E'                    l3249:
  8403  022E' 1683               	bsf	3,5	;RP0=1, select bank1
  8404  022F' 1303               	bcf	3,6	;RP1=0, select bank1
  8405  0230' 0800'              	movf	(___fldiv@new_exp+1)^(0+128),w
  8406  0231' 3A80               	xorlw	128
  8407  0232' 00FF               	movwf	btemp+1
  8408  0233' 3080               	movlw	128
  8409  0234' 027F               	subwf	btemp+1,w
  8410  0235' 1D03               	skipz
  8411  0236' 2800'              	goto	u5635
  8412  0237' 30FF               	movlw	255
  8413  0238' 0200'              	subwf	___fldiv@new_exp^(0+128),w
  8414  0239'                    u5635:
  8415  0239' 1C03               	skipc
  8416  023A' 2800'              	goto	u5631
  8417  023B' 2800'              	goto	u5630
  8418  023C'                    u5631:
  8419  023C' 2800'              	goto	l3253
  8420  023D'                    u5630:
  8421  023D'                    l3251:
  8422  023D' 30FF               	movlw	255
  8423  023E' 1683               	bsf	3,5	;RP0=1, select bank1
  8424  023F' 1303               	bcf	3,6	;RP1=0, select bank1
  8425  0240' 0080'              	movwf	___fldiv@new_exp^(0+128)
  8426  0241' 3000               	movlw	0
  8427  0242' 0081'              	movwf	(___fldiv@new_exp^(0+128)+1)
  8428  0243' 3000               	movlw	0
  8429  0244' 1283               	bcf	3,5	;RP0=0, select bank0
  8430  0245' 1303               	bcf	3,6	;RP1=0, select bank0
  8431  0246' 00C2'              	movwf	___fldiv@b+3
  8432  0247' 3000               	movlw	0
  8433  0248' 00C1'              	movwf	___fldiv@b+2
  8434  0249' 3000               	movlw	0
  8435  024A' 00C0'              	movwf	___fldiv@b+1
  8436  024B' 3000               	movlw	0
  8437  024C' 00BF'              	movwf	___fldiv@b
  8438  024D'                    l3253:
  8439  024D' 1683               	bsf	3,5	;RP0=1, select bank1
  8440  024E' 1303               	bcf	3,6	;RP1=0, select bank1
  8441  024F' 0800'              	movf	(___fldiv@new_exp+1)^(0+128),w
  8442  0250' 3A80               	xorlw	128
  8443  0251' 00FF               	movwf	btemp+1
  8444  0252' 3080               	movlw	128
  8445  0253' 027F               	subwf	btemp+1,w
  8446  0254' 1D03               	skipz
  8447  0255' 2800'              	goto	u5645
  8448  0256' 3001               	movlw	1
  8449  0257' 0200'              	subwf	___fldiv@new_exp^(0+128),w
  8450  0258'                    u5645:
  8451  0258' 1803               	skipnc
  8452  0259' 2800'              	goto	u5641
  8453  025A' 2800'              	goto	u5640
  8454  025B'                    u5641:
  8455  025B' 2800'              	goto	l702
  8456  025C'                    u5640:
  8457  025C'                    l3255:
  8458  025C' 1683               	bsf	3,5	;RP0=1, select bank1
  8459  025D' 1303               	bcf	3,6	;RP1=0, select bank1
  8460  025E' 0180'              	clrf	___fldiv@new_exp^(0+128)
  8461  025F' 0180'              	clrf	(___fldiv@new_exp+1)^(0+128)
  8462  0260'                    l3257:
  8463  0260' 3000               	movlw	0
  8464  0261' 1283               	bcf	3,5	;RP0=0, select bank0
  8465  0262' 1303               	bcf	3,6	;RP1=0, select bank0
  8466  0263' 00C2'              	movwf	___fldiv@b+3
  8467  0264' 3000               	movlw	0
  8468  0265' 00C1'              	movwf	___fldiv@b+2
  8469  0266' 3000               	movlw	0
  8470  0267' 00C0'              	movwf	___fldiv@b+1
  8471  0268' 3000               	movlw	0
  8472  0269' 00BF'              	movwf	___fldiv@b
  8473  026A'                    l3259:
  8474  026A' 1683               	bsf	3,5	;RP0=1, select bank1
  8475  026B' 1303               	bcf	3,6	;RP1=0, select bank1
  8476  026C' 0180'              	clrf	___fldiv@sign^(0+128)
  8477  026D'                    l702:
  8478  026D' 1683               	bsf	3,5	;RP0=1, select bank1
  8479  026E' 1303               	bcf	3,6	;RP1=0, select bank1
  8480  026F' 0800'              	movf	___fldiv@new_exp^(0+128),w
  8481  0270' 0080'              	movwf	___fldiv@bexp^(0+128)
  8482  0271'                    l3261:
  8483  0271' 1C00'              	btfss	___fldiv@bexp^(0+128),0
  8484  0272' 2800'              	goto	u5651
  8485  0273' 2800'              	goto	u5650
  8486  0274'                    u5651:
  8487  0274' 2800'              	goto	l3265
  8488  0275'                    u5650:
  8489  0275'                    l3263:
  8490  0275' 1283               	bcf	3,5	;RP0=0, select bank0
  8491  0276' 1303               	bcf	3,6	;RP1=0, select bank0
  8492  0277' 17C1'              	bsf	___fldiv@b+2,7
  8493  0278' 2800'              	goto	l704
  8494  0279'                    l3265:
  8495  0279' 307F               	movlw	127
  8496  027A' 1283               	bcf	3,5	;RP0=0, select bank0
  8497  027B' 1303               	bcf	3,6	;RP1=0, select bank0
  8498  027C' 00C3'              	movwf	??___fldiv
  8499  027D' 0843'              	movf	??___fldiv,w
  8500  027E' 05C1'              	andwf	___fldiv@b+2,f
  8501  027F'                    l704:
  8502  027F' 1683               	bsf	3,5	;RP0=1, select bank1
  8503  0280' 1303               	bcf	3,6	;RP1=0, select bank1
  8504  0281' 0800'              	movf	___fldiv@bexp^(0+128),w
  8505  0282' 1283               	bcf	3,5	;RP0=0, select bank0
  8506  0283' 1303               	bcf	3,6	;RP1=0, select bank0
  8507  0284' 00C3'              	movwf	??___fldiv
  8508  0285' 1003               	clrc
  8509  0286' 0C43'              	rrf	??___fldiv,w
  8510  0287' 00C2'              	movwf	___fldiv@b+3
  8511  0288' 1683               	bsf	3,5	;RP0=1, select bank1
  8512  0289' 1303               	bcf	3,6	;RP1=0, select bank1
  8513  028A' 0800'              	movf	___fldiv@sign^(0+128),w
  8514  028B' 1283               	bcf	3,5	;RP0=0, select bank0
  8515  028C' 1303               	bcf	3,6	;RP1=0, select bank0
  8516  028D' 00C3'              	movwf	??___fldiv
  8517  028E' 0843'              	movf	??___fldiv,w
  8518  028F' 04C2'              	iorwf	___fldiv@b+3,f
  8519  0290' 2800'              	goto	l3173
  8520  0291'                    l682:
  8521  0291' 0008               	return
  8522  0292'                    __end_of___fldiv:
  8523                           
  8524                           	psect	text23
  8525  0000'                    __ptext23:	
  8526 ;; *************** function _ReadADC *****************
  8527 ;; Defined at:
  8528 ;;		line 76 in file "bai 3.c"
  8529 ;; Parameters:    Size  Location     Type
  8530 ;;		None
  8531 ;; Auto vars:     Size  Location     Type
  8532 ;;  TempValue       2    2[COMMON] unsigned int 
  8533 ;; Return value:  Size  Location     Type
  8534 ;;                  2    0[COMMON] unsigned int 
  8535 ;; Registers used:
  8536 ;;		wreg, status,2
  8537 ;; Tracked objects:
  8538 ;;		On entry : 0/0
  8539 ;;		On exit  : 0/0
  8540 ;;		Unchanged: 0/0
  8541 ;; Data sizes:     COMMON   BANK0   BANK1   BANK3   BANK2
  8542 ;;      Params:         2       0       0       0       0
  8543 ;;      Locals:         2       0       0       0       0
  8544 ;;      Temps:          0       0       0       0       0
  8545 ;;      Totals:         4       0       0       0       0
  8546 ;;Total ram usage:        4 bytes
  8547 ;; Hardware stack levels used: 1
  8548 ;; This function calls:
  8549 ;;		Nothing
  8550 ;; This function is called by:
  8551 ;;		_main
  8552 ;; This function uses a non-reentrant model
  8553 ;;
  8554                           
  8555  0000'                    _ReadADC:	
  8556                           ;psect for function _ReadADC
  8557                           
  8558  0000'                    l3355:	
  8559                           ;incstack = 0
  8560                           ; Regs used in _ReadADC: [wreg+status,2]
  8561                           
  8562  0000'                    l3357:
  8563                           
  8564                           ;bai 3.c: 79:     ADCON0bits.GO_nDONE =1;
  8565  0000' 1283               	bcf	3,5	;RP0=0, select bank0
  8566  0001' 1303               	bcf	3,6	;RP1=0, select bank0
  8567  0002' 151F               	bsf	31,2	;volatile
  8568  0003'                    l81:	
  8569                           ;bai 3.c: 80:     while(ADCON0bits.GO_nDONE);
  8570                           
  8571  0003' 191F               	btfsc	31,2	;volatile
  8572  0004' 2800'              	goto	u5871
  8573  0005' 2800'              	goto	u5870
  8574  0006'                    u5871:
  8575  0006' 2800'              	goto	l81
  8576  0007'                    u5870:
  8577  0007'                    l3359:
  8578                           
  8579                           ;bai 3.c: 81:     TempValue = ADRESH*256 + ADRESL;
  8580  0007' 081E               	movf	30,w	;volatile
  8581  0008' 0083'              	movwf	ReadADC@TempValue+1
  8582  0009' 1683               	bsf	3,5	;RP0=1, select bank1
  8583  000A' 1303               	bcf	3,6	;RP1=0, select bank1
  8584  000B' 081E               	movf	30,w	;volatile
  8585  000C' 0082'              	movwf	ReadADC@TempValue
  8586                           
  8587                           ;bai 3.c: 82:     return(TempValue);
  8588  000D' 0803'              	movf	ReadADC@TempValue+1,w
  8589  000E' 0081'              	movwf	?_ReadADC+1
  8590  000F' 0802'              	movf	ReadADC@TempValue,w
  8591  0010' 0080'              	movwf	?_ReadADC
  8592  0011'                    l84:
  8593  0011' 0008               	return
  8594  0012'                    __end_of_ReadADC:
  8595                           
  8596                           	psect	text24
  8597  0000'                    __ptext24:	
  8598 ;; *************** function _Lcd_Write_String *****************
  8599 ;; Defined at:
  8600 ;;		line 118 in file "./lcd.h"
  8601 ;; Parameters:    Size  Location     Type
  8602 ;;  a               2    5[COMMON] PTR unsigned char 
  8603 ;;		 -> STR_2(2), main@s(20), 
  8604 ;; Auto vars:     Size  Location     Type
  8605 ;;  i               2   10[COMMON] int 
  8606 ;; Return value:  Size  Location     Type
  8607 ;;                  1    wreg      void 
  8608 ;; Registers used:
  8609 ;;		wreg, fsr0l, fsr0h, status,2, status,0, btemp+1, pclath, cstack
  8610 ;; Tracked objects:
  8611 ;;		On entry : 0/0
  8612 ;;		On exit  : 0/0
  8613 ;;		Unchanged: 0/0
  8614 ;; Data sizes:     COMMON   BANK0   BANK1   BANK3   BANK2
  8615 ;;      Params:         2       0       0       0       0
  8616 ;;      Locals:         2       0       0       0       0
  8617 ;;      Temps:          3       0       0       0       0
  8618 ;;      Totals:         7       0       0       0       0
  8619 ;;Total ram usage:        7 bytes
  8620 ;; Hardware stack levels used: 1
  8621 ;; Hardware stack levels required when called: 2
  8622 ;; This function calls:
  8623 ;;		_Lcd_Write_Char
  8624 ;; This function is called by:
  8625 ;;		_main
  8626 ;; This function uses a non-reentrant model
  8627 ;;
  8628                           
  8629  0000'                    _Lcd_Write_String:	
  8630                           ;psect for function _Lcd_Write_String
  8631                           
  8632  0000'                    l3345:	
  8633                           ;incstack = 0
  8634                           ; Regs used in _Lcd_Write_String: [wreg-fsr0h+status,2+status,0+btemp+1+pclath+cstack]
  8635                           
  8636                           
  8637                           ;./lcd.h: 118: void Lcd_Write_String(char *a);./lcd.h: 119: {;./lcd.h: 120:  int i;;./lc
      +                          d.h: 121:  for(i=0;a[i]!='\0';i++)
  8638  0000' 018A'              	clrf	Lcd_Write_String@i
  8639  0001' 018B'              	clrf	Lcd_Write_String@i+1
  8640  0002' 2800'              	goto	l3351
  8641  0003'                    l3347:
  8642                           
  8643                           ;./lcd.h: 122:     Lcd_Write_Char(a[i]);
  8644  0003' 080A'              	movf	Lcd_Write_String@i,w
  8645  0004' 0705'              	addwf	Lcd_Write_String@a,w
  8646  0005' 0088'              	movwf	??_Lcd_Write_String+1
  8647  0006' 0806'              	movf	Lcd_Write_String@a+1,w
  8648  0007' 0087'              	movwf	??_Lcd_Write_String
  8649  0008' 1803               	skipnc
  8650  0009' 0A87'              	incf	??_Lcd_Write_String,f
  8651  000A' 1F8A'              	btfss	Lcd_Write_String@i,7
  8652  000B' 2800'              	goto	u5840
  8653  000C' 0387'              	decf	??_Lcd_Write_String,f
  8654  000D'                    u5840:
  8655  000D' 0807'              	movf	??_Lcd_Write_String,w
  8656  000E' 0089'              	movwf	??_Lcd_Write_String+2
  8657  000F' 0809'              	movf	??_Lcd_Write_String+2,w
  8658  0010' 1283               	bcf	3,5	;RP0=0, select bank0
  8659  0011' 1303               	bcf	3,6	;RP1=0, select bank0
  8660  0012' 00FF               	movwf	btemp+1
  8661  0013' 0808'              	movf	??_Lcd_Write_String+1,w
  8662  0014' 0084               	movwf	4
  8663  0015' 120A' 118A' 2000' 120A' 118A' 	fcall	stringtab
  8664  001A' 120A' 118A' 2000' 120A' 118A' 	fcall	_Lcd_Write_Char
  8665  001F'                    l3349:
  8666  001F' 3001               	movlw	1
  8667  0020' 078A'              	addwf	Lcd_Write_String@i,f
  8668  0021' 1803               	skipnc
  8669  0022' 0A8B'              	incf	Lcd_Write_String@i+1,f
  8670  0023' 3000               	movlw	0
  8671  0024' 078B'              	addwf	Lcd_Write_String@i+1,f
  8672  0025'                    l3351:
  8673  0025' 080A'              	movf	Lcd_Write_String@i,w
  8674  0026' 0705'              	addwf	Lcd_Write_String@a,w
  8675  0027' 0088'              	movwf	??_Lcd_Write_String+1
  8676  0028' 0806'              	movf	Lcd_Write_String@a+1,w
  8677  0029' 0087'              	movwf	??_Lcd_Write_String
  8678  002A' 1803               	skipnc
  8679  002B' 0A87'              	incf	??_Lcd_Write_String,f
  8680  002C' 1F8A'              	btfss	Lcd_Write_String@i,7
  8681  002D' 2800'              	goto	u5850
  8682  002E' 0387'              	decf	??_Lcd_Write_String,f
  8683  002F'                    u5850:
  8684  002F' 0807'              	movf	??_Lcd_Write_String,w
  8685  0030' 0089'              	movwf	??_Lcd_Write_String+2
  8686  0031' 0809'              	movf	??_Lcd_Write_String+2,w
  8687  0032' 1283               	bcf	3,5	;RP0=0, select bank0
  8688  0033' 1303               	bcf	3,6	;RP1=0, select bank0
  8689  0034' 00FF               	movwf	btemp+1
  8690  0035' 0808'              	movf	??_Lcd_Write_String+1,w
  8691  0036' 0084               	movwf	4
  8692  0037' 120A' 118A' 2000' 120A' 118A' 	fcall	stringtab
  8693  003C' 3A00               	xorlw	0
  8694  003D' 1D03               	skipz
  8695  003E' 2800'              	goto	u5861
  8696  003F' 2800'              	goto	u5860
  8697  0040'                    u5861:
  8698  0040' 2800'              	goto	l3347
  8699  0041'                    u5860:
  8700  0041'                    l69:
  8701  0041' 0008               	return
  8702  0042'                    __end_of_Lcd_Write_String:
  8703                           
  8704                           	psect	text25
  8705  0000'                    __ptext25:	
  8706 ;; *************** function _Lcd_Write_Char *****************
  8707 ;; Defined at:
  8708 ;;		line 102 in file "./lcd.h"
  8709 ;; Parameters:    Size  Location     Type
  8710 ;;  a               1    wreg     unsigned char 
  8711 ;; Auto vars:     Size  Location     Type
  8712 ;;  a               1    4[COMMON] unsigned char 
  8713 ;;  y               1    3[COMMON] unsigned char 
  8714 ;;  temp            1    2[COMMON] unsigned char 
  8715 ;; Return value:  Size  Location     Type
  8716 ;;                  1    wreg      void 
  8717 ;; Registers used:
  8718 ;;		wreg, status,2, status,0, pclath, cstack
  8719 ;; Tracked objects:
  8720 ;;		On entry : 0/0
  8721 ;;		On exit  : 0/0
  8722 ;;		Unchanged: 0/0
  8723 ;; Data sizes:     COMMON   BANK0   BANK1   BANK3   BANK2
  8724 ;;      Params:         0       0       0       0       0
  8725 ;;      Locals:         3       0       0       0       0
  8726 ;;      Temps:          1       0       0       0       0
  8727 ;;      Totals:         4       0       0       0       0
  8728 ;;Total ram usage:        4 bytes
  8729 ;; Hardware stack levels used: 1
  8730 ;; Hardware stack levels required when called: 1
  8731 ;; This function calls:
  8732 ;;		_Lcd_Port
  8733 ;; This function is called by:
  8734 ;;		_Lcd_Write_String
  8735 ;;		_main
  8736 ;; This function uses a non-reentrant model
  8737 ;;
  8738                           
  8739  0000'                    _Lcd_Write_Char:	
  8740                           ;psect for function _Lcd_Write_Char
  8741                           
  8742                           
  8743                           ;incstack = 0
  8744                           ; Regs used in _Lcd_Write_Char: [wreg+status,2+status,0+pclath+cstack]
  8745                           ;Lcd_Write_Char@a stored from wreg
  8746  0000' 0084'              	movwf	Lcd_Write_Char@a
  8747  0001'                    l2807:
  8748                           
  8749                           ;./lcd.h: 102: void Lcd_Write_Char(char a);./lcd.h: 103: {;./lcd.h: 104:    char temp,y;
      +                          ;./lcd.h: 105:    temp = a&0x0F;
  8750  0001' 0804'              	movf	Lcd_Write_Char@a,w
  8751  0002' 390F               	andlw	15
  8752  0003' 0082'              	movwf	Lcd_Write_Char@temp
  8753                           
  8754                           ;./lcd.h: 106:    y = a&0xF0;
  8755  0004' 0804'              	movf	Lcd_Write_Char@a,w
  8756  0005' 39F0               	andlw	240
  8757  0006' 0083'              	movwf	Lcd_Write_Char@y
  8758  0007'                    l2809:
  8759                           
  8760                           ;./lcd.h: 107:    RD2 = 1;
  8761  0007' 1283               	bcf	3,5	;RP0=0, select bank0
  8762  0008' 1303               	bcf	3,6	;RP1=0, select bank0
  8763  0009' 1508               	bsf	8,2	;volatile
  8764  000A'                    l2811:
  8765                           
  8766                           ;./lcd.h: 108:    Lcd_Port(y>>4);
  8767  000A' 0803'              	movf	Lcd_Write_Char@y,w
  8768  000B' 0081'              	movwf	??_Lcd_Write_Char
  8769  000C' 3004               	movlw	4
  8770  000D'                    u4465:
  8771  000D' 1003               	clrc
  8772  000E' 0C81'              	rrf	??_Lcd_Write_Char,f
  8773  000F' 3EFF               	addlw	-1
  8774  0010' 1D03               	skipz
  8775  0011' 2800'              	goto	u4465
  8776  0012' 0801'              	movf	??_Lcd_Write_Char,w
  8777  0013' 120A' 118A' 2000' 120A' 118A' 	fcall	_Lcd_Port
  8778  0018'                    l2813:
  8779                           
  8780                           ;./lcd.h: 109:    RD3 = 1;
  8781  0018' 1283               	bcf	3,5	;RP0=0, select bank0
  8782  0019' 1303               	bcf	3,6	;RP1=0, select bank0
  8783  001A' 1588               	bsf	8,3	;volatile
  8784  001B'                    l2815:
  8785                           
  8786                           ;./lcd.h: 110:    _delay((unsigned long)((40)*(20000000/4000000.0)));
  8787  001B' 3042               	movlw	66
  8788  001C' 0081'              	movwf	??_Lcd_Write_Char
  8789  001D'                    u6487:
  8790  001D' 0B81'              	decfsz	??_Lcd_Write_Char,f
  8791  001E' 2800'              	goto	u6487
  8792  001F' 0000               	nop
  8793  0020'                    l2817:
  8794                           
  8795                           ;./lcd.h: 111:    RD3 = 0;
  8796  0020' 1283               	bcf	3,5	;RP0=0, select bank0
  8797  0021' 1303               	bcf	3,6	;RP1=0, select bank0
  8798  0022' 1188               	bcf	8,3	;volatile
  8799  0023'                    l2819:
  8800                           
  8801                           ;./lcd.h: 112:    Lcd_Port(temp);
  8802  0023' 0802'              	movf	Lcd_Write_Char@temp,w
  8803  0024' 120A' 118A' 2000' 120A' 118A' 	fcall	_Lcd_Port
  8804  0029'                    l2821:
  8805                           
  8806                           ;./lcd.h: 113:    RD3 = 1;
  8807  0029' 1283               	bcf	3,5	;RP0=0, select bank0
  8808  002A' 1303               	bcf	3,6	;RP1=0, select bank0
  8809  002B' 1588               	bsf	8,3	;volatile
  8810  002C'                    l2823:
  8811                           
  8812                           ;./lcd.h: 114:    _delay((unsigned long)((40)*(20000000/4000000.0)));
  8813  002C' 3042               	movlw	66
  8814  002D' 0081'              	movwf	??_Lcd_Write_Char
  8815  002E'                    u6497:
  8816  002E' 0B81'              	decfsz	??_Lcd_Write_Char,f
  8817  002F' 2800'              	goto	u6497
  8818  0030' 0000               	nop
  8819  0031'                    l2825:
  8820                           
  8821                           ;./lcd.h: 115:    RD3 = 0;
  8822  0031' 1283               	bcf	3,5	;RP0=0, select bank0
  8823  0032' 1303               	bcf	3,6	;RP1=0, select bank0
  8824  0033' 1188               	bcf	8,3	;volatile
  8825  0034'                    l63:
  8826  0034' 0008               	return
  8827  0035'                    __end_of_Lcd_Write_Char:
  8828                           
  8829                           	psect	text26
  8830  0000'                    __ptext26:	
  8831 ;; *************** function _Lcd_Set_Cursor *****************
  8832 ;; Defined at:
  8833 ;;		line 62 in file "./lcd.h"
  8834 ;; Parameters:    Size  Location     Type
  8835 ;;  a               1    wreg     unsigned char 
  8836 ;;  b               1    4[COMMON] unsigned char 
  8837 ;; Auto vars:     Size  Location     Type
  8838 ;;  a               1    6[COMMON] unsigned char 
  8839 ;;  temp            1    9[COMMON] unsigned char 
  8840 ;;  y               1    8[COMMON] unsigned char 
  8841 ;;  z               1    7[COMMON] unsigned char 
  8842 ;; Return value:  Size  Location     Type
  8843 ;;                  1    wreg      void 
  8844 ;; Registers used:
  8845 ;;		wreg, status,2, status,0, pclath, cstack
  8846 ;; Tracked objects:
  8847 ;;		On entry : 0/0
  8848 ;;		On exit  : 0/0
  8849 ;;		Unchanged: 0/0
  8850 ;; Data sizes:     COMMON   BANK0   BANK1   BANK3   BANK2
  8851 ;;      Params:         1       0       0       0       0
  8852 ;;      Locals:         4       0       0       0       0
  8853 ;;      Temps:          1       0       0       0       0
  8854 ;;      Totals:         6       0       0       0       0
  8855 ;;Total ram usage:        6 bytes
  8856 ;; Hardware stack levels used: 1
  8857 ;; Hardware stack levels required when called: 2
  8858 ;; This function calls:
  8859 ;;		_Lcd_Cmd
  8860 ;; This function is called by:
  8861 ;;		_main
  8862 ;; This function uses a non-reentrant model
  8863 ;;
  8864                           
  8865  0000'                    _Lcd_Set_Cursor:	
  8866                           ;psect for function _Lcd_Set_Cursor
  8867                           
  8868                           
  8869                           ;incstack = 0
  8870                           ; Regs used in _Lcd_Set_Cursor: [wreg+status,2+status,0+pclath+cstack]
  8871                           ;Lcd_Set_Cursor@a stored from wreg
  8872  0000' 0086'              	movwf	Lcd_Set_Cursor@a
  8873  0001'                    l3315:
  8874                           
  8875                           ;./lcd.h: 62: void Lcd_Set_Cursor(char a, char b);./lcd.h: 63: {;./lcd.h: 64:  char temp
      +                          ,z,y;;./lcd.h: 65:  if(a == 1)
  8876  0001' 0306'              	decf	Lcd_Set_Cursor@a,w
  8877  0002' 1D03               	btfss	3,2
  8878  0003' 2800'              	goto	u5801
  8879  0004' 2800'              	goto	u5800
  8880  0005'                    u5801:
  8881  0005' 2800'              	goto	l3325
  8882  0006'                    u5800:
  8883  0006'                    l3317:
  8884                           
  8885                           ;./lcd.h: 66:  {;./lcd.h: 67:    temp = 0x80 + b - 1;
  8886  0006' 0804'              	movf	Lcd_Set_Cursor@b,w
  8887  0007' 3E7F               	addlw	127
  8888  0008' 0089'              	movwf	Lcd_Set_Cursor@temp
  8889                           
  8890                           ;./lcd.h: 68:   z = temp>>4;
  8891  0009' 0809'              	movf	Lcd_Set_Cursor@temp,w
  8892  000A' 0085'              	movwf	??_Lcd_Set_Cursor
  8893  000B' 3004               	movlw	4
  8894  000C'                    u5815:
  8895  000C' 1003               	clrc
  8896  000D' 0C85'              	rrf	??_Lcd_Set_Cursor,f
  8897  000E' 3EFF               	addlw	-1
  8898  000F' 1D03               	skipz
  8899  0010' 2800'              	goto	u5815
  8900  0011' 0805'              	movf	??_Lcd_Set_Cursor,w
  8901  0012' 0087'              	movwf	Lcd_Set_Cursor@z
  8902  0013'                    l3319:
  8903                           
  8904                           ;./lcd.h: 69:   y = temp & 0x0F;
  8905  0013' 0809'              	movf	Lcd_Set_Cursor@temp,w
  8906  0014' 390F               	andlw	15
  8907  0015' 0088'              	movwf	Lcd_Set_Cursor@y
  8908  0016'                    l3321:
  8909                           
  8910                           ;./lcd.h: 70:   Lcd_Cmd(z);
  8911  0016' 0807'              	movf	Lcd_Set_Cursor@z,w
  8912  0017' 120A' 118A' 2000' 120A' 118A' 	fcall	_Lcd_Cmd
  8913  001C'                    l3323:
  8914                           
  8915                           ;./lcd.h: 71:   Lcd_Cmd(y);
  8916  001C' 0808'              	movf	Lcd_Set_Cursor@y,w
  8917  001D' 120A' 118A' 2000' 120A' 118A' 	fcall	_Lcd_Cmd
  8918                           
  8919                           ;./lcd.h: 72:  }
  8920  0022' 2800'              	goto	l57
  8921  0023'                    l3325:
  8922  0023' 3002               	movlw	2
  8923  0024' 0606'              	xorwf	Lcd_Set_Cursor@a,w
  8924  0025' 1D03               	btfss	3,2
  8925  0026' 2800'              	goto	u5821
  8926  0027' 2800'              	goto	u5820
  8927  0028'                    u5821:
  8928  0028' 2800'              	goto	l57
  8929  0029'                    u5820:
  8930  0029'                    l3327:
  8931                           
  8932                           ;./lcd.h: 74:  {;./lcd.h: 75:   temp = 0xC0 + b - 1;
  8933  0029' 0804'              	movf	Lcd_Set_Cursor@b,w
  8934  002A' 3EBF               	addlw	191
  8935  002B' 0089'              	movwf	Lcd_Set_Cursor@temp
  8936                           
  8937                           ;./lcd.h: 76:   z = temp>>4;
  8938  002C' 0809'              	movf	Lcd_Set_Cursor@temp,w
  8939  002D' 0085'              	movwf	??_Lcd_Set_Cursor
  8940  002E' 3004               	movlw	4
  8941  002F'                    u5835:
  8942  002F' 1003               	clrc
  8943  0030' 0C85'              	rrf	??_Lcd_Set_Cursor,f
  8944  0031' 3EFF               	addlw	-1
  8945  0032' 1D03               	skipz
  8946  0033' 2800'              	goto	u5835
  8947  0034' 0805'              	movf	??_Lcd_Set_Cursor,w
  8948  0035' 0087'              	movwf	Lcd_Set_Cursor@z
  8949  0036'                    l3329:
  8950                           
  8951                           ;./lcd.h: 77:   y = temp & 0x0F;
  8952  0036' 0809'              	movf	Lcd_Set_Cursor@temp,w
  8953  0037' 390F               	andlw	15
  8954  0038' 0088'              	movwf	Lcd_Set_Cursor@y
  8955  0039'                    l3331:
  8956                           
  8957                           ;./lcd.h: 78:   Lcd_Cmd(z);
  8958  0039' 0807'              	movf	Lcd_Set_Cursor@z,w
  8959  003A' 120A' 118A' 2000' 120A' 118A' 	fcall	_Lcd_Cmd
  8960  003F'                    l3333:
  8961                           
  8962                           ;./lcd.h: 79:   Lcd_Cmd(y);
  8963  003F' 0808'              	movf	Lcd_Set_Cursor@y,w
  8964  0040' 120A' 118A' 2000' 120A' 118A' 	fcall	_Lcd_Cmd
  8965  0045'                    l57:
  8966  0045' 0008               	return
  8967  0046'                    __end_of_Lcd_Set_Cursor:
  8968                           
  8969                           	psect	text27
  8970  0000'                    __ptext27:	
  8971 ;; *************** function _Lcd_Init *****************
  8972 ;; Defined at:
  8973 ;;		line 83 in file "./lcd.h"
  8974 ;; Parameters:    Size  Location     Type
  8975 ;;		None
  8976 ;; Auto vars:     Size  Location     Type
  8977 ;;		None
  8978 ;; Return value:  Size  Location     Type
  8979 ;;                  1    wreg      void 
  8980 ;; Registers used:
  8981 ;;		wreg, status,2, status,0, pclath, cstack
  8982 ;; Tracked objects:
  8983 ;;		On entry : 0/0
  8984 ;;		On exit  : 0/0
  8985 ;;		Unchanged: 0/0
  8986 ;; Data sizes:     COMMON   BANK0   BANK1   BANK3   BANK2
  8987 ;;      Params:         0       0       0       0       0
  8988 ;;      Locals:         0       0       0       0       0
  8989 ;;      Temps:          2       0       0       0       0
  8990 ;;      Totals:         2       0       0       0       0
  8991 ;;Total ram usage:        2 bytes
  8992 ;; Hardware stack levels used: 1
  8993 ;; Hardware stack levels required when called: 2
  8994 ;; This function calls:
  8995 ;;		_Lcd_Cmd
  8996 ;;		_Lcd_Port
  8997 ;; This function is called by:
  8998 ;;		_main
  8999 ;; This function uses a non-reentrant model
  9000 ;;
  9001                           
  9002  0000'                    _Lcd_Init:	
  9003                           ;psect for function _Lcd_Init
  9004                           
  9005  0000'                    l3335:	
  9006                           ;incstack = 0
  9007                           ; Regs used in _Lcd_Init: [wreg+status,2+status,0+pclath+cstack]
  9008                           
  9009                           
  9010                           ;./lcd.h: 85:   Lcd_Port(0x00);
  9011  0000' 3000               	movlw	0
  9012  0001' 120A' 118A' 2000' 120A' 118A' 	fcall	_Lcd_Port
  9013  0006'                    l3337:
  9014                           
  9015                           ;./lcd.h: 86:    _delay((unsigned long)((20)*(20000000/4000.0)));
  9016  0006' 3082               	movlw	130
  9017  0007' 0085'              	movwf	??_Lcd_Init+1
  9018  0008' 30DD               	movlw	221
  9019  0009' 0084'              	movwf	??_Lcd_Init
  9020  000A'                    u6507:
  9021  000A' 0B84'              	decfsz	??_Lcd_Init,f
  9022  000B' 2800'              	goto	u6507
  9023  000C' 0B85'              	decfsz	??_Lcd_Init+1,f
  9024  000D' 2800'              	goto	u6507
  9025  000E' 2800'              	nop2
  9026  000F'                    l3339:
  9027                           
  9028                           ;./lcd.h: 87:   Lcd_Cmd(0x03);
  9029  000F' 3003               	movlw	3
  9030  0010' 120A' 118A' 2000' 120A' 118A' 	fcall	_Lcd_Cmd
  9031                           
  9032                           ;./lcd.h: 88:  _delay((unsigned long)((5)*(20000000/4000.0)));
  9033  0015' 3021               	movlw	33
  9034  0016' 0085'              	movwf	??_Lcd_Init+1
  9035  0017' 3076               	movlw	118
  9036  0018' 0084'              	movwf	??_Lcd_Init
  9037  0019'                    u6517:
  9038  0019' 0B84'              	decfsz	??_Lcd_Init,f
  9039  001A' 2800'              	goto	u6517
  9040  001B' 0B85'              	decfsz	??_Lcd_Init+1,f
  9041  001C' 2800'              	goto	u6517
  9042  001D' 0000               	nop
  9043  001E'                    l3341:
  9044                           
  9045                           ;./lcd.h: 89:   Lcd_Cmd(0x03);
  9046  001E' 3003               	movlw	3
  9047  001F' 120A' 118A' 2000' 120A' 118A' 	fcall	_Lcd_Cmd
  9048  0024'                    l3343:
  9049                           
  9050                           ;./lcd.h: 90:  _delay((unsigned long)((11)*(20000000/4000.0)));
  9051  0024' 3048               	movlw	72
  9052  0025' 0085'              	movwf	??_Lcd_Init+1
  9053  0026' 306C               	movlw	108
  9054  0027' 0084'              	movwf	??_Lcd_Init
  9055  0028'                    u6527:
  9056  0028' 0B84'              	decfsz	??_Lcd_Init,f
  9057  0029' 2800'              	goto	u6527
  9058  002A' 0B85'              	decfsz	??_Lcd_Init+1,f
  9059  002B' 2800'              	goto	u6527
  9060  002C' 0000               	nop
  9061                           
  9062                           ;./lcd.h: 91:   Lcd_Cmd(0x03);
  9063  002D' 3003               	movlw	3
  9064  002E' 120A' 118A' 2000' 120A' 118A' 	fcall	_Lcd_Cmd
  9065                           
  9066                           ;./lcd.h: 93:   Lcd_Cmd(0x02);
  9067  0033' 3002               	movlw	2
  9068  0034' 120A' 118A' 2000' 120A' 118A' 	fcall	_Lcd_Cmd
  9069                           
  9070                           ;./lcd.h: 94:   Lcd_Cmd(0x02);
  9071  0039' 3002               	movlw	2
  9072  003A' 120A' 118A' 2000' 120A' 118A' 	fcall	_Lcd_Cmd
  9073                           
  9074                           ;./lcd.h: 95:   Lcd_Cmd(0x08);
  9075  003F' 3008               	movlw	8
  9076  0040' 120A' 118A' 2000' 120A' 118A' 	fcall	_Lcd_Cmd
  9077                           
  9078                           ;./lcd.h: 96:   Lcd_Cmd(0x00);
  9079  0045' 3000               	movlw	0
  9080  0046' 120A' 118A' 2000' 120A' 118A' 	fcall	_Lcd_Cmd
  9081                           
  9082                           ;./lcd.h: 97:   Lcd_Cmd(0x0C);
  9083  004B' 300C               	movlw	12
  9084  004C' 120A' 118A' 2000' 120A' 118A' 	fcall	_Lcd_Cmd
  9085                           
  9086                           ;./lcd.h: 98:   Lcd_Cmd(0x00);
  9087  0051' 3000               	movlw	0
  9088  0052' 120A' 118A' 2000' 120A' 118A' 	fcall	_Lcd_Cmd
  9089                           
  9090                           ;./lcd.h: 99:   Lcd_Cmd(0x06);
  9091  0057' 3006               	movlw	6
  9092  0058' 120A' 118A' 2000' 120A' 118A' 	fcall	_Lcd_Cmd
  9093  005D'                    l60:
  9094  005D' 0008               	return
  9095  005E'                    __end_of_Lcd_Init:
  9096                           
  9097                           	psect	text28
  9098  0000'                    __ptext28:	
  9099 ;; *************** function _Lcd_Cmd *****************
  9100 ;; Defined at:
  9101 ;;		line 47 in file "./lcd.h"
  9102 ;; Parameters:    Size  Location     Type
  9103 ;;  a               1    wreg     unsigned char 
  9104 ;; Auto vars:     Size  Location     Type
  9105 ;;  a               1    3[COMMON] unsigned char 
  9106 ;; Return value:  Size  Location     Type
  9107 ;;                  1    wreg      void 
  9108 ;; Registers used:
  9109 ;;		wreg, status,2, status,0, pclath, cstack
  9110 ;; Tracked objects:
  9111 ;;		On entry : 0/0
  9112 ;;		On exit  : 0/0
  9113 ;;		Unchanged: 0/0
  9114 ;; Data sizes:     COMMON   BANK0   BANK1   BANK3   BANK2
  9115 ;;      Params:         0       0       0       0       0
  9116 ;;      Locals:         1       0       0       0       0
  9117 ;;      Temps:          2       0       0       0       0
  9118 ;;      Totals:         3       0       0       0       0
  9119 ;;Total ram usage:        3 bytes
  9120 ;; Hardware stack levels used: 1
  9121 ;; Hardware stack levels required when called: 1
  9122 ;; This function calls:
  9123 ;;		_Lcd_Port
  9124 ;; This function is called by:
  9125 ;;		_Lcd_Set_Cursor
  9126 ;;		_Lcd_Init
  9127 ;;		_Lcd_Clear
  9128 ;; This function uses a non-reentrant model
  9129 ;;
  9130                           
  9131  0000'                    _Lcd_Cmd:	
  9132                           ;psect for function _Lcd_Cmd
  9133                           
  9134                           
  9135                           ;incstack = 0
  9136                           ; Regs used in _Lcd_Cmd: [wreg+status,2+status,0+pclath+cstack]
  9137                           ;Lcd_Cmd@a stored from wreg
  9138  0000' 0083'              	movwf	Lcd_Cmd@a
  9139  0001'                    l2797:
  9140                           
  9141                           ;./lcd.h: 47: void Lcd_Cmd(char a);./lcd.h: 48: {;./lcd.h: 49:  RD2 = 0;
  9142  0001' 1283               	bcf	3,5	;RP0=0, select bank0
  9143  0002' 1303               	bcf	3,6	;RP1=0, select bank0
  9144  0003' 1108               	bcf	8,2	;volatile
  9145  0004'                    l2799:
  9146                           
  9147                           ;./lcd.h: 50:  Lcd_Port(a);
  9148  0004' 0803'              	movf	Lcd_Cmd@a,w
  9149  0005' 120A' 118A' 2000' 120A' 118A' 	fcall	_Lcd_Port
  9150  000A'                    l2801:
  9151                           
  9152                           ;./lcd.h: 51:  RD3 = 1;
  9153  000A' 1283               	bcf	3,5	;RP0=0, select bank0
  9154  000B' 1303               	bcf	3,6	;RP1=0, select bank0
  9155  000C' 1588               	bsf	8,3	;volatile
  9156  000D'                    l2803:
  9157                           
  9158                           ;./lcd.h: 52:         _delay((unsigned long)((4)*(20000000/4000.0)));
  9159  000D' 301A               	movlw	26
  9160  000E' 0082'              	movwf	??_Lcd_Cmd+1
  9161  000F' 30F8               	movlw	248
  9162  0010' 0081'              	movwf	??_Lcd_Cmd
  9163  0011'                    u6537:
  9164  0011' 0B81'              	decfsz	??_Lcd_Cmd,f
  9165  0012' 2800'              	goto	u6537
  9166  0013' 0B82'              	decfsz	??_Lcd_Cmd+1,f
  9167  0014' 2800'              	goto	u6537
  9168  0015' 0000               	nop
  9169  0016'                    l2805:
  9170                           
  9171                           ;./lcd.h: 53:         RD3 = 0;
  9172  0016' 1283               	bcf	3,5	;RP0=0, select bank0
  9173  0017' 1303               	bcf	3,6	;RP1=0, select bank0
  9174  0018' 1188               	bcf	8,3	;volatile
  9175  0019'                    l48:
  9176  0019' 0008               	return
  9177  001A'                    __end_of_Lcd_Cmd:
  9178                           
  9179                           	psect	text29
  9180  0000'                    __ptext29:	
  9181 ;; *************** function _Lcd_Port *****************
  9182 ;; Defined at:
  9183 ;;		line 25 in file "./lcd.h"
  9184 ;; Parameters:    Size  Location     Type
  9185 ;;  a               1    wreg     unsigned char 
  9186 ;; Auto vars:     Size  Location     Type
  9187 ;;  a               1    0[COMMON] unsigned char 
  9188 ;; Return value:  Size  Location     Type
  9189 ;;                  1    wreg      void 
  9190 ;; Registers used:
  9191 ;;		wreg
  9192 ;; Tracked objects:
  9193 ;;		On entry : 0/0
  9194 ;;		On exit  : 0/0
  9195 ;;		Unchanged: 0/0
  9196 ;; Data sizes:     COMMON   BANK0   BANK1   BANK3   BANK2
  9197 ;;      Params:         0       0       0       0       0
  9198 ;;      Locals:         1       0       0       0       0
  9199 ;;      Temps:          0       0       0       0       0
  9200 ;;      Totals:         1       0       0       0       0
  9201 ;;Total ram usage:        1 bytes
  9202 ;; Hardware stack levels used: 1
  9203 ;; This function calls:
  9204 ;;		Nothing
  9205 ;; This function is called by:
  9206 ;;		_Lcd_Cmd
  9207 ;;		_Lcd_Init
  9208 ;;		_Lcd_Write_Char
  9209 ;; This function uses a non-reentrant model
  9210 ;;
  9211                           
  9212  0000'                    _Lcd_Port:	
  9213                           ;psect for function _Lcd_Port
  9214                           
  9215                           
  9216                           ;incstack = 0
  9217                           ; Regs used in _Lcd_Port: [wreg]
  9218                           ;Lcd_Port@a stored from wreg
  9219  0000' 0080'              	movwf	Lcd_Port@a
  9220  0001'                    l2323:
  9221                           
  9222                           ;./lcd.h: 25: void Lcd_Port(char a);./lcd.h: 26: {;./lcd.h: 27:  if(a & 1)
  9223  0001' 1C00'              	btfss	Lcd_Port@a,0
  9224  0002' 2800'              	goto	u3271
  9225  0003' 2800'              	goto	u3270
  9226  0004'                    u3271:
  9227  0004' 2800'              	goto	l37
  9228  0005'                    u3270:
  9229  0005'                    l2325:
  9230                           
  9231                           ;./lcd.h: 28:   RD4 = 1;
  9232  0005' 1283               	bcf	3,5	;RP0=0, select bank0
  9233  0006' 1303               	bcf	3,6	;RP1=0, select bank0
  9234  0007' 1608               	bsf	8,4	;volatile
  9235  0008' 2800'              	goto	l38
  9236  0009'                    l37:	
  9237                           ;./lcd.h: 29:  else
  9238                           
  9239                           
  9240                           ;./lcd.h: 30:   RD4 = 0;
  9241  0009' 1283               	bcf	3,5	;RP0=0, select bank0
  9242  000A' 1303               	bcf	3,6	;RP1=0, select bank0
  9243  000B' 1208               	bcf	8,4	;volatile
  9244  000C'                    l38:
  9245                           
  9246                           ;./lcd.h: 32:  if(a & 2)
  9247  000C' 1C80'              	btfss	Lcd_Port@a,1
  9248  000D' 2800'              	goto	u3281
  9249  000E' 2800'              	goto	u3280
  9250  000F'                    u3281:
  9251  000F' 2800'              	goto	l39
  9252  0010'                    u3280:
  9253  0010'                    l2327:
  9254                           
  9255                           ;./lcd.h: 33:   RD5 = 1;
  9256  0010' 1688               	bsf	8,5	;volatile
  9257  0011' 2800'              	goto	l40
  9258  0012'                    l39:	
  9259                           ;./lcd.h: 34:  else
  9260                           
  9261                           
  9262                           ;./lcd.h: 35:   RD5 = 0;
  9263  0012' 1288               	bcf	8,5	;volatile
  9264  0013'                    l40:
  9265                           
  9266                           ;./lcd.h: 37:  if(a & 4)
  9267  0013' 1D00'              	btfss	Lcd_Port@a,2
  9268  0014' 2800'              	goto	u3291
  9269  0015' 2800'              	goto	u3290
  9270  0016'                    u3291:
  9271  0016' 2800'              	goto	l41
  9272  0017'                    u3290:
  9273  0017'                    l2329:
  9274                           
  9275                           ;./lcd.h: 38:   RD6 = 1;
  9276  0017' 1708               	bsf	8,6	;volatile
  9277  0018' 2800'              	goto	l42
  9278  0019'                    l41:	
  9279                           ;./lcd.h: 39:  else
  9280                           
  9281                           
  9282                           ;./lcd.h: 40:   RD6 = 0;
  9283  0019' 1308               	bcf	8,6	;volatile
  9284  001A'                    l42:
  9285                           
  9286                           ;./lcd.h: 42:  if(a & 8)
  9287  001A' 1D80'              	btfss	Lcd_Port@a,3
  9288  001B' 2800'              	goto	u3301
  9289  001C' 2800'              	goto	u3300
  9290  001D'                    u3301:
  9291  001D' 2800'              	goto	l43
  9292  001E'                    u3300:
  9293  001E'                    l2331:
  9294                           
  9295                           ;./lcd.h: 43:   RD7 = 1;
  9296  001E' 1788               	bsf	8,7	;volatile
  9297  001F' 2800'              	goto	l45
  9298  0020'                    l43:	
  9299                           ;./lcd.h: 44:  else
  9300                           
  9301                           
  9302                           ;./lcd.h: 45:   RD7 = 0;
  9303  0020' 1388               	bcf	8,7	;volatile
  9304  0021'                    l45:
  9305  0021' 0008               	return
  9306  0022'                    __end_of_Lcd_Port:
  9307                           
  9308                           	psect	text30
  9309  0000'                    __ptext30:	
  9310 ;; *************** function _ADC_init *****************
  9311 ;; Defined at:
  9312 ;;		line 51 in file "bai 3.c"
  9313 ;; Parameters:    Size  Location     Type
  9314 ;;		None
  9315 ;; Auto vars:     Size  Location     Type
  9316 ;;		None
  9317 ;; Return value:  Size  Location     Type
  9318 ;;                  1    wreg      void 
  9319 ;; Registers used:
  9320 ;;		None
  9321 ;; Tracked objects:
  9322 ;;		On entry : 0/0
  9323 ;;		On exit  : 0/0
  9324 ;;		Unchanged: 0/0
  9325 ;; Data sizes:     COMMON   BANK0   BANK1   BANK3   BANK2
  9326 ;;      Params:         0       0       0       0       0
  9327 ;;      Locals:         0       0       0       0       0
  9328 ;;      Temps:          0       0       0       0       0
  9329 ;;      Totals:         0       0       0       0       0
  9330 ;;Total ram usage:        0 bytes
  9331 ;; Hardware stack levels used: 1
  9332 ;; This function calls:
  9333 ;;		Nothing
  9334 ;; This function is called by:
  9335 ;;		_main
  9336 ;; This function uses a non-reentrant model
  9337 ;;
  9338                           
  9339  0000'                    _ADC_init:	
  9340                           ;psect for function _ADC_init
  9341                           
  9342  0000'                    l3353:	
  9343                           ;incstack = 0
  9344                           ; Regs used in _ADC_init: []
  9345                           
  9346                           
  9347                           ;bai 3.c: 54:     ADCON1bits.ADCS2 = 0;
  9348  0000' 1683               	bsf	3,5	;RP0=1, select bank1
  9349  0001' 1303               	bcf	3,6	;RP1=0, select bank1
  9350  0002' 131F               	bcf	31,6	;volatile
  9351                           
  9352                           ;bai 3.c: 55:     ADCON0bits.ADCS1 = 0;
  9353  0003' 1283               	bcf	3,5	;RP0=0, select bank0
  9354  0004' 1303               	bcf	3,6	;RP1=0, select bank0
  9355  0005' 139F               	bcf	31,7	;volatile
  9356                           
  9357                           ;bai 3.c: 56:     ADCON0bits.ADCS0 = 1;
  9358  0006' 171F               	bsf	31,6	;volatile
  9359                           
  9360                           ;bai 3.c: 59:     ADCON0bits.CHS2 =0;
  9361  0007' 129F               	bcf	31,5	;volatile
  9362                           
  9363                           ;bai 3.c: 60:     ADCON0bits.CHS1 =0;
  9364  0008' 121F               	bcf	31,4	;volatile
  9365                           
  9366                           ;bai 3.c: 61:     ADCON0bits.CHS0 =0;
  9367  0009' 119F               	bcf	31,3	;volatile
  9368                           
  9369                           ;bai 3.c: 64:     ADCON1bits.ADFM=1;
  9370  000A' 1683               	bsf	3,5	;RP0=1, select bank1
  9371  000B' 1303               	bcf	3,6	;RP1=0, select bank1
  9372  000C' 179F               	bsf	31,7	;volatile
  9373                           
  9374                           ;bai 3.c: 67:     ADCON1bits.PCFG3 =1;
  9375  000D' 159F               	bsf	31,3	;volatile
  9376                           
  9377                           ;bai 3.c: 68:     ADCON1bits.PCFG2 =1;
  9378  000E' 151F               	bsf	31,2	;volatile
  9379                           
  9380                           ;bai 3.c: 69:     ADCON1bits.PCFG1 =1;
  9381  000F' 149F               	bsf	31,1	;volatile
  9382                           
  9383                           ;bai 3.c: 70:     ADCON1bits.PCFG0 =0;
  9384  0010' 101F               	bcf	31,0	;volatile
  9385                           
  9386                           ;bai 3.c: 73:     ADCON0bits.ADON=1;
  9387  0011' 1283               	bcf	3,5	;RP0=0, select bank0
  9388  0012' 1303               	bcf	3,6	;RP1=0, select bank0
  9389  0013' 141F               	bsf	31,0	;volatile
  9390  0014'                    l78:
  9391  0014' 0008               	return
  9392  0015'                    __end_of_ADC_init:
  9393  007E                     btemp	set	126	;btemp
  9394  007E                     wtemp0	set	126
  9395                           
  9396                           	psect	idloc
  9397                           
  9398                           ;Config register IDLOC0 @ 0x2000
  9399                           ;	unspecified, using default values
  9400  2000                     	org	8192
  9401  2000  3FFF               	dw	16383
  9402                           
  9403                           ;Config register IDLOC1 @ 0x2001
  9404                           ;	unspecified, using default values
  9405  2001                     	org	8193
  9406  2001  3FFF               	dw	16383
  9407                           
  9408                           ;Config register IDLOC2 @ 0x2002
  9409                           ;	unspecified, using default values
  9410  2002                     	org	8194
  9411  2002  3FFF               	dw	16383
  9412                           
  9413                           ;Config register IDLOC3 @ 0x2003
  9414                           ;	unspecified, using default values
  9415  2003                     	org	8195
  9416  2003  3FFF               	dw	16383
  9417                           
  9418                           	psect	config
  9419                           
  9420                           ;Config register CONFIG @ 0x2007
  9421                           ;	Oscillator Selection bits
  9422                           ;	FOSC = HS, HS oscillator
  9423                           ;	Watchdog Timer Enable bit
  9424                           ;	WDTE = OFF, WDT disabled
  9425                           ;	Power-up Timer Enable bit
  9426                           ;	PWRTE = OFF, PWRT disabled
  9427                           ;	Brown-out Reset Enable bit
  9428                           ;	BOREN = ON, BOR enabled
  9429                           ;	Low-Voltage (Single-Supply) In-Circuit Serial Programming Enable bit
  9430                           ;	LVP = OFF, RB3 is digital I/O, HV on MCLR must be used for programming
  9431                           ;	Data EEPROM Memory Code Protection bit
  9432                           ;	CPD = OFF, Data EEPROM code protection off
  9433                           ;	Flash Program Memory Write Enable bits
  9434                           ;	WRT = OFF, Write protection off; all program memory may be written to by EECON control
  9435                           ;	In-Circuit Debugger Mode bit
  9436                           ;	DEBUG = 0x1, unprogrammed default
  9437                           ;	Flash Program Memory Code Protection bit
  9438                           ;	CP = OFF, Code protection off
  9439  2007                     	org	8199
  9440  2007  3F7A               	dw	16250
  9441                           
  9442                           	psect	text1_split_1
  9443  0000'                    u5950:
  9444  0000'                    l3421:
  9445  0000' 2800'              	goto	l3425
  9446  0001'                    l3423:
  9447  0001'                    l3425:
  9448                           
  9449                           ;C:\Program Files\Microchip\xc8\v2.40\pic\sources\c90\common\doprnt.c: 884:    if(
  9450  0001' 1683               	bsf	3,5	;RP0=1, select bank1
  9451  0002' 1303               	bcf	3,6	;RP1=0, select bank1
  9452  0003' 1C80'              	btfss	(sprintf@flag+1)^(0+128),1
  9453  0004' 2800'              	goto	u5961
  9454  0005' 2800'              	goto	u5960
  9455  0006'                    u5961:
  9456  0006' 120A' 118A' 2800'  	goto	l227
  9457  0009'                    u5960:
  9458  0009'                    l3427:
  9459  0009' 0800'              	movf	(sprintf@eexp+1)^(0+128),w
  9460  000A' 3A80               	xorlw	128
  9461  000B' 00FF               	movwf	btemp+1
  9462  000C' 307F               	movlw	127
  9463  000D' 027F               	subwf	btemp+1,w
  9464  000E' 1D03               	skipz
  9465  000F' 2800'              	goto	u5975
  9466  0010' 30FC               	movlw	252
  9467  0011' 0200'              	subwf	sprintf@eexp^(0+128),w
  9468  0012'                    u5975:
  9469  0012' 1C03               	skipc
  9470  0013' 2800'              	goto	u5971
  9471  0014' 2800'              	goto	u5970
  9472  0015'                    u5971:
  9473  0015' 2800'              	goto	l3431
  9474  0016'                    u5970:
  9475  0016'                    l3429:
  9476  0016' 1683               	bsf	3,5	;RP0=1, select bank1
  9477  0017' 1303               	bcf	3,6	;RP1=0, select bank1
  9478  0018' 0800'              	movf	(sprintf@eexp+1)^(0+128),w
  9479  0019' 3A80               	xorlw	128
  9480  001A' 00FF               	movwf	btemp+1
  9481  001B' 3080               	movlw	128
  9482  001C' 027F               	subwf	btemp+1,w
  9483  001D' 1D03               	skipz
  9484  001E' 2800'              	goto	u5985
  9485  001F' 3006               	movlw	6
  9486  0020' 0200'              	subwf	sprintf@eexp^(0+128),w
  9487  0021'                    u5985:
  9488  0021' 1C03               	skipc
  9489  0022' 2800'              	goto	u5981
  9490  0023' 2800'              	goto	u5980
  9491  0024'                    u5981:
  9492  0024' 2800'              	goto	u5961
  9493  0025'                    u5980:
  9494  0025'                    l3431:
  9495  0025'                    l3433:	
  9496                           ;C:\Program Files\Microchip\xc8\v2.40\pic\sources\c90\common\doprnt.c: 894:     ) {;C:\P
      +                          rogram Files\Microchip\xc8\v2.40\pic\sources\c90\common\doprnt.c: 896:     if(prec && fl
      +                          ag & 0x200)
  9497                           
  9498  0025' 1683               	bsf	3,5	;RP0=1, select bank1
  9499  0026' 1303               	bcf	3,6	;RP1=0, select bank1
  9500  0027' 1C80'              	btfss	(sprintf@flag+1)^(0+128),1
  9501  0028' 2800'              	goto	u5991
  9502  0029' 2800'              	goto	u5990
  9503  002A'                    u5991:
  9504  002A' 2800'              	goto	l230
  9505  002B'                    u5990:
  9506  002B'                    l3435:
  9507                           
  9508                           ;C:\Program Files\Microchip\xc8\v2.40\pic\sources\c90\common\doprnt.c: 897:      prec--;
  9509  002B' 30FF               	movlw	255
  9510  002C' 0780'              	addwf	sprintf@prec^(0+128),f
  9511  002D' 1803               	skipnc
  9512  002E' 0A80'              	incf	(sprintf@prec+1)^(0+128),f
  9513  002F' 30FF               	movlw	255
  9514  0030' 0780'              	addwf	(sprintf@prec+1)^(0+128),f
  9515  0031'                    l230:
  9516                           
  9517                           ;C:\Program Files\Microchip\xc8\v2.40\pic\sources\c90\common\doprnt.c: 899:     if((unsi
      +                          gned)prec > (sizeof dpowers/sizeof dpowers[0]) - 2)
  9518  0031' 3000               	movlw	0
  9519  0032' 0200'              	subwf	(sprintf@prec+1)^(0+128),w
  9520  0033' 3009               	movlw	9
  9521  0034' 1903               	skipnz
  9522  0035' 0200'              	subwf	sprintf@prec^(0+128),w
  9523  0036' 1C03               	skipc
  9524  0037' 2800'              	goto	u6001
  9525  0038' 2800'              	goto	u6000
  9526  0039'                    u6001:
  9527  0039' 2800'              	goto	l3439
  9528  003A'                    u6000:
  9529  003A'                    l3437:
  9530                           
  9531                           ;C:\Program Files\Microchip\xc8\v2.40\pic\sources\c90\common\doprnt.c: 900:      c = (si
      +                          zeof dpowers/sizeof dpowers[0]) - 2;
  9532  003A' 3008               	movlw	8
  9533  003B' 0080'              	movwf	sprintf@c^(0+128)
  9534  003C' 2800'              	goto	l3441
  9535  003D'                    l3439:
  9536                           
  9537                           ;C:\Program Files\Microchip\xc8\v2.40\pic\sources\c90\common\doprnt.c: 902:      c = (ch
      +                          ar)prec;
  9538  003D' 0800'              	movf	sprintf@prec^(0+128),w
  9539  003E' 0080'              	movwf	sprintf@c^(0+128)
  9540  003F'                    l3441:
  9541                           
  9542                           ;C:\Program Files\Microchip\xc8\v2.40\pic\sources\c90\common\doprnt.c: 903:     if( fval
      +                          !=0) {
  9543  003F' 0800'              	movf	(sprintf@fval+3)^(0+128),w
  9544  0040' 0083'              	movwf	___fleq@ff1+3
  9545  0041' 0800'              	movf	(sprintf@fval+2)^(0+128),w
  9546  0042' 0082'              	movwf	___fleq@ff1+2
  9547  0043' 0800'              	movf	(sprintf@fval+1)^(0+128),w
  9548  0044' 0081'              	movwf	___fleq@ff1+1
  9549  0045' 0800'              	movf	sprintf@fval^(0+128),w
  9550  0046' 0080'              	movwf	___fleq@ff1
  9551  0047' 3000               	movlw	0
  9552  0048' 0087'              	movwf	___fleq@ff2+3
  9553  0049' 3000               	movlw	0
  9554  004A' 0086'              	movwf	___fleq@ff2+2
  9555  004B' 3000               	movlw	0
  9556  004C' 0085'              	movwf	___fleq@ff2+1
  9557  004D' 3000               	movlw	0
  9558  004E' 0084'              	movwf	___fleq@ff2
  9559  004F' 120A' 118A' 2000' 120A' 118A' 	fcall	___fleq
  9560  0054' 1803               	btfsc	3,0
  9561  0055' 2800'              	goto	u6011
  9562  0056' 2800'              	goto	u6010
  9563  0057'                    u6011:
  9564  0057' 2800'              	goto	l3461
  9565  0058'                    u6010:
  9566  0058'                    l3443:
  9567                           
  9568                           ;C:\Program Files\Microchip\xc8\v2.40\pic\sources\c90\common\doprnt.c: 904:      fval /=
      +                           scale(eexp-c);
  9569  0058' 1683               	bsf	3,5	;RP0=1, select bank1
  9570  0059' 1303               	bcf	3,6	;RP1=0, select bank1
  9571  005A' 0800'              	movf	sprintf@c^(0+128),w
  9572  005B' 0200'              	subwf	sprintf@eexp^(0+128),w
  9573  005C' 120A' 118A' 2000' 120A' 118A' 	fcall	_scale
  9574  0061' 1283               	bcf	3,5	;RP0=0, select bank0
  9575  0062' 1303               	bcf	3,6	;RP1=0, select bank0
  9576  0063' 082B'              	movf	?_scale+3,w
  9577  0064' 00BE'              	movwf	___fldiv@a+3
  9578  0065' 082A'              	movf	?_scale+2,w
  9579  0066' 00BD'              	movwf	___fldiv@a+2
  9580  0067' 0829'              	movf	?_scale+1,w
  9581  0068' 00BC'              	movwf	___fldiv@a+1
  9582  0069' 0828'              	movf	?_scale,w
  9583  006A' 00BB'              	movwf	___fldiv@a
  9584  006B' 1683               	bsf	3,5	;RP0=1, select bank1
  9585  006C' 1303               	bcf	3,6	;RP1=0, select bank1
  9586  006D' 0800'              	movf	(sprintf@fval+3)^(0+128),w
  9587  006E' 1283               	bcf	3,5	;RP0=0, select bank0
  9588  006F' 1303               	bcf	3,6	;RP1=0, select bank0
  9589  0070' 00C2'              	movwf	___fldiv@b+3
  9590  0071' 1683               	bsf	3,5	;RP0=1, select bank1
  9591  0072' 1303               	bcf	3,6	;RP1=0, select bank1
  9592  0073' 0800'              	movf	(sprintf@fval+2)^(0+128),w
  9593  0074' 1283               	bcf	3,5	;RP0=0, select bank0
  9594  0075' 1303               	bcf	3,6	;RP1=0, select bank0
  9595  0076' 00C1'              	movwf	___fldiv@b+2
  9596  0077' 1683               	bsf	3,5	;RP0=1, select bank1
  9597  0078' 1303               	bcf	3,6	;RP1=0, select bank1
  9598  0079' 0800'              	movf	(sprintf@fval+1)^(0+128),w
  9599  007A' 1283               	bcf	3,5	;RP0=0, select bank0
  9600  007B' 1303               	bcf	3,6	;RP1=0, select bank0
  9601  007C' 00C0'              	movwf	___fldiv@b+1
  9602  007D' 1683               	bsf	3,5	;RP0=1, select bank1
  9603  007E' 1303               	bcf	3,6	;RP1=0, select bank1
  9604  007F' 0800'              	movf	sprintf@fval^(0+128),w
  9605  0080' 1283               	bcf	3,5	;RP0=0, select bank0
  9606  0081' 1303               	bcf	3,6	;RP1=0, select bank0
  9607  0082' 00BF'              	movwf	___fldiv@b
  9608  0083' 120A' 118A' 2000' 120A' 118A' 	fcall	___fldiv
  9609  0088' 1283               	bcf	3,5	;RP0=0, select bank0
  9610  0089' 1303               	bcf	3,6	;RP1=0, select bank0
  9611  008A' 083E'              	movf	?___fldiv+3,w
  9612  008B' 1683               	bsf	3,5	;RP0=1, select bank1
  9613  008C' 1303               	bcf	3,6	;RP1=0, select bank1
  9614  008D' 0080'              	movwf	(sprintf@fval+3)^(0+128)
  9615  008E' 1283               	bcf	3,5	;RP0=0, select bank0
  9616  008F' 1303               	bcf	3,6	;RP1=0, select bank0
  9617  0090' 083D'              	movf	?___fldiv+2,w
  9618  0091' 1683               	bsf	3,5	;RP0=1, select bank1
  9619  0092' 1303               	bcf	3,6	;RP1=0, select bank1
  9620  0093' 0080'              	movwf	(sprintf@fval+2)^(0+128)
  9621  0094' 1283               	bcf	3,5	;RP0=0, select bank0
  9622  0095' 1303               	bcf	3,6	;RP1=0, select bank0
  9623  0096' 083C'              	movf	?___fldiv+1,w
  9624  0097' 1683               	bsf	3,5	;RP0=1, select bank1
  9625  0098' 1303               	bcf	3,6	;RP1=0, select bank1
  9626  0099' 0080'              	movwf	(sprintf@fval+1)^(0+128)
  9627  009A' 1283               	bcf	3,5	;RP0=0, select bank0
  9628  009B' 1303               	bcf	3,6	;RP1=0, select bank0
  9629  009C' 083B'              	movf	?___fldiv,w
  9630  009D' 1683               	bsf	3,5	;RP0=1, select bank1
  9631  009E' 1303               	bcf	3,6	;RP1=0, select bank1
  9632  009F' 0080'              	movwf	sprintf@fval^(0+128)
  9633  00A0'                    l3445:
  9634                           
  9635                           ;C:\Program Files\Microchip\xc8\v2.40\pic\sources\c90\common\doprnt.c: 919:      if(fval
      +                           - (double)(unsigned long)fval >= 0.5)
  9636  00A0' 0800'              	movf	(sprintf@fval+3)^(0+128),w
  9637  00A1' 1283               	bcf	3,5	;RP0=0, select bank0
  9638  00A2' 1303               	bcf	3,6	;RP1=0, select bank0
  9639  00A3' 00BE'              	movwf	___fltol@f1+3
  9640  00A4' 1683               	bsf	3,5	;RP0=1, select bank1
  9641  00A5' 1303               	bcf	3,6	;RP1=0, select bank1
  9642  00A6' 0800'              	movf	(sprintf@fval+2)^(0+128),w
  9643  00A7' 1283               	bcf	3,5	;RP0=0, select bank0
  9644  00A8' 1303               	bcf	3,6	;RP1=0, select bank0
  9645  00A9' 00BD'              	movwf	___fltol@f1+2
  9646  00AA' 1683               	bsf	3,5	;RP0=1, select bank1
  9647  00AB' 1303               	bcf	3,6	;RP1=0, select bank1
  9648  00AC' 0800'              	movf	(sprintf@fval+1)^(0+128),w
  9649  00AD' 1283               	bcf	3,5	;RP0=0, select bank0
  9650  00AE' 1303               	bcf	3,6	;RP1=0, select bank0
  9651  00AF' 00BC'              	movwf	___fltol@f1+1
  9652  00B0' 1683               	bsf	3,5	;RP0=1, select bank1
  9653  00B1' 1303               	bcf	3,6	;RP1=0, select bank1
  9654  00B2' 0800'              	movf	sprintf@fval^(0+128),w
  9655  00B3' 1283               	bcf	3,5	;RP0=0, select bank0
  9656  00B4' 1303               	bcf	3,6	;RP1=0, select bank0
  9657  00B5' 00BB'              	movwf	___fltol@f1
  9658  00B6' 120A' 118A' 2000' 120A' 118A' 	fcall	___fltol
  9659  00BB' 1283               	bcf	3,5	;RP0=0, select bank0
  9660  00BC' 1303               	bcf	3,6	;RP1=0, select bank0
  9661  00BD' 083E'              	movf	?___fltol+3,w
  9662  00BE' 0083'              	movwf	___xxtofl@val+3
  9663  00BF' 083D'              	movf	?___fltol+2,w
  9664  00C0' 0082'              	movwf	___xxtofl@val+2
  9665  00C1' 083C'              	movf	?___fltol+1,w
  9666  00C2' 0081'              	movwf	___xxtofl@val+1
  9667  00C3' 083B'              	movf	?___fltol,w
  9668  00C4' 0080'              	movwf	___xxtofl@val
  9669  00C5' 3000               	movlw	0
  9670  00C6' 120A' 118A' 2000' 120A' 118A' 	fcall	___xxtofl
  9671  00CB' 1283               	bcf	3,5	;RP0=0, select bank0
  9672  00CC' 1303               	bcf	3,6	;RP1=0, select bank0
  9673  00CD' 0803'              	movf	?___xxtofl+3,w
  9674  00CE' 1683               	bsf	3,5	;RP0=1, select bank1
  9675  00CF' 1303               	bcf	3,6	;RP1=0, select bank1
  9676  00D0' 0080'              	movwf	(___flsub@a+3)^(0+128)
  9677  00D1' 1283               	bcf	3,5	;RP0=0, select bank0
  9678  00D2' 1303               	bcf	3,6	;RP1=0, select bank0
  9679  00D3' 0802'              	movf	?___xxtofl+2,w
  9680  00D4' 1683               	bsf	3,5	;RP0=1, select bank1
  9681  00D5' 1303               	bcf	3,6	;RP1=0, select bank1
  9682  00D6' 0080'              	movwf	(___flsub@a+2)^(0+128)
  9683  00D7' 1283               	bcf	3,5	;RP0=0, select bank0
  9684  00D8' 1303               	bcf	3,6	;RP1=0, select bank0
  9685  00D9' 0801'              	movf	?___xxtofl+1,w
  9686  00DA' 1683               	bsf	3,5	;RP0=1, select bank1
  9687  00DB' 1303               	bcf	3,6	;RP1=0, select bank1
  9688  00DC' 0080'              	movwf	(___flsub@a+1)^(0+128)
  9689  00DD' 1283               	bcf	3,5	;RP0=0, select bank0
  9690  00DE' 1303               	bcf	3,6	;RP1=0, select bank0
  9691  00DF' 0800'              	movf	?___xxtofl,w
  9692  00E0' 1683               	bsf	3,5	;RP0=1, select bank1
  9693  00E1' 1303               	bcf	3,6	;RP1=0, select bank1
  9694  00E2' 0080'              	movwf	___flsub@a^(0+128)
  9695  00E3' 0800'              	movf	(sprintf@fval+3)^(0+128),w
  9696  00E4' 0080'              	movwf	(___flsub@b+3)^(0+128)
  9697  00E5' 0800'              	movf	(sprintf@fval+2)^(0+128),w
  9698  00E6' 0080'              	movwf	(___flsub@b+2)^(0+128)
  9699  00E7' 0800'              	movf	(sprintf@fval+1)^(0+128),w
  9700  00E8' 0080'              	movwf	(___flsub@b+1)^(0+128)
  9701  00E9' 0800'              	movf	sprintf@fval^(0+128),w
  9702  00EA' 0080'              	movwf	___flsub@b^(0+128)
  9703  00EB' 120A' 118A' 2000' 120A' 118A' 	fcall	___flsub
  9704  00F0' 1683               	bsf	3,5	;RP0=1, select bank1
  9705  00F1' 1303               	bcf	3,6	;RP1=0, select bank1
  9706  00F2' 0800'              	movf	(?___flsub+3)^(0+128),w
  9707  00F3' 0080'              	movwf	(___flge@ff1+3)^(0+128)
  9708  00F4' 0800'              	movf	(?___flsub+2)^(0+128),w
  9709  00F5' 0080'              	movwf	(___flge@ff1+2)^(0+128)
  9710  00F6' 0800'              	movf	(?___flsub+1)^(0+128),w
  9711  00F7' 0080'              	movwf	(___flge@ff1+1)^(0+128)
  9712  00F8' 0800'              	movf	?___flsub^(0+128),w
  9713  00F9' 0080'              	movwf	___flge@ff1^(0+128)
  9714  00FA' 303F               	movlw	63
  9715  00FB' 0080'              	movwf	(___flge@ff2+3)^(0+128)
  9716  00FC' 3000               	movlw	0
  9717  00FD' 0080'              	movwf	(___flge@ff2+2)^(0+128)
  9718  00FE' 3000               	movlw	0
  9719  00FF' 0080'              	movwf	(___flge@ff2+1)^(0+128)
  9720  0100' 3000               	movlw	0
  9721  0101' 0080'              	movwf	___flge@ff2^(0+128)
  9722  0102' 120A' 118A' 2000' 120A' 118A' 	fcall	___flge
  9723  0107' 1C03               	btfss	3,0
  9724  0108' 2800'              	goto	u6021
  9725  0109' 2800'              	goto	u6020
  9726  010A'                    u6021:
  9727  010A' 2800'              	goto	l3449
  9728  010B'                    u6020:
  9729  010B'                    l3447:
  9730                           
  9731                           ;C:\Program Files\Microchip\xc8\v2.40\pic\sources\c90\common\doprnt.c: 920:       fval +
      +                          = 0.5;
  9732  010B' 303F               	movlw	63
  9733  010C' 1283               	bcf	3,5	;RP0=0, select bank0
  9734  010D' 1303               	bcf	3,6	;RP1=0, select bank0
  9735  010E' 00BF'              	movwf	___fladd@b+3
  9736  010F' 3000               	movlw	0
  9737  0110' 00BE'              	movwf	___fladd@b+2
  9738  0111' 3000               	movlw	0
  9739  0112' 00BD'              	movwf	___fladd@b+1
  9740  0113' 3000               	movlw	0
  9741  0114' 00BC'              	movwf	___fladd@b
  9742  0115' 1683               	bsf	3,5	;RP0=1, select bank1
  9743  0116' 1303               	bcf	3,6	;RP1=0, select bank1
  9744  0117' 0800'              	movf	(sprintf@fval+3)^(0+128),w
  9745  0118' 1283               	bcf	3,5	;RP0=0, select bank0
  9746  0119' 1303               	bcf	3,6	;RP1=0, select bank0
  9747  011A' 00C3'              	movwf	___fladd@a+3
  9748  011B' 1683               	bsf	3,5	;RP0=1, select bank1
  9749  011C' 1303               	bcf	3,6	;RP1=0, select bank1
  9750  011D' 0800'              	movf	(sprintf@fval+2)^(0+128),w
  9751  011E' 1283               	bcf	3,5	;RP0=0, select bank0
  9752  011F' 1303               	bcf	3,6	;RP1=0, select bank0
  9753  0120' 00C2'              	movwf	___fladd@a+2
  9754  0121' 1683               	bsf	3,5	;RP0=1, select bank1
  9755  0122' 1303               	bcf	3,6	;RP1=0, select bank1
  9756  0123' 0800'              	movf	(sprintf@fval+1)^(0+128),w
  9757  0124' 1283               	bcf	3,5	;RP0=0, select bank0
  9758  0125' 1303               	bcf	3,6	;RP1=0, select bank0
  9759  0126' 00C1'              	movwf	___fladd@a+1
  9760  0127' 1683               	bsf	3,5	;RP0=1, select bank1
  9761  0128' 1303               	bcf	3,6	;RP1=0, select bank1
  9762  0129' 0800'              	movf	sprintf@fval^(0+128),w
  9763  012A' 1283               	bcf	3,5	;RP0=0, select bank0
  9764  012B' 1303               	bcf	3,6	;RP1=0, select bank0
  9765  012C' 00C0'              	movwf	___fladd@a
  9766  012D' 120A' 118A' 2000' 120A' 118A' 	fcall	___fladd
  9767  0132' 1283               	bcf	3,5	;RP0=0, select bank0
  9768  0133' 1303               	bcf	3,6	;RP1=0, select bank0
  9769  0134' 083F'              	movf	?___fladd+3,w
  9770  0135' 1683               	bsf	3,5	;RP0=1, select bank1
  9771  0136' 1303               	bcf	3,6	;RP1=0, select bank1
  9772  0137' 0080'              	movwf	(sprintf@fval+3)^(0+128)
  9773  0138' 1283               	bcf	3,5	;RP0=0, select bank0
  9774  0139' 1303               	bcf	3,6	;RP1=0, select bank0
  9775  013A' 083E'              	movf	?___fladd+2,w
  9776  013B' 1683               	bsf	3,5	;RP0=1, select bank1
  9777  013C' 1303               	bcf	3,6	;RP1=0, select bank1
  9778  013D' 0080'              	movwf	(sprintf@fval+2)^(0+128)
  9779  013E' 1283               	bcf	3,5	;RP0=0, select bank0
  9780  013F' 1303               	bcf	3,6	;RP1=0, select bank0
  9781  0140' 083D'              	movf	?___fladd+1,w
  9782  0141' 1683               	bsf	3,5	;RP0=1, select bank1
  9783  0142' 1303               	bcf	3,6	;RP1=0, select bank1
  9784  0143' 0080'              	movwf	(sprintf@fval+1)^(0+128)
  9785  0144' 1283               	bcf	3,5	;RP0=0, select bank0
  9786  0145' 1303               	bcf	3,6	;RP1=0, select bank0
  9787  0146' 083C'              	movf	?___fladd,w
  9788  0147' 1683               	bsf	3,5	;RP0=1, select bank1
  9789  0148' 1303               	bcf	3,6	;RP1=0, select bank1
  9790  0149' 0080'              	movwf	sprintf@fval^(0+128)
  9791  014A'                    l3449:
  9792                           
  9793                           ;C:\Program Files\Microchip\xc8\v2.40\pic\sources\c90\common\doprnt.c: 921:      if((uns
      +                          igned long)fval >= dpowers[c+1u]) {
  9794  014A' 1683               	bsf	3,5	;RP0=1, select bank1
  9795  014B' 1303               	bcf	3,6	;RP1=0, select bank1
  9796  014C' 0800'              	movf	sprintf@c^(0+128),w
  9797  014D' 0080'              	movwf	??_sprintf^(0+128)
  9798  014E' 3001               	movlw	1
  9799  014F'                    u6035:
  9800  014F' 1003               	clrc
  9801  0150' 0D80'              	rlf	??_sprintf^(0+128),f
  9802  0151' 3EFF               	addlw	-1
  9803  0152' 1D03               	skipz
  9804  0153' 2800'              	goto	u6035
  9805  0154' 1003               	clrc
  9806  0155' 0D00'              	rlf	??_sprintf^(0+128),w
  9807  0156' 3E6D               	addlw	low (((_dpowers-__stringbase)| (0+32768)+4))
  9808  0157' 0084               	movwf	4
  9809  0158' 120A' 118A' 2000' 120A' 118A' 	fcall	stringdir
  9810  015D' 0080'              	movwf	(??_sprintf+1)^(0+128)
  9811  015E' 120A' 118A' 2000' 120A' 118A' 	fcall	stringdir
  9812  0163' 0081'              	movwf	((??_sprintf+1)^(0+128)+1)
  9813  0164' 120A' 118A' 2000' 120A' 118A' 	fcall	stringdir
  9814  0169' 0082'              	movwf	((??_sprintf+1)^(0+128)+2)
  9815  016A' 120A' 118A' 2000' 120A' 118A' 	fcall	stringdir
  9816  016F' 0083'              	movwf	((??_sprintf+1)^(0+128)+3)
  9817  0170' 0800'              	movf	(sprintf@fval+3)^(0+128),w
  9818  0171' 1283               	bcf	3,5	;RP0=0, select bank0
  9819  0172' 1303               	bcf	3,6	;RP1=0, select bank0
  9820  0173' 00BE'              	movwf	___fltol@f1+3
  9821  0174' 1683               	bsf	3,5	;RP0=1, select bank1
  9822  0175' 1303               	bcf	3,6	;RP1=0, select bank1
  9823  0176' 0800'              	movf	(sprintf@fval+2)^(0+128),w
  9824  0177' 1283               	bcf	3,5	;RP0=0, select bank0
  9825  0178' 1303               	bcf	3,6	;RP1=0, select bank0
  9826  0179' 00BD'              	movwf	___fltol@f1+2
  9827  017A' 1683               	bsf	3,5	;RP0=1, select bank1
  9828  017B' 1303               	bcf	3,6	;RP1=0, select bank1
  9829  017C' 0800'              	movf	(sprintf@fval+1)^(0+128),w
  9830  017D' 1283               	bcf	3,5	;RP0=0, select bank0
  9831  017E' 1303               	bcf	3,6	;RP1=0, select bank0
  9832  017F' 00BC'              	movwf	___fltol@f1+1
  9833  0180' 1683               	bsf	3,5	;RP0=1, select bank1
  9834  0181' 1303               	bcf	3,6	;RP1=0, select bank1
  9835  0182' 0800'              	movf	sprintf@fval^(0+128),w
  9836  0183' 1283               	bcf	3,5	;RP0=0, select bank0
  9837  0184' 1303               	bcf	3,6	;RP1=0, select bank0
  9838  0185' 00BB'              	movwf	___fltol@f1
  9839  0186' 120A' 118A' 2000' 120A' 118A' 	fcall	___fltol
  9840  018B' 1683               	bsf	3,5	;RP0=1, select bank1
  9841  018C' 1303               	bcf	3,6	;RP1=0, select bank1
  9842  018D' 0800'              	movf	(??_sprintf+4)^(0+128),w
  9843  018E' 1283               	bcf	3,5	;RP0=0, select bank0
  9844  018F' 1303               	bcf	3,6	;RP1=0, select bank0
  9845  0190' 023E'              	subwf	?___fltol+3,w
  9846  0191' 1D03               	skipz
  9847  0192' 2800'              	goto	u6045
  9848  0193' 1683               	bsf	3,5	;RP0=1, select bank1
  9849  0194' 1303               	bcf	3,6	;RP1=0, select bank1
  9850  0195' 0800'              	movf	(??_sprintf+3)^(0+128),w
  9851  0196' 1283               	bcf	3,5	;RP0=0, select bank0
  9852  0197' 1303               	bcf	3,6	;RP1=0, select bank0
  9853  0198' 023D'              	subwf	?___fltol+2,w
  9854  0199' 1D03               	skipz
  9855  019A' 2800'              	goto	u6045
  9856  019B' 1683               	bsf	3,5	;RP0=1, select bank1
  9857  019C' 1303               	bcf	3,6	;RP1=0, select bank1
  9858  019D' 0800'              	movf	(??_sprintf+2)^(0+128),w
  9859  019E' 1283               	bcf	3,5	;RP0=0, select bank0
  9860  019F' 1303               	bcf	3,6	;RP1=0, select bank0
  9861  01A0' 023C'              	subwf	?___fltol+1,w
  9862  01A1' 1D03               	skipz
  9863  01A2' 2800'              	goto	u6045
  9864  01A3' 1683               	bsf	3,5	;RP0=1, select bank1
  9865  01A4' 1303               	bcf	3,6	;RP1=0, select bank1
  9866  01A5' 0800'              	movf	(??_sprintf+1)^(0+128),w
  9867  01A6' 1283               	bcf	3,5	;RP0=0, select bank0
  9868  01A7' 1303               	bcf	3,6	;RP1=0, select bank0
  9869  01A8' 023B'              	subwf	?___fltol,w
  9870  01A9'                    u6045:
  9871  01A9' 1C03               	skipc
  9872  01AA' 2800'              	goto	u6041
  9873  01AB' 2800'              	goto	u6040
  9874  01AC'                    u6041:
  9875  01AC' 2800'              	goto	l3455
  9876  01AD'                    u6040:
  9877  01AD'                    l3451:
  9878                           
  9879                           ;C:\Program Files\Microchip\xc8\v2.40\pic\sources\c90\common\doprnt.c: 922:       fval *
      +                          = 1e-1;
  9880  01AD' 303D               	movlw	61
  9881  01AE' 0091'              	movwf	___flmul@b+3
  9882  01AF' 30CC               	movlw	204
  9883  01B0' 0090'              	movwf	___flmul@b+2
  9884  01B1' 30CC               	movlw	204
  9885  01B2' 008F'              	movwf	___flmul@b+1
  9886  01B3' 30CD               	movlw	205
  9887  01B4' 008E'              	movwf	___flmul@b
  9888  01B5' 1683               	bsf	3,5	;RP0=1, select bank1
  9889  01B6' 1303               	bcf	3,6	;RP1=0, select bank1
  9890  01B7' 0800'              	movf	(sprintf@fval+3)^(0+128),w
  9891  01B8' 1283               	bcf	3,5	;RP0=0, select bank0
  9892  01B9' 1303               	bcf	3,6	;RP1=0, select bank0
  9893  01BA' 0095'              	movwf	___flmul@a+3
  9894  01BB' 1683               	bsf	3,5	;RP0=1, select bank1
  9895  01BC' 1303               	bcf	3,6	;RP1=0, select bank1
  9896  01BD' 0800'              	movf	(sprintf@fval+2)^(0+128),w
  9897  01BE' 1283               	bcf	3,5	;RP0=0, select bank0
  9898  01BF' 1303               	bcf	3,6	;RP1=0, select bank0
  9899  01C0' 0094'              	movwf	___flmul@a+2
  9900  01C1' 1683               	bsf	3,5	;RP0=1, select bank1
  9901  01C2' 1303               	bcf	3,6	;RP1=0, select bank1
  9902  01C3' 0800'              	movf	(sprintf@fval+1)^(0+128),w
  9903  01C4' 1283               	bcf	3,5	;RP0=0, select bank0
  9904  01C5' 1303               	bcf	3,6	;RP1=0, select bank0
  9905  01C6' 0093'              	movwf	___flmul@a+1
  9906  01C7' 1683               	bsf	3,5	;RP0=1, select bank1
  9907  01C8' 1303               	bcf	3,6	;RP1=0, select bank1
  9908  01C9' 0800'              	movf	sprintf@fval^(0+128),w
  9909  01CA' 1283               	bcf	3,5	;RP0=0, select bank0
  9910  01CB' 1303               	bcf	3,6	;RP1=0, select bank0
  9911  01CC' 0092'              	movwf	___flmul@a
  9912  01CD' 120A' 118A' 2000' 120A' 118A' 	fcall	___flmul
  9913  01D2' 1283               	bcf	3,5	;RP0=0, select bank0
  9914  01D3' 1303               	bcf	3,6	;RP1=0, select bank0
  9915  01D4' 0811'              	movf	?___flmul+3,w
  9916  01D5' 1683               	bsf	3,5	;RP0=1, select bank1
  9917  01D6' 1303               	bcf	3,6	;RP1=0, select bank1
  9918  01D7' 0080'              	movwf	(sprintf@fval+3)^(0+128)
  9919  01D8' 1283               	bcf	3,5	;RP0=0, select bank0
  9920  01D9' 1303               	bcf	3,6	;RP1=0, select bank0
  9921  01DA' 0810'              	movf	?___flmul+2,w
  9922  01DB' 1683               	bsf	3,5	;RP0=1, select bank1
  9923  01DC' 1303               	bcf	3,6	;RP1=0, select bank1
  9924  01DD' 0080'              	movwf	(sprintf@fval+2)^(0+128)
  9925  01DE' 1283               	bcf	3,5	;RP0=0, select bank0
  9926  01DF' 1303               	bcf	3,6	;RP1=0, select bank0
  9927  01E0' 080F'              	movf	?___flmul+1,w
  9928  01E1' 1683               	bsf	3,5	;RP0=1, select bank1
  9929  01E2' 1303               	bcf	3,6	;RP1=0, select bank1
  9930  01E3' 0080'              	movwf	(sprintf@fval+1)^(0+128)
  9931  01E4' 1283               	bcf	3,5	;RP0=0, select bank0
  9932  01E5' 1303               	bcf	3,6	;RP1=0, select bank0
  9933  01E6' 080E'              	movf	?___flmul,w
  9934  01E7' 1683               	bsf	3,5	;RP0=1, select bank1
  9935  01E8' 1303               	bcf	3,6	;RP1=0, select bank1
  9936  01E9' 0080'              	movwf	sprintf@fval^(0+128)
  9937  01EA'                    l3453:
  9938                           
  9939                           ;C:\Program Files\Microchip\xc8\v2.40\pic\sources\c90\common\doprnt.c: 923:       eexp++
      +                          ;
  9940  01EA' 3001               	movlw	1
  9941  01EB' 0780'              	addwf	sprintf@eexp^(0+128),f
  9942  01EC' 1803               	skipnc
  9943  01ED' 0A80'              	incf	(sprintf@eexp+1)^(0+128),f
  9944  01EE' 3000               	movlw	0
  9945  01EF' 0780'              	addwf	(sprintf@eexp+1)^(0+128),f
  9946                           
  9947                           ;C:\Program Files\Microchip\xc8\v2.40\pic\sources\c90\common\doprnt.c: 924:      } else 
      +                          if((unsigned long)fval < dpowers[c]) {
  9948  01F0' 2800'              	goto	l3461
  9949  01F1'                    l3455:
  9950  01F1' 1683               	bsf	3,5	;RP0=1, select bank1
  9951  01F2' 1303               	bcf	3,6	;RP1=0, select bank1
  9952  01F3' 0800'              	movf	sprintf@c^(0+128),w
  9953  01F4' 0080'              	movwf	??_sprintf^(0+128)
  9954  01F5' 3001               	movlw	1
  9955  01F6'                    u6055:
  9956  01F6' 1003               	clrc
  9957  01F7' 0D80'              	rlf	??_sprintf^(0+128),f
  9958  01F8' 3EFF               	addlw	-1
  9959  01F9' 1D03               	skipz
  9960  01FA' 2800'              	goto	u6055
  9961  01FB' 1003               	clrc
  9962  01FC' 0D00'              	rlf	??_sprintf^(0+128),w
  9963  01FD' 3E69               	addlw	low ((_dpowers-__stringbase)| (0+32768))
  9964  01FE' 0084               	movwf	4
  9965  01FF' 120A' 118A' 2000' 120A' 118A' 	fcall	stringdir
  9966  0204' 0080'              	movwf	(??_sprintf+1)^(0+128)
  9967  0205' 120A' 118A' 2000' 120A' 118A' 	fcall	stringdir
  9968  020A' 0081'              	movwf	((??_sprintf+1)^(0+128)+1)
  9969  020B' 120A' 118A' 2000' 120A' 118A' 	fcall	stringdir
  9970  0210' 0082'              	movwf	((??_sprintf+1)^(0+128)+2)
  9971  0211' 120A' 118A' 2000' 120A' 118A' 	fcall	stringdir
  9972  0216' 0083'              	movwf	((??_sprintf+1)^(0+128)+3)
  9973  0217' 0800'              	movf	(sprintf@fval+3)^(0+128),w
  9974  0218' 1283               	bcf	3,5	;RP0=0, select bank0
  9975  0219' 1303               	bcf	3,6	;RP1=0, select bank0
  9976  021A' 00BE'              	movwf	___fltol@f1+3
  9977  021B' 1683               	bsf	3,5	;RP0=1, select bank1
  9978  021C' 1303               	bcf	3,6	;RP1=0, select bank1
  9979  021D' 0800'              	movf	(sprintf@fval+2)^(0+128),w
  9980  021E' 1283               	bcf	3,5	;RP0=0, select bank0
  9981  021F' 1303               	bcf	3,6	;RP1=0, select bank0
  9982  0220' 00BD'              	movwf	___fltol@f1+2
  9983  0221' 1683               	bsf	3,5	;RP0=1, select bank1
  9984  0222' 1303               	bcf	3,6	;RP1=0, select bank1
  9985  0223' 0800'              	movf	(sprintf@fval+1)^(0+128),w
  9986  0224' 1283               	bcf	3,5	;RP0=0, select bank0
  9987  0225' 1303               	bcf	3,6	;RP1=0, select bank0
  9988  0226' 00BC'              	movwf	___fltol@f1+1
  9989  0227' 1683               	bsf	3,5	;RP0=1, select bank1
  9990  0228' 1303               	bcf	3,6	;RP1=0, select bank1
  9991  0229' 0800'              	movf	sprintf@fval^(0+128),w
  9992  022A' 1283               	bcf	3,5	;RP0=0, select bank0
  9993  022B' 1303               	bcf	3,6	;RP1=0, select bank0
  9994  022C' 00BB'              	movwf	___fltol@f1
  9995  022D' 120A' 118A' 2000' 120A' 118A' 	fcall	___fltol
  9996  0232' 1683               	bsf	3,5	;RP0=1, select bank1
  9997  0233' 1303               	bcf	3,6	;RP1=0, select bank1
  9998  0234' 0800'              	movf	(??_sprintf+4)^(0+128),w
  9999  0235' 1283               	bcf	3,5	;RP0=0, select bank0
 10000  0236' 1303               	bcf	3,6	;RP1=0, select bank0
 10001  0237' 023E'              	subwf	?___fltol+3,w
 10002  0238' 1D03               	skipz
 10003  0239' 2800'              	goto	u6065
 10004  023A' 1683               	bsf	3,5	;RP0=1, select bank1
 10005  023B' 1303               	bcf	3,6	;RP1=0, select bank1
 10006  023C' 0800'              	movf	(??_sprintf+3)^(0+128),w
 10007  023D' 1283               	bcf	3,5	;RP0=0, select bank0
 10008  023E' 1303               	bcf	3,6	;RP1=0, select bank0
 10009  023F' 023D'              	subwf	?___fltol+2,w
 10010  0240' 1D03               	skipz
 10011  0241' 2800'              	goto	u6065
 10012  0242' 1683               	bsf	3,5	;RP0=1, select bank1
 10013  0243' 1303               	bcf	3,6	;RP1=0, select bank1
 10014  0244' 0800'              	movf	(??_sprintf+2)^(0+128),w
 10015  0245' 1283               	bcf	3,5	;RP0=0, select bank0
 10016  0246' 1303               	bcf	3,6	;RP1=0, select bank0
 10017  0247' 023C'              	subwf	?___fltol+1,w
 10018  0248' 1D03               	skipz
 10019  0249' 2800'              	goto	u6065
 10020  024A' 1683               	bsf	3,5	;RP0=1, select bank1
 10021  024B' 1303               	bcf	3,6	;RP1=0, select bank1
 10022  024C' 0800'              	movf	(??_sprintf+1)^(0+128),w
 10023  024D' 1283               	bcf	3,5	;RP0=0, select bank0
 10024  024E' 1303               	bcf	3,6	;RP1=0, select bank0
 10025  024F' 023B'              	subwf	?___fltol,w
 10026  0250'                    u6065:
 10027  0250' 1803               	skipnc
 10028  0251' 2800'              	goto	u6061
 10029  0252' 2800'              	goto	u6060
 10030  0253'                    u6061:
 10031  0253' 2800'              	goto	l3461
 10032  0254'                    u6060:
 10033  0254'                    l3457:
 10034                           
 10035                           ;C:\Program Files\Microchip\xc8\v2.40\pic\sources\c90\common\doprnt.c: 925:       fval *
      +                          = 10.0;
 10036  0254' 3041               	movlw	65
 10037  0255' 0091'              	movwf	___flmul@b+3
 10038  0256' 3020               	movlw	32
 10039  0257' 0090'              	movwf	___flmul@b+2
 10040  0258' 3000               	movlw	0
 10041  0259' 008F'              	movwf	___flmul@b+1
 10042  025A' 3000               	movlw	0
 10043  025B' 008E'              	movwf	___flmul@b
 10044  025C' 1683               	bsf	3,5	;RP0=1, select bank1
 10045  025D' 1303               	bcf	3,6	;RP1=0, select bank1
 10046  025E' 0800'              	movf	(sprintf@fval+3)^(0+128),w
 10047  025F' 1283               	bcf	3,5	;RP0=0, select bank0
 10048  0260' 1303               	bcf	3,6	;RP1=0, select bank0
 10049  0261' 0095'              	movwf	___flmul@a+3
 10050  0262' 1683               	bsf	3,5	;RP0=1, select bank1
 10051  0263' 1303               	bcf	3,6	;RP1=0, select bank1
 10052  0264' 0800'              	movf	(sprintf@fval+2)^(0+128),w
 10053  0265' 1283               	bcf	3,5	;RP0=0, select bank0
 10054  0266' 1303               	bcf	3,6	;RP1=0, select bank0
 10055  0267' 0094'              	movwf	___flmul@a+2
 10056  0268' 1683               	bsf	3,5	;RP0=1, select bank1
 10057  0269' 1303               	bcf	3,6	;RP1=0, select bank1
 10058  026A' 0800'              	movf	(sprintf@fval+1)^(0+128),w
 10059  026B' 1283               	bcf	3,5	;RP0=0, select bank0
 10060  026C' 1303               	bcf	3,6	;RP1=0, select bank0
 10061  026D' 0093'              	movwf	___flmul@a+1
 10062  026E' 1683               	bsf	3,5	;RP0=1, select bank1
 10063  026F' 1303               	bcf	3,6	;RP1=0, select bank1
 10064  0270' 0800'              	movf	sprintf@fval^(0+128),w
 10065  0271' 1283               	bcf	3,5	;RP0=0, select bank0
 10066  0272' 1303               	bcf	3,6	;RP1=0, select bank0
 10067  0273' 0092'              	movwf	___flmul@a
 10068  0274' 120A' 118A' 2000' 120A' 118A' 	fcall	___flmul
 10069  0279' 1283               	bcf	3,5	;RP0=0, select bank0
 10070  027A' 1303               	bcf	3,6	;RP1=0, select bank0
 10071  027B' 0811'              	movf	?___flmul+3,w
 10072  027C' 1683               	bsf	3,5	;RP0=1, select bank1
 10073  027D' 1303               	bcf	3,6	;RP1=0, select bank1
 10074  027E' 0080'              	movwf	(sprintf@fval+3)^(0+128)
 10075  027F' 1283               	bcf	3,5	;RP0=0, select bank0
 10076  0280' 1303               	bcf	3,6	;RP1=0, select bank0
 10077  0281' 0810'              	movf	?___flmul+2,w
 10078  0282' 1683               	bsf	3,5	;RP0=1, select bank1
 10079  0283' 1303               	bcf	3,6	;RP1=0, select bank1
 10080  0284' 0080'              	movwf	(sprintf@fval+2)^(0+128)
 10081  0285' 1283               	bcf	3,5	;RP0=0, select bank0
 10082  0286' 1303               	bcf	3,6	;RP1=0, select bank0
 10083  0287' 080F'              	movf	?___flmul+1,w
 10084  0288' 1683               	bsf	3,5	;RP0=1, select bank1
 10085  0289' 1303               	bcf	3,6	;RP1=0, select bank1
 10086  028A' 0080'              	movwf	(sprintf@fval+1)^(0+128)
 10087  028B' 1283               	bcf	3,5	;RP0=0, select bank0
 10088  028C' 1303               	bcf	3,6	;RP1=0, select bank0
 10089  028D' 080E'              	movf	?___flmul,w
 10090  028E' 1683               	bsf	3,5	;RP0=1, select bank1
 10091  028F' 1303               	bcf	3,6	;RP1=0, select bank1
 10092  0290' 0080'              	movwf	sprintf@fval^(0+128)
 10093  0291'                    l3459:
 10094                           
 10095                           ;C:\Program Files\Microchip\xc8\v2.40\pic\sources\c90\common\doprnt.c: 926:       eexp--
      +                          ;
 10096  0291' 30FF               	movlw	255
 10097  0292' 0780'              	addwf	sprintf@eexp^(0+128),f
 10098  0293' 1803               	skipnc
 10099  0294' 0A80'              	incf	(sprintf@eexp+1)^(0+128),f
 10100  0295' 30FF               	movlw	255
 10101  0296' 0780'              	addwf	(sprintf@eexp+1)^(0+128),f
 10102  0297'                    l3461:
 10103                           
 10104                           ;C:\Program Files\Microchip\xc8\v2.40\pic\sources\c90\common\doprnt.c: 985:     {;C:\Pro
      +                          gram Files\Microchip\xc8\v2.40\pic\sources\c90\common\doprnt.c: 999:      if(flag & 0x03
      +                          )
 10105  0297' 3003               	movlw	3
 10106  0298' 1683               	bsf	3,5	;RP0=1, select bank1
 10107  0299' 1303               	bcf	3,6	;RP1=0, select bank1
 10108  029A' 0500'              	andwf	sprintf@flag^(0+128),w
 10109  029B' 0080'              	movwf	??_sprintf^(0+128)
 10110  029C' 3000               	movlw	0
 10111  029D' 0500'              	andwf	(sprintf@flag+1)^(0+128),w
 10112  029E' 0080'              	movwf	(??_sprintf+1)^(0+128)
 10113  029F' 0800'              	movf	??_sprintf^(0+128),w
 10114  02A0' 0401'              	iorwf	(??_sprintf^(0+128)+1),w
 10115  02A1' 1903               	btfsc	3,2
 10116  02A2' 2800'              	goto	u6071
 10117  02A3' 2800'              	goto	u6070
 10118  02A4'                    u6071:
 10119  02A4' 2800'              	goto	l3467
 10120  02A5'                    u6070:
 10121  02A5'                    l3463:
 10122                           
 10123                           ;C:\Program Files\Microchip\xc8\v2.40\pic\sources\c90\common\doprnt.c: 1000:       ((*sp
      +                          ++ = ('-')));
 10124  02A5' 0800'              	movf	sprintf@sp^(0+128),w
 10125  02A6' 0084               	movwf	4
 10126  02A7' 302D               	movlw	45
 10127  02A8' 1783               	bsf	3,7	;select IRP bank2
 10128  02A9' 0080               	movwf	0
 10129  02AA'                    l3465:
 10130  02AA' 3001               	movlw	1
 10131  02AB' 0080'              	movwf	??_sprintf^(0+128)
 10132  02AC' 0800'              	movf	??_sprintf^(0+128),w
 10133  02AD' 0780'              	addwf	sprintf@sp^(0+128),f
 10134  02AE'                    l3467:
 10135                           
 10136                           ;C:\Program Files\Microchip\xc8\v2.40\pic\sources\c90\common\doprnt.c: 1006:     };C:\Pr
      +                          ogram Files\Microchip\xc8\v2.40\pic\sources\c90\common\doprnt.c: 1011:     val = (unsign
      +                          ed long)fval;
 10137  02AE' 0800'              	movf	(sprintf@fval+3)^(0+128),w
 10138  02AF' 1283               	bcf	3,5	;RP0=0, select bank0
 10139  02B0' 1303               	bcf	3,6	;RP1=0, select bank0
 10140  02B1' 00BE'              	movwf	___fltol@f1+3
 10141  02B2' 1683               	bsf	3,5	;RP0=1, select bank1
 10142  02B3' 1303               	bcf	3,6	;RP1=0, select bank1
 10143  02B4' 0800'              	movf	(sprintf@fval+2)^(0+128),w
 10144  02B5' 1283               	bcf	3,5	;RP0=0, select bank0
 10145  02B6' 1303               	bcf	3,6	;RP1=0, select bank0
 10146  02B7' 00BD'              	movwf	___fltol@f1+2
 10147  02B8' 1683               	bsf	3,5	;RP0=1, select bank1
 10148  02B9' 1303               	bcf	3,6	;RP1=0, select bank1
 10149  02BA' 0800'              	movf	(sprintf@fval+1)^(0+128),w
 10150  02BB' 1283               	bcf	3,5	;RP0=0, select bank0
 10151  02BC' 1303               	bcf	3,6	;RP1=0, select bank0
 10152  02BD' 00BC'              	movwf	___fltol@f1+1
 10153  02BE' 1683               	bsf	3,5	;RP0=1, select bank1
 10154  02BF' 1303               	bcf	3,6	;RP1=0, select bank1
 10155  02C0' 0800'              	movf	sprintf@fval^(0+128),w
 10156  02C1' 1283               	bcf	3,5	;RP0=0, select bank0
 10157  02C2' 1303               	bcf	3,6	;RP1=0, select bank0
 10158  02C3' 00BB'              	movwf	___fltol@f1
 10159  02C4' 120A' 118A' 2000' 120A' 118A' 	fcall	___fltol
 10160  02C9' 1283               	bcf	3,5	;RP0=0, select bank0
 10161  02CA' 1303               	bcf	3,6	;RP1=0, select bank0
 10162  02CB' 083E'              	movf	?___fltol+3,w
 10163  02CC' 1683               	bsf	3,5	;RP0=1, select bank1
 10164  02CD' 1303               	bcf	3,6	;RP1=0, select bank1
 10165  02CE' 0080'              	movwf	(sprintf@val+3)^(0+128)
 10166  02CF' 1283               	bcf	3,5	;RP0=0, select bank0
 10167  02D0' 1303               	bcf	3,6	;RP1=0, select bank0
 10168  02D1' 083D'              	movf	?___fltol+2,w
 10169  02D2' 1683               	bsf	3,5	;RP0=1, select bank1
 10170  02D3' 1303               	bcf	3,6	;RP1=0, select bank1
 10171  02D4' 0080'              	movwf	(sprintf@val+2)^(0+128)
 10172  02D5' 1283               	bcf	3,5	;RP0=0, select bank0
 10173  02D6' 1303               	bcf	3,6	;RP1=0, select bank0
 10174  02D7' 083C'              	movf	?___fltol+1,w
 10175  02D8' 1683               	bsf	3,5	;RP0=1, select bank1
 10176  02D9' 1303               	bcf	3,6	;RP1=0, select bank1
 10177  02DA' 0080'              	movwf	(sprintf@val+1)^(0+128)
 10178  02DB' 1283               	bcf	3,5	;RP0=0, select bank0
 10179  02DC' 1303               	bcf	3,6	;RP1=0, select bank0
 10180  02DD' 083B'              	movf	?___fltol,w
 10181  02DE' 1683               	bsf	3,5	;RP0=1, select bank1
 10182  02DF' 1303               	bcf	3,6	;RP1=0, select bank1
 10183  02E0' 0080'              	movwf	sprintf@val^(0+128)
 10184  02E1'                    l3469:
 10185                           
 10186                           ;C:\Program Files\Microchip\xc8\v2.40\pic\sources\c90\common\doprnt.c: 1012:     ((*sp++
      +                           = (val/dpowers[c] + '0')));
 10187  02E1' 0800'              	movf	sprintf@c^(0+128),w
 10188  02E2' 0080'              	movwf	??_sprintf^(0+128)
 10189  02E3' 3001               	movlw	1
 10190  02E4'                    u6085:
 10191  02E4' 1003               	clrc
 10192  02E5' 0D80'              	rlf	??_sprintf^(0+128),f
 10193  02E6' 3EFF               	addlw	-1
 10194  02E7' 1D03               	skipz
 10195  02E8' 2800'              	goto	u6085
 10196  02E9' 1003               	clrc
 10197  02EA' 0D00'              	rlf	??_sprintf^(0+128),w
 10198  02EB' 3E69               	addlw	low ((_dpowers-__stringbase)| (0+32768))
 10199  02EC' 0084               	movwf	4
 10200  02ED' 120A' 118A' 2000' 120A' 118A' 	fcall	stringdir
 10201  02F2' 0080'              	movwf	___lldiv@divisor
 10202  02F3' 120A' 118A' 2000' 120A' 118A' 	fcall	stringdir
 10203  02F8' 0081'              	movwf	___lldiv@divisor+1
 10204  02F9' 120A' 118A' 2000' 120A' 118A' 	fcall	stringdir
 10205  02FE' 0082'              	movwf	___lldiv@divisor+2
 10206  02FF' 120A' 118A' 2000' 120A' 118A' 	fcall	stringdir
 10207  0304' 0083'              	movwf	___lldiv@divisor+3
 10208  0305' 0800'              	movf	(sprintf@val+3)^(0+128),w
 10209  0306' 0087'              	movwf	___lldiv@dividend+3
 10210  0307' 0800'              	movf	(sprintf@val+2)^(0+128),w
 10211  0308' 0086'              	movwf	___lldiv@dividend+2
 10212  0309' 0800'              	movf	(sprintf@val+1)^(0+128),w
 10213  030A' 0085'              	movwf	___lldiv@dividend+1
 10214  030B' 0800'              	movf	sprintf@val^(0+128),w
 10215  030C' 0084'              	movwf	___lldiv@dividend
 10216  030D' 120A' 118A' 2000' 120A' 118A' 	fcall	___lldiv
 10217  0312' 0800'              	movf	?___lldiv,w
 10218  0313' 3E30               	addlw	48
 10219  0314' 1683               	bsf	3,5	;RP0=1, select bank1
 10220  0315' 1303               	bcf	3,6	;RP1=0, select bank1
 10221  0316' 0080'              	movwf	(??_sprintf+1)^(0+128)
 10222  0317' 0800'              	movf	sprintf@sp^(0+128),w
 10223  0318' 0084               	movwf	4
 10224  0319' 0800'              	movf	(??_sprintf+1)^(0+128),w
 10225  031A' 1783               	bsf	3,7	;select IRP bank2
 10226  031B' 0080               	movwf	0
 10227  031C'                    l3471:
 10228  031C' 3001               	movlw	1
 10229  031D' 0080'              	movwf	??_sprintf^(0+128)
 10230  031E' 0800'              	movf	??_sprintf^(0+128),w
 10231  031F' 0780'              	addwf	sprintf@sp^(0+128),f
 10232  0320'                    l3473:
 10233                           
 10234                           ;C:\Program Files\Microchip\xc8\v2.40\pic\sources\c90\common\doprnt.c: 1013:     val %= 
      +                          dpowers[c];
 10235  0320' 0800'              	movf	sprintf@c^(0+128),w
 10236  0321' 0080'              	movwf	??_sprintf^(0+128)
 10237  0322' 3001               	movlw	1
 10238  0323'                    u6095:
 10239  0323' 1003               	clrc
 10240  0324' 0D80'              	rlf	??_sprintf^(0+128),f
 10241  0325' 3EFF               	addlw	-1
 10242  0326' 1D03               	skipz
 10243  0327' 2800'              	goto	u6095
 10244  0328' 1003               	clrc
 10245  0329' 0D00'              	rlf	??_sprintf^(0+128),w
 10246  032A' 3E69               	addlw	low ((_dpowers-__stringbase)| (0+32768))
 10247  032B' 0084               	movwf	4
 10248  032C' 120A' 118A' 2000' 120A' 118A' 	fcall	stringdir
 10249  0331' 0080'              	movwf	___llmod@divisor
 10250  0332' 120A' 118A' 2000' 120A' 118A' 	fcall	stringdir
 10251  0337' 0081'              	movwf	___llmod@divisor+1
 10252  0338' 120A' 118A' 2000' 120A' 118A' 	fcall	stringdir
 10253  033D' 0082'              	movwf	___llmod@divisor+2
 10254  033E' 120A' 118A' 2000' 120A' 118A' 	fcall	stringdir
 10255  0343' 0083'              	movwf	___llmod@divisor+3
 10256  0344' 0800'              	movf	(sprintf@val+3)^(0+128),w
 10257  0345' 0087'              	movwf	___llmod@dividend+3
 10258  0346' 0800'              	movf	(sprintf@val+2)^(0+128),w
 10259  0347' 0086'              	movwf	___llmod@dividend+2
 10260  0348' 0800'              	movf	(sprintf@val+1)^(0+128),w
 10261  0349' 0085'              	movwf	___llmod@dividend+1
 10262  034A' 0800'              	movf	sprintf@val^(0+128),w
 10263  034B' 0084'              	movwf	___llmod@dividend
 10264  034C' 120A' 118A' 2000' 120A' 118A' 	fcall	___llmod
 10265  0351' 0803'              	movf	?___llmod+3,w
 10266  0352' 1683               	bsf	3,5	;RP0=1, select bank1
 10267  0353' 1303               	bcf	3,6	;RP1=0, select bank1
 10268  0354' 0080'              	movwf	(sprintf@val+3)^(0+128)
 10269  0355' 0802'              	movf	?___llmod+2,w
 10270  0356' 0080'              	movwf	(sprintf@val+2)^(0+128)
 10271  0357' 0801'              	movf	?___llmod+1,w
 10272  0358' 0080'              	movwf	(sprintf@val+1)^(0+128)
 10273  0359' 0800'              	movf	?___llmod,w
 10274  035A' 0080'              	movwf	sprintf@val^(0+128)
 10275  035B'                    l3475:
 10276                           
 10277                           ;C:\Program Files\Microchip\xc8\v2.40\pic\sources\c90\common\doprnt.c: 1018:     if(prec
      +                          )
 10278  035B' 0800'              	movf	sprintf@prec^(0+128),w
 10279  035C' 0400'              	iorwf	(sprintf@prec+1)^(0+128),w
 10280  035D' 1903               	btfsc	3,2
 10281  035E' 2800'              	goto	u6101
 10282  035F' 2800'              	goto	u6100
 10283  0360'                    u6101:
 10284  0360' 120A' 118A' 2800'  	goto	l3501
 10285  0363'                    u6100:
 10286  0363'                    l3477:
 10287                           
 10288                           ;C:\Program Files\Microchip\xc8\v2.40\pic\sources\c90\common\doprnt.c: 1020:     {;C:\Pr
      +                          ogram Files\Microchip\xc8\v2.40\pic\sources\c90\common\doprnt.c: 1021:      ((*sp++ = ('
      +                          .')));
 10289  0363' 0800'              	movf	sprintf@sp^(0+128),w
 10290  0364' 0084               	movwf	4
 10291  0365' 302E               	movlw	46
 10292  0366' 1783               	bsf	3,7	;select IRP bank2
 10293  0367' 0080               	movwf	0
 10294  0368'                    l3479:
 10295  0368' 3001               	movlw	1
 10296  0369' 0080'              	movwf	??_sprintf^(0+128)
 10297  036A' 0800'              	movf	??_sprintf^(0+128),w
 10298  036B' 0780'              	addwf	sprintf@sp^(0+128),f
 10299  036C'                    l3481:
 10300                           
 10301                           ;C:\Program Files\Microchip\xc8\v2.40\pic\sources\c90\common\doprnt.c: 1022:      prec -
      +                          = c;
 10302  036C' 0800'              	movf	sprintf@c^(0+128),w
 10303  036D' 0080'              	movwf	??_sprintf^(0+128)
 10304  036E' 0181'              	clrf	(??_sprintf^(0+128)+1)
 10305  036F' 0800'              	movf	??_sprintf^(0+128),w
 10306  0370' 0280'              	subwf	sprintf@prec^(0+128),f
 10307  0371' 0800'              	movf	(??_sprintf+1)^(0+128),w
 10308  0372' 1C03               	skipc
 10309  0373' 0380'              	decf	(sprintf@prec+1)^(0+128),f
 10310  0374' 0280'              	subwf	(sprintf@prec+1)^(0+128),f
 10311                           
 10312                           ;C:\Program Files\Microchip\xc8\v2.40\pic\sources\c90\common\doprnt.c: 1023:      while(
      +                          c--) {
 10313  0375' 120A' 118A' 2800'  	goto	l240
 10314                           
 10315                           	psect	text1_split_2
 10316  0000'                    l241:
 10317                           
 10318                           ;C:\Program Files\Microchip\xc8\v2.40\pic\sources\c90\common\doprnt.c: 1028:       if(fl
      +                          ag & 0x200 && val == 0) {
 10319  0000' 1C80'              	btfss	(sprintf@flag+1)^(0+128),1
 10320  0001' 2800'              	goto	u6111
 10321  0002' 2800'              	goto	u6110
 10322  0003'                    u6111:
 10323  0003' 2800'              	goto	l3487
 10324  0004'                    u6110:
 10325  0004'                    l3483:
 10326  0004' 0800'              	movf	(sprintf@val+3)^(0+128),w
 10327  0005' 0400'              	iorwf	(sprintf@val+2)^(0+128),w
 10328  0006' 0400'              	iorwf	(sprintf@val+1)^(0+128),w
 10329  0007' 0400'              	iorwf	sprintf@val^(0+128),w
 10330  0008' 1D03               	skipz
 10331  0009' 2800'              	goto	u6121
 10332  000A' 2800'              	goto	u6120
 10333  000B'                    u6121:
 10334  000B' 2800'              	goto	l3487
 10335  000C'                    u6120:
 10336  000C'                    l3485:
 10337                           
 10338                           ;C:\Program Files\Microchip\xc8\v2.40\pic\sources\c90\common\doprnt.c: 1029:        prec
      +                           = c = 0;
 10339  000C' 0180'              	clrf	sprintf@c^(0+128)
 10340  000D' 3000               	movlw	0
 10341  000E' 0080'              	movwf	sprintf@prec^(0+128)
 10342  000F' 3000               	movlw	0
 10343  0010' 0081'              	movwf	(sprintf@prec^(0+128)+1)
 10344                           
 10345                           ;C:\Program Files\Microchip\xc8\v2.40\pic\sources\c90\common\doprnt.c: 1030:        brea
      +                          k;
 10346  0011' 2800'              	goto	l3499
 10347  0012'                    l3487:
 10348                           
 10349                           ;C:\Program Files\Microchip\xc8\v2.40\pic\sources\c90\common\doprnt.c: 1033:       ((*sp
      +                          ++ = ('0' + (val/dpowers[c]))));
 10350  0012' 0800'              	movf	sprintf@c^(0+128),w
 10351  0013' 0080'              	movwf	??_sprintf^(0+128)
 10352  0014' 3001               	movlw	1
 10353  0015'                    u6135:
 10354  0015' 1003               	clrc
 10355  0016' 0D80'              	rlf	??_sprintf^(0+128),f
 10356  0017' 3EFF               	addlw	-1
 10357  0018' 1D03               	skipz
 10358  0019' 2800'              	goto	u6135
 10359  001A' 1003               	clrc
 10360  001B' 0D00'              	rlf	??_sprintf^(0+128),w
 10361  001C' 3E69               	addlw	low ((_dpowers-__stringbase)| (0+32768))
 10362  001D' 0084               	movwf	4
 10363  001E' 120A' 118A' 2000' 120A' 118A' 	fcall	stringdir
 10364  0023' 0080'              	movwf	___lldiv@divisor
 10365  0024' 120A' 118A' 2000' 120A' 118A' 	fcall	stringdir
 10366  0029' 0081'              	movwf	___lldiv@divisor+1
 10367  002A' 120A' 118A' 2000' 120A' 118A' 	fcall	stringdir
 10368  002F' 0082'              	movwf	___lldiv@divisor+2
 10369  0030' 120A' 118A' 2000' 120A' 118A' 	fcall	stringdir
 10370  0035' 0083'              	movwf	___lldiv@divisor+3
 10371  0036' 0800'              	movf	(sprintf@val+3)^(0+128),w
 10372  0037' 0087'              	movwf	___lldiv@dividend+3
 10373  0038' 0800'              	movf	(sprintf@val+2)^(0+128),w
 10374  0039' 0086'              	movwf	___lldiv@dividend+2
 10375  003A' 0800'              	movf	(sprintf@val+1)^(0+128),w
 10376  003B' 0085'              	movwf	___lldiv@dividend+1
 10377  003C' 0800'              	movf	sprintf@val^(0+128),w
 10378  003D' 0084'              	movwf	___lldiv@dividend
 10379  003E' 120A' 118A' 2000' 120A' 118A' 	fcall	___lldiv
 10380  0043' 0800'              	movf	?___lldiv,w
 10381  0044' 3E30               	addlw	48
 10382  0045' 1683               	bsf	3,5	;RP0=1, select bank1
 10383  0046' 1303               	bcf	3,6	;RP1=0, select bank1
 10384  0047' 0080'              	movwf	(??_sprintf+1)^(0+128)
 10385  0048' 0800'              	movf	sprintf@sp^(0+128),w
 10386  0049' 0084               	movwf	4
 10387  004A' 0800'              	movf	(??_sprintf+1)^(0+128),w
 10388  004B' 1783               	bsf	3,7	;select IRP bank2
 10389  004C' 0080               	movwf	0
 10390  004D'                    l3489:
 10391  004D' 3001               	movlw	1
 10392  004E' 0080'              	movwf	??_sprintf^(0+128)
 10393  004F' 0800'              	movf	??_sprintf^(0+128),w
 10394  0050' 0780'              	addwf	sprintf@sp^(0+128),f
 10395  0051'                    l3491:
 10396                           
 10397                           ;C:\Program Files\Microchip\xc8\v2.40\pic\sources\c90\common\doprnt.c: 1034:       val %
      +                          = dpowers[c];
 10398  0051' 0800'              	movf	sprintf@c^(0+128),w
 10399  0052' 0080'              	movwf	??_sprintf^(0+128)
 10400  0053' 3001               	movlw	1
 10401  0054'                    u6145:
 10402  0054' 1003               	clrc
 10403  0055' 0D80'              	rlf	??_sprintf^(0+128),f
 10404  0056' 3EFF               	addlw	-1
 10405  0057' 1D03               	skipz
 10406  0058' 2800'              	goto	u6145
 10407  0059' 1003               	clrc
 10408  005A' 0D00'              	rlf	??_sprintf^(0+128),w
 10409  005B' 3E69               	addlw	low ((_dpowers-__stringbase)| (0+32768))
 10410  005C' 0084               	movwf	4
 10411  005D' 120A' 118A' 2000' 120A' 118A' 	fcall	stringdir
 10412  0062' 0080'              	movwf	___llmod@divisor
 10413  0063' 120A' 118A' 2000' 120A' 118A' 	fcall	stringdir
 10414  0068' 0081'              	movwf	___llmod@divisor+1
 10415  0069' 120A' 118A' 2000' 120A' 118A' 	fcall	stringdir
 10416  006E' 0082'              	movwf	___llmod@divisor+2
 10417  006F' 120A' 118A' 2000' 120A' 118A' 	fcall	stringdir
 10418  0074' 0083'              	movwf	___llmod@divisor+3
 10419  0075' 0800'              	movf	(sprintf@val+3)^(0+128),w
 10420  0076' 0087'              	movwf	___llmod@dividend+3
 10421  0077' 0800'              	movf	(sprintf@val+2)^(0+128),w
 10422  0078' 0086'              	movwf	___llmod@dividend+2
 10423  0079' 0800'              	movf	(sprintf@val+1)^(0+128),w
 10424  007A' 0085'              	movwf	___llmod@dividend+1
 10425  007B' 0800'              	movf	sprintf@val^(0+128),w
 10426  007C' 0084'              	movwf	___llmod@dividend
 10427  007D' 120A' 118A' 2000' 120A' 118A' 	fcall	___llmod
 10428  0082' 0803'              	movf	?___llmod+3,w
 10429  0083' 1683               	bsf	3,5	;RP0=1, select bank1
 10430  0084' 1303               	bcf	3,6	;RP1=0, select bank1
 10431  0085' 0080'              	movwf	(sprintf@val+3)^(0+128)
 10432  0086' 0802'              	movf	?___llmod+2,w
 10433  0087' 0080'              	movwf	(sprintf@val+2)^(0+128)
 10434  0088' 0801'              	movf	?___llmod+1,w
 10435  0089' 0080'              	movwf	(sprintf@val+1)^(0+128)
 10436  008A' 0800'              	movf	?___llmod,w
 10437  008B' 0080'              	movwf	sprintf@val^(0+128)
 10438  008C'                    l240:	
 10439                           ;C:\Program Files\Microchip\xc8\v2.40\pic\sources\c90\common\doprnt.c: 1036:      }
 10440                           
 10441                           
 10442                           ;C:\Program Files\Microchip\xc8\v2.40\pic\sources\c90\common\doprnt.c: 1023:      while(
      +                          c--) {
 10443  008C' 3001               	movlw	1
 10444  008D' 0280'              	subwf	sprintf@c^(0+128),f
 10445  008E' 0A00'              	incf	sprintf@c^(0+128),w
 10446  008F' 1D03               	btfss	3,2
 10447  0090' 2800'              	goto	u6151
 10448  0091' 2800'              	goto	u6150
 10449  0092'                    u6151:
 10450  0092' 2800'              	goto	l241
 10451  0093'                    u6150:
 10452  0093' 2800'              	goto	l3499
 10453  0094'                    l3493:
 10454                           
 10455                           ;C:\Program Files\Microchip\xc8\v2.40\pic\sources\c90\common\doprnt.c: 1038:       ((*sp
      +                          ++ = ('0')));
 10456  0094' 0800'              	movf	sprintf@sp^(0+128),w
 10457  0095' 0084               	movwf	4
 10458  0096' 3030               	movlw	48
 10459  0097' 1783               	bsf	3,7	;select IRP bank2
 10460  0098' 0080               	movwf	0
 10461  0099'                    l3495:
 10462  0099' 3001               	movlw	1
 10463  009A' 0080'              	movwf	??_sprintf^(0+128)
 10464  009B' 0800'              	movf	??_sprintf^(0+128),w
 10465  009C' 0780'              	addwf	sprintf@sp^(0+128),f
 10466  009D'                    l3497:
 10467                           
 10468                           ;C:\Program Files\Microchip\xc8\v2.40\pic\sources\c90\common\doprnt.c: 1039:       prec-
      +                          -;
 10469  009D' 30FF               	movlw	255
 10470  009E' 0780'              	addwf	sprintf@prec^(0+128),f
 10471  009F' 1803               	skipnc
 10472  00A0' 0A80'              	incf	(sprintf@prec+1)^(0+128),f
 10473  00A1' 30FF               	movlw	255
 10474  00A2' 0780'              	addwf	(sprintf@prec+1)^(0+128),f
 10475  00A3'                    l3499:
 10476                           
 10477                           ;C:\Program Files\Microchip\xc8\v2.40\pic\sources\c90\common\doprnt.c: 1037:      while(
      +                          prec) {
 10478  00A3' 0800'              	movf	sprintf@prec^(0+128),w
 10479  00A4' 0400'              	iorwf	(sprintf@prec+1)^(0+128),w
 10480  00A5' 1D03               	btfss	3,2
 10481  00A6' 2800'              	goto	u6161
 10482  00A7' 2800'              	goto	u6160
 10483  00A8'                    u6161:
 10484  00A8' 2800'              	goto	l3493
 10485  00A9'                    u6160:
 10486  00A9'                    l3501:
 10487                           
 10488                           ;C:\Program Files\Microchip\xc8\v2.40\pic\sources\c90\common\doprnt.c: 1047:      ((*sp+
      +                          + = ('e')));
 10489  00A9' 0800'              	movf	sprintf@sp^(0+128),w
 10490  00AA' 0084               	movwf	4
 10491  00AB' 3065               	movlw	101
 10492  00AC' 1783               	bsf	3,7	;select IRP bank2
 10493  00AD' 0080               	movwf	0
 10494  00AE'                    l3503:
 10495  00AE' 3001               	movlw	1
 10496  00AF' 0080'              	movwf	??_sprintf^(0+128)
 10497  00B0' 0800'              	movf	??_sprintf^(0+128),w
 10498  00B1' 0780'              	addwf	sprintf@sp^(0+128),f
 10499  00B2'                    l3505:
 10500                           
 10501                           ;C:\Program Files\Microchip\xc8\v2.40\pic\sources\c90\common\doprnt.c: 1048:     if(eexp
      +                           < 0) {
 10502  00B2' 1F80'              	btfss	(sprintf@eexp+1)^(0+128),7
 10503  00B3' 2800'              	goto	u6171
 10504  00B4' 2800'              	goto	u6170
 10505  00B5'                    u6171:
 10506  00B5' 2800'              	goto	l3513
 10507  00B6'                    u6170:
 10508  00B6'                    l3507:
 10509                           
 10510                           ;C:\Program Files\Microchip\xc8\v2.40\pic\sources\c90\common\doprnt.c: 1049:      eexp =
      +                           -eexp;
 10511  00B6' 0980'              	comf	sprintf@eexp^(0+128),f
 10512  00B7' 0980'              	comf	(sprintf@eexp+1)^(0+128),f
 10513  00B8' 0A80'              	incf	sprintf@eexp^(0+128),f
 10514  00B9' 1903               	skipnz
 10515  00BA' 0A80'              	incf	(sprintf@eexp+1)^(0+128),f
 10516  00BB'                    l3509:
 10517                           
 10518                           ;C:\Program Files\Microchip\xc8\v2.40\pic\sources\c90\common\doprnt.c: 1050:      ((*sp+
      +                          + = ('-')));
 10519  00BB' 0800'              	movf	sprintf@sp^(0+128),w
 10520  00BC' 0084               	movwf	4
 10521  00BD' 302D               	movlw	45
 10522  00BE' 0080               	movwf	0
 10523  00BF'                    l3511:
 10524  00BF' 3001               	movlw	1
 10525  00C0' 0080'              	movwf	??_sprintf^(0+128)
 10526  00C1' 0800'              	movf	??_sprintf^(0+128),w
 10527  00C2' 0780'              	addwf	sprintf@sp^(0+128),f
 10528                           
 10529                           ;C:\Program Files\Microchip\xc8\v2.40\pic\sources\c90\common\doprnt.c: 1051:     } else
 10530  00C3' 2800'              	goto	l3517
 10531  00C4'                    l3513:
 10532                           
 10533                           ;C:\Program Files\Microchip\xc8\v2.40\pic\sources\c90\common\doprnt.c: 1052:      ((*sp+
      +                          + = ('+')));
 10534  00C4' 0800'              	movf	sprintf@sp^(0+128),w
 10535  00C5' 0084               	movwf	4
 10536  00C6' 302B               	movlw	43
 10537  00C7' 0080               	movwf	0
 10538  00C8' 2800'              	goto	l3511
 10539  00C9'                    l3517:
 10540                           
 10541                           ;C:\Program Files\Microchip\xc8\v2.40\pic\sources\c90\common\doprnt.c: 1065:     ((*sp++
      +                           = (((unsigned)eexp) / 10 + '0')));
 10542  00C9' 0800'              	movf	sprintf@sp^(0+128),w
 10543  00CA' 0084               	movwf	4
 10544  00CB' 300A               	movlw	10
 10545  00CC' 0086'              	movwf	___lwdiv@divisor
 10546  00CD' 3000               	movlw	0
 10547  00CE' 0087'              	movwf	___lwdiv@divisor+1
 10548  00CF' 0800'              	movf	(sprintf@eexp+1)^(0+128),w
 10549  00D0' 0089'              	movwf	___lwdiv@dividend+1
 10550  00D1' 0800'              	movf	sprintf@eexp^(0+128),w
 10551  00D2' 0088'              	movwf	___lwdiv@dividend
 10552  00D3' 120A' 118A' 2000' 120A' 118A' 	fcall	___lwdiv
 10553  00D8' 0806'              	movf	?___lwdiv,w
 10554  00D9' 3E30               	addlw	48
 10555  00DA' 1783               	bsf	3,7	;select IRP bank2
 10556  00DB' 0080               	movwf	0
 10557  00DC'                    l3519:
 10558  00DC' 3001               	movlw	1
 10559  00DD' 1683               	bsf	3,5	;RP0=1, select bank1
 10560  00DE' 1303               	bcf	3,6	;RP1=0, select bank1
 10561  00DF' 0080'              	movwf	??_sprintf^(0+128)
 10562  00E0' 0800'              	movf	??_sprintf^(0+128),w
 10563  00E1' 0780'              	addwf	sprintf@sp^(0+128),f
 10564  00E2'                    l3521:
 10565                           
 10566                           ;C:\Program Files\Microchip\xc8\v2.40\pic\sources\c90\common\doprnt.c: 1066:     ((*sp++
      +                           = (((unsigned)eexp) % 10 + '0')));
 10567  00E2' 0800'              	movf	sprintf@sp^(0+128),w
 10568  00E3' 0084               	movwf	4
 10569  00E4' 300A               	movlw	10
 10570  00E5' 0080'              	movwf	___lwmod@divisor
 10571  00E6' 3000               	movlw	0
 10572  00E7' 0081'              	movwf	___lwmod@divisor+1
 10573  00E8' 0800'              	movf	(sprintf@eexp+1)^(0+128),w
 10574  00E9' 0083'              	movwf	___lwmod@dividend+1
 10575  00EA' 0800'              	movf	sprintf@eexp^(0+128),w
 10576  00EB' 0082'              	movwf	___lwmod@dividend
 10577  00EC' 120A' 118A' 2000' 120A' 118A' 	fcall	___lwmod
 10578  00F1' 0800'              	movf	?___lwmod,w
 10579  00F2' 3E30               	addlw	48
 10580  00F3' 1783               	bsf	3,7	;select IRP bank2
 10581  00F4' 0080               	movwf	0
 10582  00F5'                    L4:
 10583  00F5' 120A' 118A' 2800'  	goto	l3369
 10584  00F8'                    l227:	
 10585                           ;C:\Program Files\Microchip\xc8\v2.40\pic\sources\c90\common\doprnt.c: 1074:     }
 10586                           
 10587                           
 10588                           ;C:\Program Files\Microchip\xc8\v2.40\pic\sources\c90\common\doprnt.c: 1113:     if(flag
      +                           & 0x200) {
 10589  00F8' 1683               	bsf	3,5	;RP0=1, select bank1
 10590  00F9' 1303               	bcf	3,6	;RP1=0, select bank1
 10591  00FA' 1C80'              	btfss	(sprintf@flag+1)^(0+128),1
 10592  00FB' 2800'              	goto	u6181
 10593  00FC' 2800'              	goto	u6180
 10594  00FD'                    u6181:
 10595  00FD' 2800'              	goto	l3561
 10596  00FE'                    u6180:
 10597  00FE'                    l3525:
 10598                           
 10599                           ;C:\Program Files\Microchip\xc8\v2.40\pic\sources\c90\common\doprnt.c: 1114:      if(eex
      +                          p < 0)
 10600  00FE' 1F80'              	btfss	(sprintf@eexp+1)^(0+128),7
 10601  00FF' 2800'              	goto	u6191
 10602  0100' 2800'              	goto	u6190
 10603  0101'                    u6191:
 10604  0101' 2800'              	goto	l3529
 10605  0102'                    u6190:
 10606  0102'                    l3527:
 10607                           
 10608                           ;C:\Program Files\Microchip\xc8\v2.40\pic\sources\c90\common\doprnt.c: 1115:       prec 
      +                          -= (eexp+1);
 10609  0102' 0800'              	movf	sprintf@eexp^(0+128),w
 10610  0103' 3E01               	addlw	1
 10611  0104' 0080'              	movwf	??_sprintf^(0+128)
 10612  0105' 0800'              	movf	(sprintf@eexp+1)^(0+128),w
 10613  0106' 1803               	skipnc
 10614  0107' 3E01               	addlw	1
 10615  0108' 3E00               	addlw	0
 10616  0109' 0080'              	movwf	(??_sprintf+1)^(0+128)
 10617  010A' 0800'              	movf	??_sprintf^(0+128),w
 10618  010B' 0280'              	subwf	sprintf@prec^(0+128),f
 10619  010C' 0800'              	movf	(??_sprintf+1)^(0+128),w
 10620  010D' 1C03               	skipc
 10621  010E' 0380'              	decf	(sprintf@prec+1)^(0+128),f
 10622  010F' 0280'              	subwf	(sprintf@prec+1)^(0+128),f
 10623  0110'                    l3529:
 10624                           
 10625                           ;C:\Program Files\Microchip\xc8\v2.40\pic\sources\c90\common\doprnt.c: 1117:      val = 
      +                          (unsigned long)fval;
 10626  0110' 0800'              	movf	(sprintf@fval+3)^(0+128),w
 10627  0111' 1283               	bcf	3,5	;RP0=0, select bank0
 10628  0112' 1303               	bcf	3,6	;RP1=0, select bank0
 10629  0113' 00BE'              	movwf	___fltol@f1+3
 10630  0114' 1683               	bsf	3,5	;RP0=1, select bank1
 10631  0115' 1303               	bcf	3,6	;RP1=0, select bank1
 10632  0116' 0800'              	movf	(sprintf@fval+2)^(0+128),w
 10633  0117' 1283               	bcf	3,5	;RP0=0, select bank0
 10634  0118' 1303               	bcf	3,6	;RP1=0, select bank0
 10635  0119' 00BD'              	movwf	___fltol@f1+2
 10636  011A' 1683               	bsf	3,5	;RP0=1, select bank1
 10637  011B' 1303               	bcf	3,6	;RP1=0, select bank1
 10638  011C' 0800'              	movf	(sprintf@fval+1)^(0+128),w
 10639  011D' 1283               	bcf	3,5	;RP0=0, select bank0
 10640  011E' 1303               	bcf	3,6	;RP1=0, select bank0
 10641  011F' 00BC'              	movwf	___fltol@f1+1
 10642  0120' 1683               	bsf	3,5	;RP0=1, select bank1
 10643  0121' 1303               	bcf	3,6	;RP1=0, select bank1
 10644  0122' 0800'              	movf	sprintf@fval^(0+128),w
 10645  0123' 1283               	bcf	3,5	;RP0=0, select bank0
 10646  0124' 1303               	bcf	3,6	;RP1=0, select bank0
 10647  0125' 00BB'              	movwf	___fltol@f1
 10648  0126' 120A' 118A' 2000' 120A' 118A' 	fcall	___fltol
 10649  012B' 1283               	bcf	3,5	;RP0=0, select bank0
 10650  012C' 1303               	bcf	3,6	;RP1=0, select bank0
 10651  012D' 083E'              	movf	?___fltol+3,w
 10652  012E' 1683               	bsf	3,5	;RP0=1, select bank1
 10653  012F' 1303               	bcf	3,6	;RP1=0, select bank1
 10654  0130' 0080'              	movwf	(sprintf@val+3)^(0+128)
 10655  0131' 1283               	bcf	3,5	;RP0=0, select bank0
 10656  0132' 1303               	bcf	3,6	;RP1=0, select bank0
 10657  0133' 083D'              	movf	?___fltol+2,w
 10658  0134' 1683               	bsf	3,5	;RP0=1, select bank1
 10659  0135' 1303               	bcf	3,6	;RP1=0, select bank1
 10660  0136' 0080'              	movwf	(sprintf@val+2)^(0+128)
 10661  0137' 1283               	bcf	3,5	;RP0=0, select bank0
 10662  0138' 1303               	bcf	3,6	;RP1=0, select bank0
 10663  0139' 083C'              	movf	?___fltol+1,w
 10664  013A' 1683               	bsf	3,5	;RP0=1, select bank1
 10665  013B' 1303               	bcf	3,6	;RP1=0, select bank1
 10666  013C' 0080'              	movwf	(sprintf@val+1)^(0+128)
 10667  013D' 1283               	bcf	3,5	;RP0=0, select bank0
 10668  013E' 1303               	bcf	3,6	;RP1=0, select bank0
 10669  013F' 083B'              	movf	?___fltol,w
 10670  0140' 1683               	bsf	3,5	;RP0=1, select bank1
 10671  0141' 1303               	bcf	3,6	;RP1=0, select bank1
 10672  0142' 0080'              	movwf	sprintf@val^(0+128)
 10673  0143'                    l3531:
 10674                           
 10675                           ;C:\Program Files\Microchip\xc8\v2.40\pic\sources\c90\common\doprnt.c: 1118:      for(c 
      +                          = 0 ; c != (sizeof dpowers/sizeof dpowers[0]) ; c++)
 10676  0143' 0180'              	clrf	sprintf@c^(0+128)
 10677  0144'                    l3537:
 10678                           
 10679                           ;C:\Program Files\Microchip\xc8\v2.40\pic\sources\c90\common\doprnt.c: 1119:       if(va
      +                          l < dpowers[c])
 10680  0144' 0800'              	movf	sprintf@c^(0+128),w
 10681  0145' 0080'              	movwf	??_sprintf^(0+128)
 10682  0146' 3001               	movlw	1
 10683  0147'                    u6205:
 10684  0147' 1003               	clrc
 10685  0148' 0D80'              	rlf	??_sprintf^(0+128),f
 10686  0149' 3EFF               	addlw	-1
 10687  014A' 1D03               	skipz
 10688  014B' 2800'              	goto	u6205
 10689  014C' 1003               	clrc
 10690  014D' 0D00'              	rlf	??_sprintf^(0+128),w
 10691  014E' 3E69               	addlw	low ((_dpowers-__stringbase)| (0+32768))
 10692  014F' 0084               	movwf	4
 10693  0150' 120A' 118A' 2000' 120A' 118A' 	fcall	stringdir
 10694  0155' 0080'              	movwf	(??_sprintf+1)^(0+128)
 10695  0156' 120A' 118A' 2000' 120A' 118A' 	fcall	stringdir
 10696  015B' 0081'              	movwf	((??_sprintf+1)^(0+128)+1)
 10697  015C' 120A' 118A' 2000' 120A' 118A' 	fcall	stringdir
 10698  0161' 0082'              	movwf	((??_sprintf+1)^(0+128)+2)
 10699  0162' 120A' 118A' 2000' 120A' 118A' 	fcall	stringdir
 10700  0167' 0083'              	movwf	((??_sprintf+1)^(0+128)+3)
 10701  0168' 0800'              	movf	(??_sprintf+4)^(0+128),w
 10702  0169' 0200'              	subwf	(sprintf@val+3)^(0+128),w
 10703  016A' 1D03               	skipz
 10704  016B' 2800'              	goto	u6215
 10705  016C' 0800'              	movf	(??_sprintf+3)^(0+128),w
 10706  016D' 0200'              	subwf	(sprintf@val+2)^(0+128),w
 10707  016E' 1D03               	skipz
 10708  016F' 2800'              	goto	u6215
 10709  0170' 0800'              	movf	(??_sprintf+2)^(0+128),w
 10710  0171' 0200'              	subwf	(sprintf@val+1)^(0+128),w
 10711  0172' 1D03               	skipz
 10712  0173' 2800'              	goto	u6215
 10713  0174' 0800'              	movf	(??_sprintf+1)^(0+128),w
 10714  0175' 0200'              	subwf	sprintf@val^(0+128),w
 10715  0176'                    u6215:
 10716  0176' 1803               	skipnc
 10717  0177' 2800'              	goto	u6211
 10718  0178' 2800'              	goto	u6210
 10719  0179'                    u6211:
 10720  0179' 2800'              	goto	l3541
 10721  017A'                    u6210:
 10722  017A' 2800'              	goto	l3543
 10723  017B'                    l3541:
 10724  017B' 3001               	movlw	1
 10725  017C' 0080'              	movwf	??_sprintf^(0+128)
 10726  017D' 0800'              	movf	??_sprintf^(0+128),w
 10727  017E' 0780'              	addwf	sprintf@c^(0+128),f
 10728  017F' 300A               	movlw	10
 10729  0180' 0600'              	xorwf	sprintf@c^(0+128),w
 10730  0181' 1D03               	btfss	3,2
 10731  0182' 2800'              	goto	u6221
 10732  0183' 2800'              	goto	u6220
 10733  0184'                    u6221:
 10734  0184' 2800'              	goto	l3537
 10735  0185'                    u6220:
 10736  0185'                    l3543:
 10737                           
 10738                           ;C:\Program Files\Microchip\xc8\v2.40\pic\sources\c90\common\doprnt.c: 1121:      prec -
      +                          = c;
 10739  0185' 0800'              	movf	sprintf@c^(0+128),w
 10740  0186' 0080'              	movwf	??_sprintf^(0+128)
 10741  0187' 0181'              	clrf	(??_sprintf^(0+128)+1)
 10742  0188' 0800'              	movf	??_sprintf^(0+128),w
 10743  0189' 0280'              	subwf	sprintf@prec^(0+128),f
 10744  018A' 0800'              	movf	(??_sprintf+1)^(0+128),w
 10745  018B' 1C03               	skipc
 10746  018C' 0380'              	decf	(sprintf@prec+1)^(0+128),f
 10747  018D' 0280'              	subwf	(sprintf@prec+1)^(0+128),f
 10748  018E'                    l3545:
 10749                           
 10750                           ;C:\Program Files\Microchip\xc8\v2.40\pic\sources\c90\common\doprnt.c: 1122:      if(pre
      +                          c <= 12)
 10751  018E' 0800'              	movf	(sprintf@prec+1)^(0+128),w
 10752  018F' 3A80               	xorlw	128
 10753  0190' 00FF               	movwf	btemp+1
 10754  0191' 3080               	movlw	128
 10755  0192' 027F               	subwf	btemp+1,w
 10756  0193' 1D03               	skipz
 10757  0194' 2800'              	goto	u6235
 10758  0195' 300D               	movlw	13
 10759  0196' 0200'              	subwf	sprintf@prec^(0+128),w
 10760  0197'                    u6235:
 10761  0197' 1803               	skipnc
 10762  0198' 2800'              	goto	u6231
 10763  0199' 2800'              	goto	u6230
 10764  019A'                    u6231:
 10765  019A' 2800'              	goto	l254
 10766  019B'                    u6230:
 10767  019B'                    l3547:
 10768                           
 10769                           ;C:\Program Files\Microchip\xc8\v2.40\pic\sources\c90\common\doprnt.c: 1123:       fval 
      +                          += fround((unsigned int)prec);
 10770  019B' 1683               	bsf	3,5	;RP0=1, select bank1
 10771  019C' 1303               	bcf	3,6	;RP1=0, select bank1
 10772  019D' 0800'              	movf	sprintf@prec^(0+128),w
 10773  019E' 120A' 118A' 2000' 120A' 118A' 	fcall	_fround
 10774  01A3' 1283               	bcf	3,5	;RP0=0, select bank0
 10775  01A4' 1303               	bcf	3,6	;RP1=0, select bank0
 10776  01A5' 082B'              	movf	?_fround+3,w
 10777  01A6' 00BF'              	movwf	___fladd@b+3
 10778  01A7' 082A'              	movf	?_fround+2,w
 10779  01A8' 00BE'              	movwf	___fladd@b+2
 10780  01A9' 0829'              	movf	?_fround+1,w
 10781  01AA' 00BD'              	movwf	___fladd@b+1
 10782  01AB' 0828'              	movf	?_fround,w
 10783  01AC' 00BC'              	movwf	___fladd@b
 10784  01AD' 1683               	bsf	3,5	;RP0=1, select bank1
 10785  01AE' 1303               	bcf	3,6	;RP1=0, select bank1
 10786  01AF' 0800'              	movf	(sprintf@fval+3)^(0+128),w
 10787  01B0' 1283               	bcf	3,5	;RP0=0, select bank0
 10788  01B1' 1303               	bcf	3,6	;RP1=0, select bank0
 10789  01B2' 00C3'              	movwf	___fladd@a+3
 10790  01B3' 1683               	bsf	3,5	;RP0=1, select bank1
 10791  01B4' 1303               	bcf	3,6	;RP1=0, select bank1
 10792  01B5' 0800'              	movf	(sprintf@fval+2)^(0+128),w
 10793  01B6' 1283               	bcf	3,5	;RP0=0, select bank0
 10794  01B7' 1303               	bcf	3,6	;RP1=0, select bank0
 10795  01B8' 00C2'              	movwf	___fladd@a+2
 10796  01B9' 1683               	bsf	3,5	;RP0=1, select bank1
 10797  01BA' 1303               	bcf	3,6	;RP1=0, select bank1
 10798  01BB' 0800'              	movf	(sprintf@fval+1)^(0+128),w
 10799  01BC' 1283               	bcf	3,5	;RP0=0, select bank0
 10800  01BD' 1303               	bcf	3,6	;RP1=0, select bank0
 10801  01BE' 00C1'              	movwf	___fladd@a+1
 10802  01BF' 1683               	bsf	3,5	;RP0=1, select bank1
 10803  01C0' 1303               	bcf	3,6	;RP1=0, select bank1
 10804  01C1' 0800'              	movf	sprintf@fval^(0+128),w
 10805  01C2' 1283               	bcf	3,5	;RP0=0, select bank0
 10806  01C3' 1303               	bcf	3,6	;RP1=0, select bank0
 10807  01C4' 00C0'              	movwf	___fladd@a
 10808  01C5' 120A' 118A' 2000' 120A' 118A' 	fcall	___fladd
 10809  01CA' 1283               	bcf	3,5	;RP0=0, select bank0
 10810  01CB' 1303               	bcf	3,6	;RP1=0, select bank0
 10811  01CC' 083F'              	movf	?___fladd+3,w
 10812  01CD' 1683               	bsf	3,5	;RP0=1, select bank1
 10813  01CE' 1303               	bcf	3,6	;RP1=0, select bank1
 10814  01CF' 0080'              	movwf	(sprintf@fval+3)^(0+128)
 10815  01D0' 1283               	bcf	3,5	;RP0=0, select bank0
 10816  01D1' 1303               	bcf	3,6	;RP1=0, select bank0
 10817  01D2' 083E'              	movf	?___fladd+2,w
 10818  01D3' 1683               	bsf	3,5	;RP0=1, select bank1
 10819  01D4' 1303               	bcf	3,6	;RP1=0, select bank1
 10820  01D5' 0080'              	movwf	(sprintf@fval+2)^(0+128)
 10821  01D6' 1283               	bcf	3,5	;RP0=0, select bank0
 10822  01D7' 1303               	bcf	3,6	;RP1=0, select bank0
 10823  01D8' 083D'              	movf	?___fladd+1,w
 10824  01D9' 1683               	bsf	3,5	;RP0=1, select bank1
 10825  01DA' 1303               	bcf	3,6	;RP1=0, select bank1
 10826  01DB' 0080'              	movwf	(sprintf@fval+1)^(0+128)
 10827  01DC' 1283               	bcf	3,5	;RP0=0, select bank0
 10828  01DD' 1303               	bcf	3,6	;RP1=0, select bank0
 10829  01DE' 083C'              	movf	?___fladd,w
 10830  01DF' 1683               	bsf	3,5	;RP0=1, select bank1
 10831  01E0' 1303               	bcf	3,6	;RP1=0, select bank1
 10832  01E1' 0080'              	movwf	sprintf@fval^(0+128)
 10833  01E2'                    l254:
 10834                           
 10835                           ;C:\Program Files\Microchip\xc8\v2.40\pic\sources\c90\common\doprnt.c: 1126:      {;C:\P
      +                          rogram Files\Microchip\xc8\v2.40\pic\sources\c90\common\doprnt.c: 1127:       double tem
      +                          p;;C:\Program Files\Microchip\xc8\v2.40\pic\sources\c90\common\doprnt.c: 1128:       tem
      +                          p = scale(prec);
 10836  01E2' 1683               	bsf	3,5	;RP0=1, select bank1
 10837  01E3' 1303               	bcf	3,6	;RP1=0, select bank1
 10838  01E4' 0800'              	movf	sprintf@prec^(0+128),w
 10839  01E5' 120A' 118A' 2000' 120A' 118A' 	fcall	_scale
 10840  01EA' 1283               	bcf	3,5	;RP0=0, select bank0
 10841  01EB' 1303               	bcf	3,6	;RP1=0, select bank0
 10842  01EC' 082B'              	movf	?_scale+3,w
 10843  01ED' 1683               	bsf	3,5	;RP0=1, select bank1
 10844  01EE' 1303               	bcf	3,6	;RP1=0, select bank1
 10845  01EF' 0080'              	movwf	(sprintf@temp+3)^(0+128)
 10846  01F0' 1283               	bcf	3,5	;RP0=0, select bank0
 10847  01F1' 1303               	bcf	3,6	;RP1=0, select bank0
 10848  01F2' 082A'              	movf	?_scale+2,w
 10849  01F3' 1683               	bsf	3,5	;RP0=1, select bank1
 10850  01F4' 1303               	bcf	3,6	;RP1=0, select bank1
 10851  01F5' 0080'              	movwf	(sprintf@temp+2)^(0+128)
 10852  01F6' 1283               	bcf	3,5	;RP0=0, select bank0
 10853  01F7' 1303               	bcf	3,6	;RP1=0, select bank0
 10854  01F8' 0829'              	movf	?_scale+1,w
 10855  01F9' 1683               	bsf	3,5	;RP0=1, select bank1
 10856  01FA' 1303               	bcf	3,6	;RP1=0, select bank1
 10857  01FB' 0080'              	movwf	(sprintf@temp+1)^(0+128)
 10858  01FC' 1283               	bcf	3,5	;RP0=0, select bank0
 10859  01FD' 1303               	bcf	3,6	;RP1=0, select bank0
 10860  01FE' 0828'              	movf	?_scale,w
 10861  01FF' 1683               	bsf	3,5	;RP0=1, select bank1
 10862  0200' 1303               	bcf	3,6	;RP1=0, select bank1
 10863  0201' 0080'              	movwf	sprintf@temp^(0+128)
 10864  0202'                    l3549:
 10865                           
 10866                           ;C:\Program Files\Microchip\xc8\v2.40\pic\sources\c90\common\doprnt.c: 1129:       temp 
      +                          *= fval - (double)val;
 10867  0202' 0800'              	movf	(sprintf@fval+3)^(0+128),w
 10868  0203' 0080'              	movwf	(___flsub@b+3)^(0+128)
 10869  0204' 0800'              	movf	(sprintf@fval+2)^(0+128),w
 10870  0205' 0080'              	movwf	(___flsub@b+2)^(0+128)
 10871  0206' 0800'              	movf	(sprintf@fval+1)^(0+128),w
 10872  0207' 0080'              	movwf	(___flsub@b+1)^(0+128)
 10873  0208' 0800'              	movf	sprintf@fval^(0+128),w
 10874  0209' 0080'              	movwf	___flsub@b^(0+128)
 10875  020A' 0800'              	movf	(sprintf@val+3)^(0+128),w
 10876  020B' 1283               	bcf	3,5	;RP0=0, select bank0
 10877  020C' 1303               	bcf	3,6	;RP1=0, select bank0
 10878  020D' 0083'              	movwf	___xxtofl@val+3
 10879  020E' 1683               	bsf	3,5	;RP0=1, select bank1
 10880  020F' 1303               	bcf	3,6	;RP1=0, select bank1
 10881  0210' 0800'              	movf	(sprintf@val+2)^(0+128),w
 10882  0211' 1283               	bcf	3,5	;RP0=0, select bank0
 10883  0212' 1303               	bcf	3,6	;RP1=0, select bank0
 10884  0213' 0082'              	movwf	___xxtofl@val+2
 10885  0214' 1683               	bsf	3,5	;RP0=1, select bank1
 10886  0215' 1303               	bcf	3,6	;RP1=0, select bank1
 10887  0216' 0800'              	movf	(sprintf@val+1)^(0+128),w
 10888  0217' 1283               	bcf	3,5	;RP0=0, select bank0
 10889  0218' 1303               	bcf	3,6	;RP1=0, select bank0
 10890  0219' 0081'              	movwf	___xxtofl@val+1
 10891  021A' 1683               	bsf	3,5	;RP0=1, select bank1
 10892  021B' 1303               	bcf	3,6	;RP1=0, select bank1
 10893  021C' 0800'              	movf	sprintf@val^(0+128),w
 10894  021D' 1283               	bcf	3,5	;RP0=0, select bank0
 10895  021E' 1303               	bcf	3,6	;RP1=0, select bank0
 10896  021F' 0080'              	movwf	___xxtofl@val
 10897  0220' 3000               	movlw	0
 10898  0221' 120A' 118A' 2000' 120A' 118A' 	fcall	___xxtofl
 10899  0226' 1283               	bcf	3,5	;RP0=0, select bank0
 10900  0227' 1303               	bcf	3,6	;RP1=0, select bank0
 10901  0228' 0803'              	movf	?___xxtofl+3,w
 10902  0229' 1683               	bsf	3,5	;RP0=1, select bank1
 10903  022A' 1303               	bcf	3,6	;RP1=0, select bank1
 10904  022B' 0080'              	movwf	(___flsub@a+3)^(0+128)
 10905  022C' 1283               	bcf	3,5	;RP0=0, select bank0
 10906  022D' 1303               	bcf	3,6	;RP1=0, select bank0
 10907  022E' 0802'              	movf	?___xxtofl+2,w
 10908  022F' 1683               	bsf	3,5	;RP0=1, select bank1
 10909  0230' 1303               	bcf	3,6	;RP1=0, select bank1
 10910  0231' 0080'              	movwf	(___flsub@a+2)^(0+128)
 10911  0232' 1283               	bcf	3,5	;RP0=0, select bank0
 10912  0233' 1303               	bcf	3,6	;RP1=0, select bank0
 10913  0234' 0801'              	movf	?___xxtofl+1,w
 10914  0235' 1683               	bsf	3,5	;RP0=1, select bank1
 10915  0236' 1303               	bcf	3,6	;RP1=0, select bank1
 10916  0237' 0080'              	movwf	(___flsub@a+1)^(0+128)
 10917  0238' 1283               	bcf	3,5	;RP0=0, select bank0
 10918  0239' 1303               	bcf	3,6	;RP1=0, select bank0
 10919  023A' 0800'              	movf	?___xxtofl,w
 10920  023B' 1683               	bsf	3,5	;RP0=1, select bank1
 10921  023C' 1303               	bcf	3,6	;RP1=0, select bank1
 10922  023D' 0080'              	movwf	___flsub@a^(0+128)
 10923  023E' 120A' 118A' 2000' 120A' 118A' 	fcall	___flsub
 10924  0243' 1683               	bsf	3,5	;RP0=1, select bank1
 10925  0244' 1303               	bcf	3,6	;RP1=0, select bank1
 10926  0245' 0800'              	movf	(?___flsub+3)^(0+128),w
 10927  0246' 1283               	bcf	3,5	;RP0=0, select bank0
 10928  0247' 1303               	bcf	3,6	;RP1=0, select bank0
 10929  0248' 0091'              	movwf	___flmul@b+3
 10930  0249' 1683               	bsf	3,5	;RP0=1, select bank1
 10931  024A' 1303               	bcf	3,6	;RP1=0, select bank1
 10932  024B' 0800'              	movf	(?___flsub+2)^(0+128),w
 10933  024C' 1283               	bcf	3,5	;RP0=0, select bank0
 10934  024D' 1303               	bcf	3,6	;RP1=0, select bank0
 10935  024E' 0090'              	movwf	___flmul@b+2
 10936  024F' 1683               	bsf	3,5	;RP0=1, select bank1
 10937  0250' 1303               	bcf	3,6	;RP1=0, select bank1
 10938  0251' 0800'              	movf	(?___flsub+1)^(0+128),w
 10939  0252' 1283               	bcf	3,5	;RP0=0, select bank0
 10940  0253' 1303               	bcf	3,6	;RP1=0, select bank0
 10941  0254' 008F'              	movwf	___flmul@b+1
 10942  0255' 1683               	bsf	3,5	;RP0=1, select bank1
 10943  0256' 1303               	bcf	3,6	;RP1=0, select bank1
 10944  0257' 0800'              	movf	?___flsub^(0+128),w
 10945  0258' 1283               	bcf	3,5	;RP0=0, select bank0
 10946  0259' 1303               	bcf	3,6	;RP1=0, select bank0
 10947  025A' 008E'              	movwf	___flmul@b
 10948  025B' 1683               	bsf	3,5	;RP0=1, select bank1
 10949  025C' 1303               	bcf	3,6	;RP1=0, select bank1
 10950  025D' 0800'              	movf	(sprintf@temp+3)^(0+128),w
 10951  025E' 1283               	bcf	3,5	;RP0=0, select bank0
 10952  025F' 1303               	bcf	3,6	;RP1=0, select bank0
 10953  0260' 0095'              	movwf	___flmul@a+3
 10954  0261' 1683               	bsf	3,5	;RP0=1, select bank1
 10955  0262' 1303               	bcf	3,6	;RP1=0, select bank1
 10956  0263' 0800'              	movf	(sprintf@temp+2)^(0+128),w
 10957  0264' 1283               	bcf	3,5	;RP0=0, select bank0
 10958  0265' 1303               	bcf	3,6	;RP1=0, select bank0
 10959  0266' 0094'              	movwf	___flmul@a+2
 10960  0267' 1683               	bsf	3,5	;RP0=1, select bank1
 10961  0268' 1303               	bcf	3,6	;RP1=0, select bank1
 10962  0269' 0800'              	movf	(sprintf@temp+1)^(0+128),w
 10963  026A' 1283               	bcf	3,5	;RP0=0, select bank0
 10964  026B' 1303               	bcf	3,6	;RP1=0, select bank0
 10965  026C' 0093'              	movwf	___flmul@a+1
 10966  026D' 1683               	bsf	3,5	;RP0=1, select bank1
 10967  026E' 1303               	bcf	3,6	;RP1=0, select bank1
 10968  026F' 0800'              	movf	sprintf@temp^(0+128),w
 10969  0270' 1283               	bcf	3,5	;RP0=0, select bank0
 10970  0271' 1303               	bcf	3,6	;RP1=0, select bank0
 10971  0272' 0092'              	movwf	___flmul@a
 10972  0273' 120A' 118A' 2000' 120A' 118A' 	fcall	___flmul
 10973  0278' 1283               	bcf	3,5	;RP0=0, select bank0
 10974  0279' 1303               	bcf	3,6	;RP1=0, select bank0
 10975  027A' 0811'              	movf	?___flmul+3,w
 10976  027B' 1683               	bsf	3,5	;RP0=1, select bank1
 10977  027C' 1303               	bcf	3,6	;RP1=0, select bank1
 10978  027D' 0080'              	movwf	(sprintf@temp+3)^(0+128)
 10979  027E' 1283               	bcf	3,5	;RP0=0, select bank0
 10980  027F' 1303               	bcf	3,6	;RP1=0, select bank0
 10981  0280' 0810'              	movf	?___flmul+2,w
 10982  0281' 1683               	bsf	3,5	;RP0=1, select bank1
 10983  0282' 1303               	bcf	3,6	;RP1=0, select bank1
 10984  0283' 0080'              	movwf	(sprintf@temp+2)^(0+128)
 10985  0284' 1283               	bcf	3,5	;RP0=0, select bank0
 10986  0285' 1303               	bcf	3,6	;RP1=0, select bank0
 10987  0286' 080F'              	movf	?___flmul+1,w
 10988  0287' 1683               	bsf	3,5	;RP0=1, select bank1
 10989  0288' 1303               	bcf	3,6	;RP1=0, select bank1
 10990  0289' 0080'              	movwf	(sprintf@temp+1)^(0+128)
 10991  028A' 1283               	bcf	3,5	;RP0=0, select bank0
 10992  028B' 1303               	bcf	3,6	;RP1=0, select bank0
 10993  028C' 080E'              	movf	?___flmul,w
 10994  028D' 1683               	bsf	3,5	;RP0=1, select bank1
 10995  028E' 1303               	bcf	3,6	;RP1=0, select bank1
 10996  028F' 0080'              	movwf	sprintf@temp^(0+128)
 10997  0290'                    l3551:
 10998                           
 10999                           ;C:\Program Files\Microchip\xc8\v2.40\pic\sources\c90\common\doprnt.c: 1130:       val =
      +                           (unsigned long)temp;
 11000  0290' 0800'              	movf	(sprintf@temp+3)^(0+128),w
 11001  0291' 1283               	bcf	3,5	;RP0=0, select bank0
 11002  0292' 1303               	bcf	3,6	;RP1=0, select bank0
 11003  0293' 00BE'              	movwf	___fltol@f1+3
 11004  0294' 1683               	bsf	3,5	;RP0=1, select bank1
 11005  0295' 1303               	bcf	3,6	;RP1=0, select bank1
 11006  0296' 0800'              	movf	(sprintf@temp+2)^(0+128),w
 11007  0297' 1283               	bcf	3,5	;RP0=0, select bank0
 11008  0298' 1303               	bcf	3,6	;RP1=0, select bank0
 11009  0299' 00BD'              	movwf	___fltol@f1+2
 11010  029A' 1683               	bsf	3,5	;RP0=1, select bank1
 11011  029B' 1303               	bcf	3,6	;RP1=0, select bank1
 11012  029C' 0800'              	movf	(sprintf@temp+1)^(0+128),w
 11013  029D' 1283               	bcf	3,5	;RP0=0, select bank0
 11014  029E' 1303               	bcf	3,6	;RP1=0, select bank0
 11015  029F' 00BC'              	movwf	___fltol@f1+1
 11016  02A0' 1683               	bsf	3,5	;RP0=1, select bank1
 11017  02A1' 1303               	bcf	3,6	;RP1=0, select bank1
 11018  02A2' 0800'              	movf	sprintf@temp^(0+128),w
 11019  02A3' 1283               	bcf	3,5	;RP0=0, select bank0
 11020  02A4' 1303               	bcf	3,6	;RP1=0, select bank0
 11021  02A5' 00BB'              	movwf	___fltol@f1
 11022  02A6' 120A' 118A' 2000' 120A' 118A' 	fcall	___fltol
 11023  02AB' 1283               	bcf	3,5	;RP0=0, select bank0
 11024  02AC' 1303               	bcf	3,6	;RP1=0, select bank0
 11025  02AD' 083E'              	movf	?___fltol+3,w
 11026  02AE' 1683               	bsf	3,5	;RP0=1, select bank1
 11027  02AF' 1303               	bcf	3,6	;RP1=0, select bank1
 11028  02B0' 0080'              	movwf	(sprintf@val+3)^(0+128)
 11029  02B1' 1283               	bcf	3,5	;RP0=0, select bank0
 11030  02B2' 1303               	bcf	3,6	;RP1=0, select bank0
 11031  02B3' 083D'              	movf	?___fltol+2,w
 11032  02B4' 1683               	bsf	3,5	;RP0=1, select bank1
 11033  02B5' 1303               	bcf	3,6	;RP1=0, select bank1
 11034  02B6' 0080'              	movwf	(sprintf@val+2)^(0+128)
 11035  02B7' 1283               	bcf	3,5	;RP0=0, select bank0
 11036  02B8' 1303               	bcf	3,6	;RP1=0, select bank0
 11037  02B9' 083C'              	movf	?___fltol+1,w
 11038  02BA' 1683               	bsf	3,5	;RP0=1, select bank1
 11039  02BB' 1303               	bcf	3,6	;RP1=0, select bank1
 11040  02BC' 0080'              	movwf	(sprintf@val+1)^(0+128)
 11041  02BD' 1283               	bcf	3,5	;RP0=0, select bank0
 11042  02BE' 1303               	bcf	3,6	;RP1=0, select bank0
 11043  02BF' 083B'              	movf	?___fltol,w
 11044  02C0' 1683               	bsf	3,5	;RP0=1, select bank1
 11045  02C1' 1303               	bcf	3,6	;RP1=0, select bank1
 11046  02C2' 0080'              	movwf	sprintf@val^(0+128)
 11047                           
 11048                           ;C:\Program Files\Microchip\xc8\v2.40\pic\sources\c90\common\doprnt.c: 1131:      };C:\P
      +                          rogram Files\Microchip\xc8\v2.40\pic\sources\c90\common\doprnt.c: 1132:      while(prec 
      +                          && val % 10 == 0) {
 11049  02C3' 2800'              	goto	l3557
 11050  02C4'                    l3553:
 11051                           
 11052                           ;C:\Program Files\Microchip\xc8\v2.40\pic\sources\c90\common\doprnt.c: 1133:       val /
      +                          = 10;
 11053  02C4' 3000               	movlw	0
 11054  02C5' 0083'              	movwf	___lldiv@divisor+3
 11055  02C6' 3000               	movlw	0
 11056  02C7' 0082'              	movwf	___lldiv@divisor+2
 11057  02C8' 3000               	movlw	0
 11058  02C9' 0081'              	movwf	___lldiv@divisor+1
 11059  02CA' 300A               	movlw	10
 11060  02CB' 0080'              	movwf	___lldiv@divisor
 11061  02CC' 1683               	bsf	3,5	;RP0=1, select bank1
 11062  02CD' 1303               	bcf	3,6	;RP1=0, select bank1
 11063  02CE' 0800'              	movf	(sprintf@val+3)^(0+128),w
 11064  02CF' 0087'              	movwf	___lldiv@dividend+3
 11065  02D0' 0800'              	movf	(sprintf@val+2)^(0+128),w
 11066  02D1' 0086'              	movwf	___lldiv@dividend+2
 11067  02D2' 0800'              	movf	(sprintf@val+1)^(0+128),w
 11068  02D3' 0085'              	movwf	___lldiv@dividend+1
 11069  02D4' 0800'              	movf	sprintf@val^(0+128),w
 11070  02D5' 0084'              	movwf	___lldiv@dividend
 11071  02D6' 120A' 118A' 2000' 120A' 118A' 	fcall	___lldiv
 11072  02DB' 0803'              	movf	?___lldiv+3,w
 11073  02DC' 1683               	bsf	3,5	;RP0=1, select bank1
 11074  02DD' 1303               	bcf	3,6	;RP1=0, select bank1
 11075  02DE' 0080'              	movwf	(sprintf@val+3)^(0+128)
 11076  02DF' 0802'              	movf	?___lldiv+2,w
 11077  02E0' 0080'              	movwf	(sprintf@val+2)^(0+128)
 11078  02E1' 0801'              	movf	?___lldiv+1,w
 11079  02E2' 0080'              	movwf	(sprintf@val+1)^(0+128)
 11080  02E3' 0800'              	movf	?___lldiv,w
 11081  02E4' 0080'              	movwf	sprintf@val^(0+128)
 11082  02E5'                    l3555:
 11083                           
 11084                           ;C:\Program Files\Microchip\xc8\v2.40\pic\sources\c90\common\doprnt.c: 1134:       prec-
      +                          -;
 11085  02E5' 30FF               	movlw	255
 11086  02E6' 0780'              	addwf	sprintf@prec^(0+128),f
 11087  02E7' 1803               	skipnc
 11088  02E8' 0A80'              	incf	(sprintf@prec+1)^(0+128),f
 11089  02E9' 30FF               	movlw	255
 11090  02EA' 0780'              	addwf	(sprintf@prec+1)^(0+128),f
 11091  02EB'                    l3557:
 11092                           
 11093                           ;C:\Program Files\Microchip\xc8\v2.40\pic\sources\c90\common\doprnt.c: 1132:      while(
      +                          prec && val % 10 == 0) {
 11094  02EB' 0800'              	movf	sprintf@prec^(0+128),w
 11095  02EC' 0400'              	iorwf	(sprintf@prec+1)^(0+128),w
 11096  02ED' 1903               	btfsc	3,2
 11097  02EE' 2800'              	goto	u6241
 11098  02EF' 2800'              	goto	u6240
 11099  02F0'                    u6241:
 11100  02F0' 2800'              	goto	l3565
 11101  02F1'                    u6240:
 11102  02F1'                    l3559:
 11103  02F1' 3000               	movlw	0
 11104  02F2' 0083'              	movwf	___llmod@divisor+3
 11105  02F3' 3000               	movlw	0
 11106  02F4' 0082'              	movwf	___llmod@divisor+2
 11107  02F5' 3000               	movlw	0
 11108  02F6' 0081'              	movwf	___llmod@divisor+1
 11109  02F7' 300A               	movlw	10
 11110  02F8' 0080'              	movwf	___llmod@divisor
 11111  02F9' 0800'              	movf	(sprintf@val+3)^(0+128),w
 11112  02FA' 0087'              	movwf	___llmod@dividend+3
 11113  02FB' 0800'              	movf	(sprintf@val+2)^(0+128),w
 11114  02FC' 0086'              	movwf	___llmod@dividend+2
 11115  02FD' 0800'              	movf	(sprintf@val+1)^(0+128),w
 11116  02FE' 0085'              	movwf	___llmod@dividend+1
 11117  02FF' 0800'              	movf	sprintf@val^(0+128),w
 11118  0300' 0084'              	movwf	___llmod@dividend
 11119  0301' 120A' 118A' 2000' 120A' 118A' 	fcall	___llmod
 11120  0306' 0803'              	movf	?___llmod+3,w
 11121  0307' 0402'              	iorwf	?___llmod+2,w
 11122  0308' 0401'              	iorwf	?___llmod+1,w
 11123  0309' 0400'              	iorwf	?___llmod,w
 11124  030A' 1903               	skipnz
 11125  030B' 2800'              	goto	u6251
 11126  030C' 2800'              	goto	u6250
 11127  030D'                    u6251:
 11128  030D' 2800'              	goto	l3553
 11129  030E'                    u6250:
 11130  030E' 2800'              	goto	l3565
 11131  030F'                    l3561:
 11132  030F'                    l3563:	
 11133                           ;C:\Program Files\Microchip\xc8\v2.40\pic\sources\c90\common\doprnt.c: 1138:      if(pre
      +                          c <= 12)
 11134                           
 11135                           
 11136                           ;C:\Program Files\Microchip\xc8\v2.40\pic\sources\c90\common\doprnt.c: 1139:       fval 
      +                          += fround((unsigned int)prec);
 11137  030F' 3006               	movlw	6
 11138  0310' 120A' 118A' 2000' 120A' 118A' 	fcall	_fround
 11139  0315' 1283               	bcf	3,5	;RP0=0, select bank0
 11140  0316' 1303               	bcf	3,6	;RP1=0, select bank0
 11141  0317' 082B'              	movf	?_fround+3,w
 11142  0318' 00BF'              	movwf	___fladd@b+3
 11143  0319' 082A'              	movf	?_fround+2,w
 11144  031A' 00BE'              	movwf	___fladd@b+2
 11145  031B' 0829'              	movf	?_fround+1,w
 11146  031C' 00BD'              	movwf	___fladd@b+1
 11147  031D' 0828'              	movf	?_fround,w
 11148  031E' 00BC'              	movwf	___fladd@b
 11149  031F' 1683               	bsf	3,5	;RP0=1, select bank1
 11150  0320' 1303               	bcf	3,6	;RP1=0, select bank1
 11151  0321' 0800'              	movf	(sprintf@fval+3)^(0+128),w
 11152  0322' 1283               	bcf	3,5	;RP0=0, select bank0
 11153  0323' 1303               	bcf	3,6	;RP1=0, select bank0
 11154  0324' 00C3'              	movwf	___fladd@a+3
 11155  0325' 1683               	bsf	3,5	;RP0=1, select bank1
 11156  0326' 1303               	bcf	3,6	;RP1=0, select bank1
 11157  0327' 0800'              	movf	(sprintf@fval+2)^(0+128),w
 11158  0328' 1283               	bcf	3,5	;RP0=0, select bank0
 11159  0329' 1303               	bcf	3,6	;RP1=0, select bank0
 11160  032A' 00C2'              	movwf	___fladd@a+2
 11161  032B' 1683               	bsf	3,5	;RP0=1, select bank1
 11162  032C' 1303               	bcf	3,6	;RP1=0, select bank1
 11163  032D' 0800'              	movf	(sprintf@fval+1)^(0+128),w
 11164  032E' 1283               	bcf	3,5	;RP0=0, select bank0
 11165  032F' 1303               	bcf	3,6	;RP1=0, select bank0
 11166  0330' 00C1'              	movwf	___fladd@a+1
 11167  0331' 1683               	bsf	3,5	;RP0=1, select bank1
 11168  0332' 1303               	bcf	3,6	;RP1=0, select bank1
 11169  0333' 0800'              	movf	sprintf@fval^(0+128),w
 11170  0334' 1283               	bcf	3,5	;RP0=0, select bank0
 11171  0335' 1303               	bcf	3,6	;RP1=0, select bank0
 11172  0336' 00C0'              	movwf	___fladd@a
 11173  0337' 120A' 118A' 2000' 120A' 118A' 	fcall	___fladd
 11174  033C' 1283               	bcf	3,5	;RP0=0, select bank0
 11175  033D' 1303               	bcf	3,6	;RP1=0, select bank0
 11176  033E' 083F'              	movf	?___fladd+3,w
 11177  033F' 1683               	bsf	3,5	;RP0=1, select bank1
 11178  0340' 1303               	bcf	3,6	;RP1=0, select bank1
 11179  0341' 0080'              	movwf	(sprintf@fval+3)^(0+128)
 11180  0342' 1283               	bcf	3,5	;RP0=0, select bank0
 11181  0343' 1303               	bcf	3,6	;RP1=0, select bank0
 11182  0344' 083E'              	movf	?___fladd+2,w
 11183  0345' 1683               	bsf	3,5	;RP0=1, select bank1
 11184  0346' 1303               	bcf	3,6	;RP1=0, select bank1
 11185  0347' 0080'              	movwf	(sprintf@fval+2)^(0+128)
 11186  0348' 1283               	bcf	3,5	;RP0=0, select bank0
 11187  0349' 1303               	bcf	3,6	;RP1=0, select bank0
 11188  034A' 083D'              	movf	?___fladd+1,w
 11189  034B' 1683               	bsf	3,5	;RP0=1, select bank1
 11190  034C' 1303               	bcf	3,6	;RP1=0, select bank1
 11191  034D' 0080'              	movwf	(sprintf@fval+1)^(0+128)
 11192  034E' 1283               	bcf	3,5	;RP0=0, select bank0
 11193  034F' 1303               	bcf	3,6	;RP1=0, select bank0
 11194  0350' 083C'              	movf	?___fladd,w
 11195  0351' 1683               	bsf	3,5	;RP0=1, select bank1
 11196  0352' 1303               	bcf	3,6	;RP1=0, select bank1
 11197  0353' 0080'              	movwf	sprintf@fval^(0+128)
 11198  0354'                    l3565:
 11199                           
 11200                           ;C:\Program Files\Microchip\xc8\v2.40\pic\sources\c90\common\doprnt.c: 1142:     if((eex
      +                          p > 9)||(fval != 0 && (unsigned long)fval == 0 && eexp > 1)) {
 11201  0354' 1683               	bsf	3,5	;RP0=1, select bank1
 11202  0355' 1303               	bcf	3,6	;RP1=0, select bank1
 11203  0356' 0800'              	movf	(sprintf@eexp+1)^(0+128),w
 11204  0357' 3A80               	xorlw	128
 11205  0358' 00FF               	movwf	btemp+1
 11206  0359' 3080               	movlw	128
 11207  035A' 027F               	subwf	btemp+1,w
 11208  035B' 1D03               	skipz
 11209  035C' 2800'              	goto	u6265
 11210  035D' 300A               	movlw	10
 11211  035E' 0200'              	subwf	sprintf@eexp^(0+128),w
 11212  035F'                    u6265:
 11213  035F' 1803               	skipnc
 11214  0360' 2800'              	goto	u6261
 11215  0361' 2800'              	goto	u6260
 11216  0362'                    u6261:
 11217  0362' 2800'              	goto	l3573
 11218  0363'                    u6260:
 11219  0363'                    l3567:
 11220  0363' 1683               	bsf	3,5	;RP0=1, select bank1
 11221  0364' 1303               	bcf	3,6	;RP1=0, select bank1
 11222  0365' 0800'              	movf	(sprintf@fval+3)^(0+128),w
 11223  0366' 0083'              	movwf	___fleq@ff1+3
 11224  0367' 0800'              	movf	(sprintf@fval+2)^(0+128),w
 11225  0368' 0082'              	movwf	___fleq@ff1+2
 11226  0369' 0800'              	movf	(sprintf@fval+1)^(0+128),w
 11227  036A' 0081'              	movwf	___fleq@ff1+1
 11228  036B' 0800'              	movf	sprintf@fval^(0+128),w
 11229  036C' 0080'              	movwf	___fleq@ff1
 11230  036D' 3000               	movlw	0
 11231  036E' 0087'              	movwf	___fleq@ff2+3
 11232  036F' 3000               	movlw	0
 11233  0370' 0086'              	movwf	___fleq@ff2+2
 11234  0371' 3000               	movlw	0
 11235  0372' 0085'              	movwf	___fleq@ff2+1
 11236  0373' 3000               	movlw	0
 11237  0374' 0084'              	movwf	___fleq@ff2
 11238  0375' 120A' 118A' 2000' 120A' 118A' 	fcall	___fleq
 11239  037A' 1803               	btfsc	3,0
 11240  037B' 2800'              	goto	u6271
 11241  037C' 2800'              	goto	u6270
 11242  037D'                    u6271:
 11243  037D' 2800'              	goto	l3587
 11244  037E'                    u6270:
 11245  037E'                    l3569:
 11246  037E' 1683               	bsf	3,5	;RP0=1, select bank1
 11247  037F' 1303               	bcf	3,6	;RP1=0, select bank1
 11248  0380' 0800'              	movf	(sprintf@fval+3)^(0+128),w
 11249  0381' 1283               	bcf	3,5	;RP0=0, select bank0
 11250  0382' 1303               	bcf	3,6	;RP1=0, select bank0
 11251  0383' 00BE'              	movwf	___fltol@f1+3
 11252  0384' 1683               	bsf	3,5	;RP0=1, select bank1
 11253  0385' 1303               	bcf	3,6	;RP1=0, select bank1
 11254  0386' 0800'              	movf	(sprintf@fval+2)^(0+128),w
 11255  0387' 1283               	bcf	3,5	;RP0=0, select bank0
 11256  0388' 1303               	bcf	3,6	;RP1=0, select bank0
 11257  0389' 00BD'              	movwf	___fltol@f1+2
 11258  038A' 1683               	bsf	3,5	;RP0=1, select bank1
 11259  038B' 1303               	bcf	3,6	;RP1=0, select bank1
 11260  038C' 0800'              	movf	(sprintf@fval+1)^(0+128),w
 11261  038D' 1283               	bcf	3,5	;RP0=0, select bank0
 11262  038E' 1303               	bcf	3,6	;RP1=0, select bank0
 11263  038F' 00BC'              	movwf	___fltol@f1+1
 11264  0390' 1683               	bsf	3,5	;RP0=1, select bank1
 11265  0391' 1303               	bcf	3,6	;RP1=0, select bank1
 11266  0392' 0800'              	movf	sprintf@fval^(0+128),w
 11267  0393' 1283               	bcf	3,5	;RP0=0, select bank0
 11268  0394' 1303               	bcf	3,6	;RP1=0, select bank0
 11269  0395' 00BB'              	movwf	___fltol@f1
 11270  0396' 120A' 118A' 2000' 120A' 118A' 	fcall	___fltol
 11271  039B' 1283               	bcf	3,5	;RP0=0, select bank0
 11272  039C' 1303               	bcf	3,6	;RP1=0, select bank0
 11273  039D' 083E'              	movf	?___fltol+3,w
 11274  039E' 043D'              	iorwf	?___fltol+2,w
 11275  039F' 043C'              	iorwf	?___fltol+1,w
 11276  03A0' 043B'              	iorwf	?___fltol,w
 11277  03A1' 1D03               	skipz
 11278  03A2' 2800'              	goto	u6281
 11279  03A3' 2800'              	goto	u6280
 11280  03A4'                    u6281:
 11281  03A4' 2800'              	goto	l3587
 11282  03A5'                    u6280:
 11283  03A5'                    l3571:
 11284  03A5' 1683               	bsf	3,5	;RP0=1, select bank1
 11285  03A6' 1303               	bcf	3,6	;RP1=0, select bank1
 11286  03A7' 0800'              	movf	(sprintf@eexp+1)^(0+128),w
 11287  03A8' 3A80               	xorlw	128
 11288  03A9' 00FF               	movwf	btemp+1
 11289  03AA' 3080               	movlw	128
 11290  03AB' 027F               	subwf	btemp+1,w
 11291  03AC' 1D03               	skipz
 11292  03AD' 2800'              	goto	u6295
 11293  03AE' 3002               	movlw	2
 11294  03AF' 0200'              	subwf	sprintf@eexp^(0+128),w
 11295  03B0'                    u6295:
 11296  03B0' 1C03               	skipc
 11297  03B1' 2800'              	goto	u6291
 11298  03B2' 2800'              	goto	u6290
 11299  03B3'                    u6291:
 11300  03B3' 2800'              	goto	l3587
 11301  03B4'                    u6290:
 11302  03B4'                    l3573:
 11303                           
 11304                           ;C:\Program Files\Microchip\xc8\v2.40\pic\sources\c90\common\doprnt.c: 1146:      if(tmp
      +                          val.integ < 4.294967296){
 11305  03B4' 1683               	bsf	3,5	;RP0=1, select bank1
 11306  03B5' 1303               	bcf	3,6	;RP1=0, select bank1
 11307  03B6' 0800'              	movf	(sprintf@tmpval+3)^(0+128),w
 11308  03B7' 0080'              	movwf	(___flge@ff1+3)^(0+128)
 11309  03B8' 0800'              	movf	(sprintf@tmpval+2)^(0+128),w
 11310  03B9' 0080'              	movwf	(___flge@ff1+2)^(0+128)
 11311  03BA' 0800'              	movf	(sprintf@tmpval+1)^(0+128),w
 11312  03BB' 0080'              	movwf	(___flge@ff1+1)^(0+128)
 11313  03BC' 0800'              	movf	sprintf@tmpval^(0+128),w
 11314  03BD' 0080'              	movwf	___flge@ff1^(0+128)
 11315  03BE' 3040               	movlw	64
 11316  03BF' 0080'              	movwf	(___flge@ff2+3)^(0+128)
 11317  03C0' 3089               	movlw	137
 11318  03C1' 0080'              	movwf	(___flge@ff2+2)^(0+128)
 11319  03C2' 3070               	movlw	112
 11320  03C3' 0080'              	movwf	(___flge@ff2+1)^(0+128)
 11321  03C4' 305F               	movlw	95
 11322  03C5' 0080'              	movwf	___flge@ff2^(0+128)
 11323  03C6' 120A' 118A' 2000' 120A' 118A' 	fcall	___flge
 11324  03CB' 1803               	btfsc	3,0
 11325  03CC' 2800'              	goto	u6301
 11326  03CD' 2800'              	goto	u6300
 11327  03CE'                    u6301:
 11328  03CE' 2800'              	goto	l3577
 11329  03CF'                    u6300:
 11330  03CF'                    l3575:
 11331                           
 11332                           ;C:\Program Files\Microchip\xc8\v2.40\pic\sources\c90\common\doprnt.c: 1147:       eexp 
      +                          -= (sizeof dpowers/sizeof dpowers[0])-1;
 11333  03CF' 30F7               	movlw	247
 11334  03D0' 1683               	bsf	3,5	;RP0=1, select bank1
 11335  03D1' 1303               	bcf	3,6	;RP1=0, select bank1
 11336  03D2' 0780'              	addwf	sprintf@eexp^(0+128),f
 11337  03D3' 1803               	skipnc
 11338  03D4' 0A80'              	incf	(sprintf@eexp+1)^(0+128),f
 11339  03D5' 30FF               	movlw	255
 11340  03D6' 0780'              	addwf	(sprintf@eexp+1)^(0+128),f
 11341                           
 11342                           ;C:\Program Files\Microchip\xc8\v2.40\pic\sources\c90\common\doprnt.c: 1148:      }else{
 11343  03D7' 2800'              	goto	l3579
 11344  03D8'                    l3577:
 11345                           
 11346                           ;C:\Program Files\Microchip\xc8\v2.40\pic\sources\c90\common\doprnt.c: 1149:       eexp 
      +                          -= (sizeof dpowers/sizeof dpowers[0])-2;
 11347  03D8' 30F8               	movlw	248
 11348  03D9' 1683               	bsf	3,5	;RP0=1, select bank1
 11349  03DA' 1303               	bcf	3,6	;RP1=0, select bank1
 11350  03DB' 0780'              	addwf	sprintf@eexp^(0+128),f
 11351  03DC' 1803               	skipnc
 11352  03DD' 0A80'              	incf	(sprintf@eexp+1)^(0+128),f
 11353  03DE' 30FF               	movlw	255
 11354  03DF' 0780'              	addwf	(sprintf@eexp+1)^(0+128),f
 11355  03E0'                    l3579:
 11356                           
 11357                           ;C:\Program Files\Microchip\xc8\v2.40\pic\sources\c90\common\doprnt.c: 1152:      val = 
      +                          ((sizeof(double)== 3) ? _tdiv_to_l_(fval,tmpval.integ) : _div_to_l_(fval,tmpval.integ));
 11358  03E0' 0800'              	movf	sprintf@eexp^(0+128),w
 11359  03E1' 120A' 118A' 2000' 120A' 118A' 	fcall	_scale
 11360  03E6' 1283               	bcf	3,5	;RP0=0, select bank0
 11361  03E7' 1303               	bcf	3,6	;RP1=0, select bank0
 11362  03E8' 082B'              	movf	?_scale+3,w
 11363  03E9' 1683               	bsf	3,5	;RP0=1, select bank1
 11364  03EA' 1303               	bcf	3,6	;RP1=0, select bank1
 11365  03EB' 0080'              	movwf	(sprintf@tmpval+3)^(0+128)
 11366  03EC' 1283               	bcf	3,5	;RP0=0, select bank0
 11367  03ED' 1303               	bcf	3,6	;RP1=0, select bank0
 11368  03EE' 082A'              	movf	?_scale+2,w
 11369  03EF' 1683               	bsf	3,5	;RP0=1, select bank1
 11370  03F0' 1303               	bcf	3,6	;RP1=0, select bank1
 11371  03F1' 0080'              	movwf	(sprintf@tmpval+2)^(0+128)
 11372  03F2' 1283               	bcf	3,5	;RP0=0, select bank0
 11373  03F3' 1303               	bcf	3,6	;RP1=0, select bank0
 11374  03F4' 0829'              	movf	?_scale+1,w
 11375  03F5' 1683               	bsf	3,5	;RP0=1, select bank1
 11376  03F6' 1303               	bcf	3,6	;RP1=0, select bank1
 11377  03F7' 0080'              	movwf	(sprintf@tmpval+1)^(0+128)
 11378  03F8' 1283               	bcf	3,5	;RP0=0, select bank0
 11379  03F9' 1303               	bcf	3,6	;RP1=0, select bank0
 11380  03FA' 0828'              	movf	?_scale,w
 11381  03FB' 1683               	bsf	3,5	;RP0=1, select bank1
 11382  03FC' 1303               	bcf	3,6	;RP1=0, select bank1
 11383  03FD' 0080'              	movwf	sprintf@tmpval^(0+128)
 11384  03FE'                    l3581:
 11385  03FE' 0800'              	movf	(sprintf@fval+3)^(0+128),w
 11386  03FF' 0083'              	movwf	__div_to_l_@f1+3
 11387  0400' 0800'              	movf	(sprintf@fval+2)^(0+128),w
 11388  0401' 0082'              	movwf	__div_to_l_@f1+2
 11389  0402' 0800'              	movf	(sprintf@fval+1)^(0+128),w
 11390  0403' 0081'              	movwf	__div_to_l_@f1+1
 11391  0404' 0800'              	movf	sprintf@fval^(0+128),w
 11392  0405' 0080'              	movwf	__div_to_l_@f1
 11393  0406' 0800'              	movf	(sprintf@tmpval+3)^(0+128),w
 11394  0407' 0087'              	movwf	__div_to_l_@f2+3
 11395  0408' 0800'              	movf	(sprintf@tmpval+2)^(0+128),w
 11396  0409' 0086'              	movwf	__div_to_l_@f2+2
 11397  040A' 0800'              	movf	(sprintf@tmpval+1)^(0+128),w
 11398  040B' 0085'              	movwf	__div_to_l_@f2+1
 11399  040C' 0800'              	movf	sprintf@tmpval^(0+128),w
 11400  040D' 0084'              	movwf	__div_to_l_@f2
 11401  040E' 120A' 118A' 2000' 120A' 118A' 	fcall	__div_to_l_
 11402  0413' 0803'              	movf	?__div_to_l_+3,w
 11403  0414' 1683               	bsf	3,5	;RP0=1, select bank1
 11404  0415' 1303               	bcf	3,6	;RP1=0, select bank1
 11405  0416' 0080'              	movwf	(sprintf@val+3)^(0+128)
 11406  0417' 0802'              	movf	?__div_to_l_+2,w
 11407  0418' 0080'              	movwf	(sprintf@val+2)^(0+128)
 11408  0419' 0801'              	movf	?__div_to_l_+1,w
 11409  041A' 0080'              	movwf	(sprintf@val+1)^(0+128)
 11410  041B' 0800'              	movf	?__div_to_l_,w
 11411  041C' 0080'              	movwf	sprintf@val^(0+128)
 11412  041D'                    l3585:
 11413                           
 11414                           ;C:\Program Files\Microchip\xc8\v2.40\pic\sources\c90\common\doprnt.c: 1155:      fval =
      +                           0.0;
 11415  041D' 3000               	movlw	0
 11416  041E' 0080'              	movwf	(sprintf@fval+3)^(0+128)
 11417  041F' 3000               	movlw	0
 11418  0420' 0080'              	movwf	(sprintf@fval+2)^(0+128)
 11419  0421' 3000               	movlw	0
 11420  0422' 0080'              	movwf	(sprintf@fval+1)^(0+128)
 11421  0423' 3000               	movlw	0
 11422  0424' 0080'              	movwf	sprintf@fval^(0+128)
 11423                           
 11424                           ;C:\Program Files\Microchip\xc8\v2.40\pic\sources\c90\common\doprnt.c: 1156:     } else 
      +                          {
 11425  0425' 2800'              	goto	l3593
 11426  0426'                    l3587:
 11427                           
 11428                           ;C:\Program Files\Microchip\xc8\v2.40\pic\sources\c90\common\doprnt.c: 1157:      val = 
      +                          (unsigned long)fval;
 11429  0426' 1683               	bsf	3,5	;RP0=1, select bank1
 11430  0427' 1303               	bcf	3,6	;RP1=0, select bank1
 11431  0428' 0800'              	movf	(sprintf@fval+3)^(0+128),w
 11432  0429' 1283               	bcf	3,5	;RP0=0, select bank0
 11433  042A' 1303               	bcf	3,6	;RP1=0, select bank0
 11434  042B' 00BE'              	movwf	___fltol@f1+3
 11435  042C' 1683               	bsf	3,5	;RP0=1, select bank1
 11436  042D' 1303               	bcf	3,6	;RP1=0, select bank1
 11437  042E' 0800'              	movf	(sprintf@fval+2)^(0+128),w
 11438  042F' 1283               	bcf	3,5	;RP0=0, select bank0
 11439  0430' 1303               	bcf	3,6	;RP1=0, select bank0
 11440  0431' 00BD'              	movwf	___fltol@f1+2
 11441  0432' 1683               	bsf	3,5	;RP0=1, select bank1
 11442  0433' 1303               	bcf	3,6	;RP1=0, select bank1
 11443  0434' 0800'              	movf	(sprintf@fval+1)^(0+128),w
 11444  0435' 1283               	bcf	3,5	;RP0=0, select bank0
 11445  0436' 1303               	bcf	3,6	;RP1=0, select bank0
 11446  0437' 00BC'              	movwf	___fltol@f1+1
 11447  0438' 1683               	bsf	3,5	;RP0=1, select bank1
 11448  0439' 1303               	bcf	3,6	;RP1=0, select bank1
 11449  043A' 0800'              	movf	sprintf@fval^(0+128),w
 11450  043B' 1283               	bcf	3,5	;RP0=0, select bank0
 11451  043C' 1303               	bcf	3,6	;RP1=0, select bank0
 11452  043D' 00BB'              	movwf	___fltol@f1
 11453  043E' 120A' 118A' 2000' 120A' 118A' 	fcall	___fltol
 11454  0443' 1283               	bcf	3,5	;RP0=0, select bank0
 11455  0444' 1303               	bcf	3,6	;RP1=0, select bank0
 11456  0445' 083E'              	movf	?___fltol+3,w
 11457  0446' 1683               	bsf	3,5	;RP0=1, select bank1
 11458  0447' 1303               	bcf	3,6	;RP1=0, select bank1
 11459  0448' 0080'              	movwf	(sprintf@val+3)^(0+128)
 11460  0449' 1283               	bcf	3,5	;RP0=0, select bank0
 11461  044A' 1303               	bcf	3,6	;RP1=0, select bank0
 11462  044B' 083D'              	movf	?___fltol+2,w
 11463  044C' 1683               	bsf	3,5	;RP0=1, select bank1
 11464  044D' 1303               	bcf	3,6	;RP1=0, select bank1
 11465  044E' 0080'              	movwf	(sprintf@val+2)^(0+128)
 11466  044F' 1283               	bcf	3,5	;RP0=0, select bank0
 11467  0450' 1303               	bcf	3,6	;RP1=0, select bank0
 11468  0451' 083C'              	movf	?___fltol+1,w
 11469  0452' 1683               	bsf	3,5	;RP0=1, select bank1
 11470  0453' 1303               	bcf	3,6	;RP1=0, select bank1
 11471  0454' 0080'              	movwf	(sprintf@val+1)^(0+128)
 11472  0455' 1283               	bcf	3,5	;RP0=0, select bank0
 11473  0456' 1303               	bcf	3,6	;RP1=0, select bank0
 11474  0457' 083B'              	movf	?___fltol,w
 11475  0458' 1683               	bsf	3,5	;RP0=1, select bank1
 11476  0459' 1303               	bcf	3,6	;RP1=0, select bank1
 11477  045A' 0080'              	movwf	sprintf@val^(0+128)
 11478  045B'                    l3589:
 11479                           
 11480                           ;C:\Program Files\Microchip\xc8\v2.40\pic\sources\c90\common\doprnt.c: 1158:      fval -
      +                          = (double)val;
 11481  045B' 0800'              	movf	(sprintf@val+3)^(0+128),w
 11482  045C' 1283               	bcf	3,5	;RP0=0, select bank0
 11483  045D' 1303               	bcf	3,6	;RP1=0, select bank0
 11484  045E' 0083'              	movwf	___xxtofl@val+3
 11485  045F' 1683               	bsf	3,5	;RP0=1, select bank1
 11486  0460' 1303               	bcf	3,6	;RP1=0, select bank1
 11487  0461' 0800'              	movf	(sprintf@val+2)^(0+128),w
 11488  0462' 1283               	bcf	3,5	;RP0=0, select bank0
 11489  0463' 1303               	bcf	3,6	;RP1=0, select bank0
 11490  0464' 0082'              	movwf	___xxtofl@val+2
 11491  0465' 1683               	bsf	3,5	;RP0=1, select bank1
 11492  0466' 1303               	bcf	3,6	;RP1=0, select bank1
 11493  0467' 0800'              	movf	(sprintf@val+1)^(0+128),w
 11494  0468' 1283               	bcf	3,5	;RP0=0, select bank0
 11495  0469' 1303               	bcf	3,6	;RP1=0, select bank0
 11496  046A' 0081'              	movwf	___xxtofl@val+1
 11497  046B' 1683               	bsf	3,5	;RP0=1, select bank1
 11498  046C' 1303               	bcf	3,6	;RP1=0, select bank1
 11499  046D' 0800'              	movf	sprintf@val^(0+128),w
 11500  046E' 1283               	bcf	3,5	;RP0=0, select bank0
 11501  046F' 1303               	bcf	3,6	;RP1=0, select bank0
 11502  0470' 0080'              	movwf	___xxtofl@val
 11503  0471' 3000               	movlw	0
 11504  0472' 120A' 118A' 2000' 120A' 118A' 	fcall	___xxtofl
 11505  0477' 1283               	bcf	3,5	;RP0=0, select bank0
 11506  0478' 1303               	bcf	3,6	;RP1=0, select bank0
 11507  0479' 0803'              	movf	?___xxtofl+3,w
 11508  047A' 1683               	bsf	3,5	;RP0=1, select bank1
 11509  047B' 1303               	bcf	3,6	;RP1=0, select bank1
 11510  047C' 0080'              	movwf	(___flsub@a+3)^(0+128)
 11511  047D' 1283               	bcf	3,5	;RP0=0, select bank0
 11512  047E' 1303               	bcf	3,6	;RP1=0, select bank0
 11513  047F' 0802'              	movf	?___xxtofl+2,w
 11514  0480' 1683               	bsf	3,5	;RP0=1, select bank1
 11515  0481' 1303               	bcf	3,6	;RP1=0, select bank1
 11516  0482' 0080'              	movwf	(___flsub@a+2)^(0+128)
 11517  0483' 1283               	bcf	3,5	;RP0=0, select bank0
 11518  0484' 1303               	bcf	3,6	;RP1=0, select bank0
 11519  0485' 0801'              	movf	?___xxtofl+1,w
 11520  0486' 1683               	bsf	3,5	;RP0=1, select bank1
 11521  0487' 1303               	bcf	3,6	;RP1=0, select bank1
 11522  0488' 0080'              	movwf	(___flsub@a+1)^(0+128)
 11523  0489' 1283               	bcf	3,5	;RP0=0, select bank0
 11524  048A' 1303               	bcf	3,6	;RP1=0, select bank0
 11525  048B' 0800'              	movf	?___xxtofl,w
 11526  048C' 1683               	bsf	3,5	;RP0=1, select bank1
 11527  048D' 1303               	bcf	3,6	;RP1=0, select bank1
 11528  048E' 0080'              	movwf	___flsub@a^(0+128)
 11529  048F' 0800'              	movf	(sprintf@fval+3)^(0+128),w
 11530  0490' 0080'              	movwf	(___flsub@b+3)^(0+128)
 11531  0491' 0800'              	movf	(sprintf@fval+2)^(0+128),w
 11532  0492' 0080'              	movwf	(___flsub@b+2)^(0+128)
 11533  0493' 0800'              	movf	(sprintf@fval+1)^(0+128),w
 11534  0494' 0080'              	movwf	(___flsub@b+1)^(0+128)
 11535  0495' 0800'              	movf	sprintf@fval^(0+128),w
 11536  0496' 0080'              	movwf	___flsub@b^(0+128)
 11537  0497' 120A' 118A' 2000' 120A' 118A' 	fcall	___flsub
 11538  049C' 1683               	bsf	3,5	;RP0=1, select bank1
 11539  049D' 1303               	bcf	3,6	;RP1=0, select bank1
 11540  049E' 0800'              	movf	(?___flsub+3)^(0+128),w
 11541  049F' 0080'              	movwf	(sprintf@fval+3)^(0+128)
 11542  04A0' 0800'              	movf	(?___flsub+2)^(0+128),w
 11543  04A1' 0080'              	movwf	(sprintf@fval+2)^(0+128)
 11544  04A2' 0800'              	movf	(?___flsub+1)^(0+128),w
 11545  04A3' 0080'              	movwf	(sprintf@fval+1)^(0+128)
 11546  04A4' 0800'              	movf	?___flsub^(0+128),w
 11547  04A5' 0080'              	movwf	sprintf@fval^(0+128)
 11548  04A6'                    l3591:
 11549                           
 11550                           ;C:\Program Files\Microchip\xc8\v2.40\pic\sources\c90\common\doprnt.c: 1159:      eexp =
      +                           0;
 11551  04A6' 0180'              	clrf	sprintf@eexp^(0+128)
 11552  04A7' 0180'              	clrf	(sprintf@eexp+1)^(0+128)
 11553  04A8'                    l3593:
 11554                           
 11555                           ;C:\Program Files\Microchip\xc8\v2.40\pic\sources\c90\common\doprnt.c: 1162:     for(c =
      +                           1 ; c != (sizeof dpowers/sizeof dpowers[0]) ; c++)
 11556  04A8' 0180'              	clrf	sprintf@c^(0+128)
 11557  04A9' 0A80'              	incf	sprintf@c^(0+128),f
 11558  04AA'                    l3599:
 11559                           
 11560                           ;C:\Program Files\Microchip\xc8\v2.40\pic\sources\c90\common\doprnt.c: 1163:      if(val
      +                           < dpowers[c])
 11561  04AA' 0800'              	movf	sprintf@c^(0+128),w
 11562  04AB' 0080'              	movwf	??_sprintf^(0+128)
 11563  04AC' 3001               	movlw	1
 11564  04AD'                    u6315:
 11565  04AD' 1003               	clrc
 11566  04AE' 0D80'              	rlf	??_sprintf^(0+128),f
 11567  04AF' 3EFF               	addlw	-1
 11568  04B0' 1D03               	skipz
 11569  04B1' 2800'              	goto	u6315
 11570  04B2' 1003               	clrc
 11571  04B3' 0D00'              	rlf	??_sprintf^(0+128),w
 11572  04B4' 3E69               	addlw	low ((_dpowers-__stringbase)| (0+32768))
 11573  04B5' 0084               	movwf	4
 11574  04B6' 120A' 118A' 2000' 120A' 118A' 	fcall	stringdir
 11575  04BB' 0080'              	movwf	(??_sprintf+1)^(0+128)
 11576  04BC' 120A' 118A' 2000' 120A' 118A' 	fcall	stringdir
 11577  04C1' 0081'              	movwf	((??_sprintf+1)^(0+128)+1)
 11578  04C2' 120A' 118A' 2000' 120A' 118A' 	fcall	stringdir
 11579  04C7' 0082'              	movwf	((??_sprintf+1)^(0+128)+2)
 11580  04C8' 120A' 118A' 2000' 120A' 118A' 	fcall	stringdir
 11581  04CD' 0083'              	movwf	((??_sprintf+1)^(0+128)+3)
 11582  04CE' 0800'              	movf	(??_sprintf+4)^(0+128),w
 11583  04CF' 0200'              	subwf	(sprintf@val+3)^(0+128),w
 11584  04D0' 1D03               	skipz
 11585  04D1' 2800'              	goto	u6325
 11586  04D2' 0800'              	movf	(??_sprintf+3)^(0+128),w
 11587  04D3' 0200'              	subwf	(sprintf@val+2)^(0+128),w
 11588  04D4' 1D03               	skipz
 11589  04D5' 2800'              	goto	u6325
 11590  04D6' 0800'              	movf	(??_sprintf+2)^(0+128),w
 11591  04D7' 0200'              	subwf	(sprintf@val+1)^(0+128),w
 11592  04D8' 1D03               	skipz
 11593  04D9' 2800'              	goto	u6325
 11594  04DA' 0800'              	movf	(??_sprintf+1)^(0+128),w
 11595  04DB' 0200'              	subwf	sprintf@val^(0+128),w
 11596  04DC'                    u6325:
 11597  04DC' 1803               	skipnc
 11598  04DD' 2800'              	goto	u6321
 11599  04DE' 2800'              	goto	u6320
 11600  04DF'                    u6321:
 11601  04DF' 2800'              	goto	l3603
 11602  04E0'                    u6320:
 11603  04E0' 2800'              	goto	l3605
 11604  04E1'                    l3603:
 11605  04E1' 3001               	movlw	1
 11606  04E2' 0080'              	movwf	??_sprintf^(0+128)
 11607  04E3' 0800'              	movf	??_sprintf^(0+128),w
 11608  04E4' 0780'              	addwf	sprintf@c^(0+128),f
 11609  04E5' 300A               	movlw	10
 11610  04E6' 0600'              	xorwf	sprintf@c^(0+128),w
 11611  04E7' 1D03               	btfss	3,2
 11612  04E8' 2800'              	goto	u6331
 11613  04E9' 2800'              	goto	u6330
 11614  04EA'                    u6331:
 11615  04EA' 2800'              	goto	l3599
 11616  04EB'                    u6330:
 11617  04EB'                    l3605:
 11618                           
 11619                           ;C:\Program Files\Microchip\xc8\v2.40\pic\sources\c90\common\doprnt.c: 1201:     {;C:\Pr
      +                          ogram Files\Microchip\xc8\v2.40\pic\sources\c90\common\doprnt.c: 1214:     if(flag & 0x0
      +                          3)
 11620  04EB' 3003               	movlw	3
 11621  04EC' 0500'              	andwf	sprintf@flag^(0+128),w
 11622  04ED' 0080'              	movwf	??_sprintf^(0+128)
 11623  04EE' 3000               	movlw	0
 11624  04EF' 0500'              	andwf	(sprintf@flag+1)^(0+128),w
 11625  04F0' 0080'              	movwf	(??_sprintf+1)^(0+128)
 11626  04F1' 0800'              	movf	??_sprintf^(0+128),w
 11627  04F2' 0401'              	iorwf	(??_sprintf^(0+128)+1),w
 11628  04F3' 1903               	btfsc	3,2
 11629  04F4' 2800'              	goto	u6341
 11630  04F5' 2800'              	goto	u6340
 11631  04F6'                    u6341:
 11632  04F6' 2800'              	goto	l276
 11633  04F7'                    u6340:
 11634  04F7'                    l3607:
 11635                           
 11636                           ;C:\Program Files\Microchip\xc8\v2.40\pic\sources\c90\common\doprnt.c: 1216:      ((*sp+
      +                          + = ('-')));
 11637  04F7' 0800'              	movf	sprintf@sp^(0+128),w
 11638  04F8' 0084               	movwf	4
 11639  04F9' 302D               	movlw	45
 11640  04FA' 1783               	bsf	3,7	;select IRP bank2
 11641  04FB' 0080               	movwf	0
 11642  04FC'                    l3609:
 11643  04FC' 3001               	movlw	1
 11644  04FD' 0080'              	movwf	??_sprintf^(0+128)
 11645  04FE' 0800'              	movf	??_sprintf^(0+128),w
 11646  04FF' 0780'              	addwf	sprintf@sp^(0+128),f
 11647  0500' 2800'              	goto	l276
 11648  0501'                    l3611:
 11649                           
 11650                           ;C:\Program Files\Microchip\xc8\v2.40\pic\sources\c90\common\doprnt.c: 1226:     {;C:\Pr
      +                          ogram Files\Microchip\xc8\v2.40\pic\sources\c90\common\doprnt.c: 1227:      tmpval.vd = 
      +                          val/dpowers[c];
 11651  0501' 0800'              	movf	sprintf@c^(0+128),w
 11652  0502' 0080'              	movwf	??_sprintf^(0+128)
 11653  0503' 3001               	movlw	1
 11654  0504'                    u6355:
 11655  0504' 1003               	clrc
 11656  0505' 0D80'              	rlf	??_sprintf^(0+128),f
 11657  0506' 3EFF               	addlw	-1
 11658  0507' 1D03               	skipz
 11659  0508' 2800'              	goto	u6355
 11660  0509' 1003               	clrc
 11661  050A' 0D00'              	rlf	??_sprintf^(0+128),w
 11662  050B' 3E69               	addlw	low ((_dpowers-__stringbase)| (0+32768))
 11663  050C' 0084               	movwf	4
 11664  050D' 120A' 118A' 2000' 120A' 118A' 	fcall	stringdir
 11665  0512' 0080'              	movwf	___lldiv@divisor
 11666  0513' 120A' 118A' 2000' 120A' 118A' 	fcall	stringdir
 11667  0518' 0081'              	movwf	___lldiv@divisor+1
 11668  0519' 120A' 118A' 2000' 120A' 118A' 	fcall	stringdir
 11669  051E' 0082'              	movwf	___lldiv@divisor+2
 11670  051F' 120A' 118A' 2000' 120A' 118A' 	fcall	stringdir
 11671  0524' 0083'              	movwf	___lldiv@divisor+3
 11672  0525' 0800'              	movf	(sprintf@val+3)^(0+128),w
 11673  0526' 0087'              	movwf	___lldiv@dividend+3
 11674  0527' 0800'              	movf	(sprintf@val+2)^(0+128),w
 11675  0528' 0086'              	movwf	___lldiv@dividend+2
 11676  0529' 0800'              	movf	(sprintf@val+1)^(0+128),w
 11677  052A' 0085'              	movwf	___lldiv@dividend+1
 11678  052B' 0800'              	movf	sprintf@val^(0+128),w
 11679  052C' 0084'              	movwf	___lldiv@dividend
 11680  052D' 120A' 118A' 2000' 120A' 118A' 	fcall	___lldiv
 11681  0532' 0803'              	movf	?___lldiv+3,w
 11682  0533' 1683               	bsf	3,5	;RP0=1, select bank1
 11683  0534' 1303               	bcf	3,6	;RP1=0, select bank1
 11684  0535' 0080'              	movwf	(sprintf@tmpval+3)^(0+128)
 11685  0536' 0802'              	movf	?___lldiv+2,w
 11686  0537' 0080'              	movwf	(sprintf@tmpval+2)^(0+128)
 11687  0538' 0801'              	movf	?___lldiv+1,w
 11688  0539' 0080'              	movwf	(sprintf@tmpval+1)^(0+128)
 11689  053A' 0800'              	movf	?___lldiv,w
 11690  053B' 0080'              	movwf	sprintf@tmpval^(0+128)
 11691  053C'                    l3613:
 11692                           
 11693                           ;C:\Program Files\Microchip\xc8\v2.40\pic\sources\c90\common\doprnt.c: 1228:      tmpval
      +                          .vd %= 10;
 11694  053C' 3000               	movlw	0
 11695  053D' 0083'              	movwf	___llmod@divisor+3
 11696  053E' 3000               	movlw	0
 11697  053F' 0082'              	movwf	___llmod@divisor+2
 11698  0540' 3000               	movlw	0
 11699  0541' 0081'              	movwf	___llmod@divisor+1
 11700  0542' 300A               	movlw	10
 11701  0543' 0080'              	movwf	___llmod@divisor
 11702  0544' 0800'              	movf	(sprintf@tmpval+3)^(0+128),w
 11703  0545' 0087'              	movwf	___llmod@dividend+3
 11704  0546' 0800'              	movf	(sprintf@tmpval+2)^(0+128),w
 11705  0547' 0086'              	movwf	___llmod@dividend+2
 11706  0548' 0800'              	movf	(sprintf@tmpval+1)^(0+128),w
 11707  0549' 0085'              	movwf	___llmod@dividend+1
 11708  054A' 0800'              	movf	sprintf@tmpval^(0+128),w
 11709  054B' 0084'              	movwf	___llmod@dividend
 11710  054C' 120A' 118A' 2000' 120A' 118A' 	fcall	___llmod
 11711  0551' 0803'              	movf	?___llmod+3,w
 11712  0552' 1683               	bsf	3,5	;RP0=1, select bank1
 11713  0553' 1303               	bcf	3,6	;RP1=0, select bank1
 11714  0554' 0080'              	movwf	(sprintf@tmpval+3)^(0+128)
 11715  0555' 0802'              	movf	?___llmod+2,w
 11716  0556' 0080'              	movwf	(sprintf@tmpval+2)^(0+128)
 11717  0557' 0801'              	movf	?___llmod+1,w
 11718  0558' 0080'              	movwf	(sprintf@tmpval+1)^(0+128)
 11719  0559' 0800'              	movf	?___llmod,w
 11720  055A' 0080'              	movwf	sprintf@tmpval^(0+128)
 11721  055B'                    l3615:
 11722                           
 11723                           ;C:\Program Files\Microchip\xc8\v2.40\pic\sources\c90\common\doprnt.c: 1229:      ((*sp+
      +                          + = ('0' + tmpval.vd)));
 11724  055B' 0800'              	movf	sprintf@sp^(0+128),w
 11725  055C' 0084               	movwf	4
 11726  055D' 0800'              	movf	sprintf@tmpval^(0+128),w
 11727  055E' 3E30               	addlw	48
 11728  055F' 1783               	bsf	3,7	;select IRP bank2
 11729  0560' 0080               	movwf	0
 11730  0561' 3001               	movlw	1
 11731  0562' 0080'              	movwf	??_sprintf^(0+128)
 11732  0563' 0800'              	movf	??_sprintf^(0+128),w
 11733  0564' 0780'              	addwf	sprintf@sp^(0+128),f
 11734  0565'                    l276:	
 11735                           ;C:\Program Files\Microchip\xc8\v2.40\pic\sources\c90\common\doprnt.c: 1230:     };C:\Pr
      +                          ogram Files\Microchip\xc8\v2.40\pic\sources\c90\common\doprnt.c: 1232:    }
 11736                           
 11737                           
 11738                           ;C:\Program Files\Microchip\xc8\v2.40\pic\sources\c90\common\doprnt.c: 1222:    while(c-
      +                          -) {
 11739  0565' 3001               	movlw	1
 11740  0566' 0280'              	subwf	sprintf@c^(0+128),f
 11741  0567' 0A00'              	incf	sprintf@c^(0+128),w
 11742  0568' 1D03               	btfss	3,2
 11743  0569' 2800'              	goto	u6361
 11744  056A' 2800'              	goto	u6360
 11745  056B'                    u6361:
 11746  056B' 2800'              	goto	l3611
 11747  056C'                    u6360:
 11748  056C' 2800'              	goto	l3623
 11749  056D'                    l3617:
 11750                           
 11751                           ;C:\Program Files\Microchip\xc8\v2.40\pic\sources\c90\common\doprnt.c: 1234:     ((*sp++
      +                           = ('0')));
 11752  056D' 1683               	bsf	3,5	;RP0=1, select bank1
 11753  056E' 1303               	bcf	3,6	;RP1=0, select bank1
 11754  056F' 0800'              	movf	sprintf@sp^(0+128),w
 11755  0570' 0084               	movwf	4
 11756  0571' 3030               	movlw	48
 11757  0572' 1783               	bsf	3,7	;select IRP bank2
 11758  0573' 0080               	movwf	0
 11759  0574'                    l3619:
 11760  0574' 3001               	movlw	1
 11761  0575' 0080'              	movwf	??_sprintf^(0+128)
 11762  0576' 0800'              	movf	??_sprintf^(0+128),w
 11763  0577' 0780'              	addwf	sprintf@sp^(0+128),f
 11764  0578'                    l3621:
 11765                           
 11766                           ;C:\Program Files\Microchip\xc8\v2.40\pic\sources\c90\common\doprnt.c: 1235:     eexp--;
 11767  0578' 30FF               	movlw	255
 11768  0579' 0780'              	addwf	sprintf@eexp^(0+128),f
 11769  057A' 1803               	skipnc
 11770  057B' 0A80'              	incf	(sprintf@eexp+1)^(0+128),f
 11771  057C' 30FF               	movlw	255
 11772  057D' 0780'              	addwf	(sprintf@eexp+1)^(0+128),f
 11773  057E'                    l3623:
 11774                           
 11775                           ;C:\Program Files\Microchip\xc8\v2.40\pic\sources\c90\common\doprnt.c: 1233:    while(ee
      +                          xp > 0) {
 11776  057E' 0800'              	movf	(sprintf@eexp+1)^(0+128),w
 11777  057F' 3A80               	xorlw	128
 11778  0580' 00FF               	movwf	btemp+1
 11779  0581' 3080               	movlw	128
 11780  0582' 027F               	subwf	btemp+1,w
 11781  0583' 1D03               	skipz
 11782  0584' 2800'              	goto	u6375
 11783  0585' 3001               	movlw	1
 11784  0586' 0200'              	subwf	sprintf@eexp^(0+128),w
 11785  0587'                    u6375:
 11786  0587' 1803               	skipnc
 11787  0588' 2800'              	goto	u6371
 11788  0589' 2800'              	goto	u6370
 11789  058A'                    u6371:
 11790  058A' 2800'              	goto	l3617
 11791  058B'                    u6370:
 11792  058B'                    l3625:
 11793                           
 11794                           ;C:\Program Files\Microchip\xc8\v2.40\pic\sources\c90\common\doprnt.c: 1237:    if(prec 
      +                          > (int)((sizeof dpowers/sizeof dpowers[0])-2))
 11795  058B' 1683               	bsf	3,5	;RP0=1, select bank1
 11796  058C' 1303               	bcf	3,6	;RP1=0, select bank1
 11797  058D' 0800'              	movf	(sprintf@prec+1)^(0+128),w
 11798  058E' 3A80               	xorlw	128
 11799  058F' 00FF               	movwf	btemp+1
 11800  0590' 3080               	movlw	128
 11801  0591' 027F               	subwf	btemp+1,w
 11802  0592' 1D03               	skipz
 11803  0593' 2800'              	goto	u6385
 11804  0594' 3009               	movlw	9
 11805  0595' 0200'              	subwf	sprintf@prec^(0+128),w
 11806  0596'                    u6385:
 11807  0596' 1C03               	skipc
 11808  0597' 2800'              	goto	u6381
 11809  0598' 2800'              	goto	u6380
 11810  0599'                    u6381:
 11811  0599' 2800'              	goto	l3629
 11812  059A'                    u6380:
 11813  059A'                    l3627:
 11814                           
 11815                           ;C:\Program Files\Microchip\xc8\v2.40\pic\sources\c90\common\doprnt.c: 1238:     c = (si
      +                          zeof dpowers/sizeof dpowers[0])-2;
 11816  059A' 3008               	movlw	8
 11817  059B' 1683               	bsf	3,5	;RP0=1, select bank1
 11818  059C' 1303               	bcf	3,6	;RP1=0, select bank1
 11819  059D' 0080'              	movwf	sprintf@c^(0+128)
 11820  059E' 2800'              	goto	l283
 11821  059F'                    l3629:
 11822                           
 11823                           ;C:\Program Files\Microchip\xc8\v2.40\pic\sources\c90\common\doprnt.c: 1240:     c = (ch
      +                          ar)prec;
 11824  059F' 1683               	bsf	3,5	;RP0=1, select bank1
 11825  05A0' 1303               	bcf	3,6	;RP1=0, select bank1
 11826  05A1' 0800'              	movf	sprintf@prec^(0+128),w
 11827  05A2' 0080'              	movwf	sprintf@c^(0+128)
 11828  05A3'                    l283:
 11829                           
 11830                           ;C:\Program Files\Microchip\xc8\v2.40\pic\sources\c90\common\doprnt.c: 1241:    prec -= 
      +                          (int)c;
 11831  05A3' 0800'              	movf	sprintf@c^(0+128),w
 11832  05A4' 0080'              	movwf	??_sprintf^(0+128)
 11833  05A5' 0181'              	clrf	(??_sprintf^(0+128)+1)
 11834  05A6' 0800'              	movf	??_sprintf^(0+128),w
 11835  05A7' 0280'              	subwf	sprintf@prec^(0+128),f
 11836  05A8' 0800'              	movf	(??_sprintf+1)^(0+128),w
 11837  05A9' 1C03               	skipc
 11838  05AA' 0380'              	decf	(sprintf@prec+1)^(0+128),f
 11839  05AB' 0280'              	subwf	(sprintf@prec+1)^(0+128),f
 11840  05AC'                    l3631:
 11841                           
 11842                           ;C:\Program Files\Microchip\xc8\v2.40\pic\sources\c90\common\doprnt.c: 1245:    if(c)
 11843  05AC' 0800'              	movf	sprintf@c^(0+128),w
 11844  05AD' 1903               	btfsc	3,2
 11845  05AE' 2800'              	goto	u6391
 11846  05AF' 2800'              	goto	u6390
 11847  05B0'                    u6391:
 11848  05B0' 2800'              	goto	l3637
 11849  05B1'                    u6390:
 11850  05B1'                    l3633:
 11851                           
 11852                           ;C:\Program Files\Microchip\xc8\v2.40\pic\sources\c90\common\doprnt.c: 1247:     ((*sp++
      +                           = ('.')));
 11853  05B1' 0800'              	movf	sprintf@sp^(0+128),w
 11854  05B2' 0084               	movwf	4
 11855  05B3' 302E               	movlw	46
 11856  05B4' 1783               	bsf	3,7	;select IRP bank2
 11857  05B5' 0080               	movwf	0
 11858  05B6'                    l3635:
 11859  05B6' 3001               	movlw	1
 11860  05B7' 0080'              	movwf	??_sprintf^(0+128)
 11861  05B8' 0800'              	movf	??_sprintf^(0+128),w
 11862  05B9' 0780'              	addwf	sprintf@sp^(0+128),f
 11863  05BA'                    l3637:
 11864                           
 11865                           ;C:\Program Files\Microchip\xc8\v2.40\pic\sources\c90\common\doprnt.c: 1253:    val = (u
      +                          nsigned long)(fval * scale((signed char)c));
 11866  05BA' 0800'              	movf	sprintf@c^(0+128),w
 11867  05BB' 120A' 118A' 2000' 120A' 118A' 	fcall	_scale
 11868  05C0' 1283               	bcf	3,5	;RP0=0, select bank0
 11869  05C1' 1303               	bcf	3,6	;RP1=0, select bank0
 11870  05C2' 082B'              	movf	?_scale+3,w
 11871  05C3' 1683               	bsf	3,5	;RP0=1, select bank1
 11872  05C4' 1303               	bcf	3,6	;RP1=0, select bank1
 11873  05C5' 0080'              	movwf	(_sprintf$897+3)^(0+128)
 11874  05C6' 1283               	bcf	3,5	;RP0=0, select bank0
 11875  05C7' 1303               	bcf	3,6	;RP1=0, select bank0
 11876  05C8' 082A'              	movf	?_scale+2,w
 11877  05C9' 1683               	bsf	3,5	;RP0=1, select bank1
 11878  05CA' 1303               	bcf	3,6	;RP1=0, select bank1
 11879  05CB' 0080'              	movwf	(_sprintf$897+2)^(0+128)
 11880  05CC' 1283               	bcf	3,5	;RP0=0, select bank0
 11881  05CD' 1303               	bcf	3,6	;RP1=0, select bank0
 11882  05CE' 0829'              	movf	?_scale+1,w
 11883  05CF' 1683               	bsf	3,5	;RP0=1, select bank1
 11884  05D0' 1303               	bcf	3,6	;RP1=0, select bank1
 11885  05D1' 0080'              	movwf	(_sprintf$897+1)^(0+128)
 11886  05D2' 1283               	bcf	3,5	;RP0=0, select bank0
 11887  05D3' 1303               	bcf	3,6	;RP1=0, select bank0
 11888  05D4' 0828'              	movf	?_scale,w
 11889  05D5' 1683               	bsf	3,5	;RP0=1, select bank1
 11890  05D6' 1303               	bcf	3,6	;RP1=0, select bank1
 11891  05D7' 0080'              	movwf	_sprintf$897^(0+128)
 11892  05D8'                    l3639:
 11893                           
 11894                           ;C:\Program Files\Microchip\xc8\v2.40\pic\sources\c90\common\doprnt.c: 1253:    val = (u
      +                          nsigned long)(fval * scale((signed char)c));
 11895  05D8' 0800'              	movf	(_sprintf$897+3)^(0+128),w
 11896  05D9' 1283               	bcf	3,5	;RP0=0, select bank0
 11897  05DA' 1303               	bcf	3,6	;RP1=0, select bank0
 11898  05DB' 0095'              	movwf	___flmul@a+3
 11899  05DC' 1683               	bsf	3,5	;RP0=1, select bank1
 11900  05DD' 1303               	bcf	3,6	;RP1=0, select bank1
 11901  05DE' 0800'              	movf	(_sprintf$897+2)^(0+128),w
 11902  05DF' 1283               	bcf	3,5	;RP0=0, select bank0
 11903  05E0' 1303               	bcf	3,6	;RP1=0, select bank0
 11904  05E1' 0094'              	movwf	___flmul@a+2
 11905  05E2' 1683               	bsf	3,5	;RP0=1, select bank1
 11906  05E3' 1303               	bcf	3,6	;RP1=0, select bank1
 11907  05E4' 0800'              	movf	(_sprintf$897+1)^(0+128),w
 11908  05E5' 1283               	bcf	3,5	;RP0=0, select bank0
 11909  05E6' 1303               	bcf	3,6	;RP1=0, select bank0
 11910  05E7' 0093'              	movwf	___flmul@a+1
 11911  05E8' 1683               	bsf	3,5	;RP0=1, select bank1
 11912  05E9' 1303               	bcf	3,6	;RP1=0, select bank1
 11913  05EA' 0800'              	movf	_sprintf$897^(0+128),w
 11914  05EB' 1283               	bcf	3,5	;RP0=0, select bank0
 11915  05EC' 1303               	bcf	3,6	;RP1=0, select bank0
 11916  05ED' 0092'              	movwf	___flmul@a
 11917  05EE' 1683               	bsf	3,5	;RP0=1, select bank1
 11918  05EF' 1303               	bcf	3,6	;RP1=0, select bank1
 11919  05F0' 0800'              	movf	(sprintf@fval+3)^(0+128),w
 11920  05F1' 1283               	bcf	3,5	;RP0=0, select bank0
 11921  05F2' 1303               	bcf	3,6	;RP1=0, select bank0
 11922  05F3' 0091'              	movwf	___flmul@b+3
 11923  05F4' 1683               	bsf	3,5	;RP0=1, select bank1
 11924  05F5' 1303               	bcf	3,6	;RP1=0, select bank1
 11925  05F6' 0800'              	movf	(sprintf@fval+2)^(0+128),w
 11926  05F7' 1283               	bcf	3,5	;RP0=0, select bank0
 11927  05F8' 1303               	bcf	3,6	;RP1=0, select bank0
 11928  05F9' 0090'              	movwf	___flmul@b+2
 11929  05FA' 1683               	bsf	3,5	;RP0=1, select bank1
 11930  05FB' 1303               	bcf	3,6	;RP1=0, select bank1
 11931  05FC' 0800'              	movf	(sprintf@fval+1)^(0+128),w
 11932  05FD' 1283               	bcf	3,5	;RP0=0, select bank0
 11933  05FE' 1303               	bcf	3,6	;RP1=0, select bank0
 11934  05FF' 008F'              	movwf	___flmul@b+1
 11935  0600' 1683               	bsf	3,5	;RP0=1, select bank1
 11936  0601' 1303               	bcf	3,6	;RP1=0, select bank1
 11937  0602' 0800'              	movf	sprintf@fval^(0+128),w
 11938  0603' 1283               	bcf	3,5	;RP0=0, select bank0
 11939  0604' 1303               	bcf	3,6	;RP1=0, select bank0
 11940  0605' 008E'              	movwf	___flmul@b
 11941  0606' 120A' 118A' 2000' 120A' 118A' 	fcall	___flmul
 11942  060B' 1283               	bcf	3,5	;RP0=0, select bank0
 11943  060C' 1303               	bcf	3,6	;RP1=0, select bank0
 11944  060D' 0811'              	movf	?___flmul+3,w
 11945  060E' 00BE'              	movwf	___fltol@f1+3
 11946  060F' 0810'              	movf	?___flmul+2,w
 11947  0610' 00BD'              	movwf	___fltol@f1+2
 11948  0611' 080F'              	movf	?___flmul+1,w
 11949  0612' 00BC'              	movwf	___fltol@f1+1
 11950  0613' 080E'              	movf	?___flmul,w
 11951  0614' 00BB'              	movwf	___fltol@f1
 11952  0615' 120A' 118A' 2000' 120A' 118A' 	fcall	___fltol
 11953  061A' 1283               	bcf	3,5	;RP0=0, select bank0
 11954  061B' 1303               	bcf	3,6	;RP1=0, select bank0
 11955  061C' 083E'              	movf	?___fltol+3,w
 11956  061D' 1683               	bsf	3,5	;RP0=1, select bank1
 11957  061E' 1303               	bcf	3,6	;RP1=0, select bank1
 11958  061F' 0080'              	movwf	(sprintf@val+3)^(0+128)
 11959  0620' 1283               	bcf	3,5	;RP0=0, select bank0
 11960  0621' 1303               	bcf	3,6	;RP1=0, select bank0
 11961  0622' 083D'              	movf	?___fltol+2,w
 11962  0623' 1683               	bsf	3,5	;RP0=1, select bank1
 11963  0624' 1303               	bcf	3,6	;RP1=0, select bank1
 11964  0625' 0080'              	movwf	(sprintf@val+2)^(0+128)
 11965  0626' 1283               	bcf	3,5	;RP0=0, select bank0
 11966  0627' 1303               	bcf	3,6	;RP1=0, select bank0
 11967  0628' 083C'              	movf	?___fltol+1,w
 11968  0629' 1683               	bsf	3,5	;RP0=1, select bank1
 11969  062A' 1303               	bcf	3,6	;RP1=0, select bank1
 11970  062B' 0080'              	movwf	(sprintf@val+1)^(0+128)
 11971  062C' 1283               	bcf	3,5	;RP0=0, select bank0
 11972  062D' 1303               	bcf	3,6	;RP1=0, select bank0
 11973  062E' 083B'              	movf	?___fltol,w
 11974  062F' 1683               	bsf	3,5	;RP0=1, select bank1
 11975  0630' 1303               	bcf	3,6	;RP1=0, select bank1
 11976  0631' 0080'              	movwf	sprintf@val^(0+128)
 11977                           
 11978                           ;C:\Program Files\Microchip\xc8\v2.40\pic\sources\c90\common\doprnt.c: 1254:    while(c-
      +                          -) {
 11979  0632' 2800'              	goto	l3649
 11980  0633'                    l3641:
 11981                           
 11982                           ;C:\Program Files\Microchip\xc8\v2.40\pic\sources\c90\common\doprnt.c: 1255:     tmpval.
      +                          vd = val/dpowers[c];
 11983  0633' 0800'              	movf	sprintf@c^(0+128),w
 11984  0634' 0080'              	movwf	??_sprintf^(0+128)
 11985  0635' 3001               	movlw	1
 11986  0636'                    u6405:
 11987  0636' 1003               	clrc
 11988  0637' 0D80'              	rlf	??_sprintf^(0+128),f
 11989  0638' 3EFF               	addlw	-1
 11990  0639' 1D03               	skipz
 11991  063A' 2800'              	goto	u6405
 11992  063B' 1003               	clrc
 11993  063C' 0D00'              	rlf	??_sprintf^(0+128),w
 11994  063D' 3E69               	addlw	low ((_dpowers-__stringbase)| (0+32768))
 11995  063E' 0084               	movwf	4
 11996  063F' 120A' 118A' 2000' 120A' 118A' 	fcall	stringdir
 11997  0644' 0080'              	movwf	___lldiv@divisor
 11998  0645' 120A' 118A' 2000' 120A' 118A' 	fcall	stringdir
 11999  064A' 0081'              	movwf	___lldiv@divisor+1
 12000  064B' 120A' 118A' 2000' 120A' 118A' 	fcall	stringdir
 12001  0650' 0082'              	movwf	___lldiv@divisor+2
 12002  0651' 120A' 118A' 2000' 120A' 118A' 	fcall	stringdir
 12003  0656' 0083'              	movwf	___lldiv@divisor+3
 12004  0657' 0800'              	movf	(sprintf@val+3)^(0+128),w
 12005  0658' 0087'              	movwf	___lldiv@dividend+3
 12006  0659' 0800'              	movf	(sprintf@val+2)^(0+128),w
 12007  065A' 0086'              	movwf	___lldiv@dividend+2
 12008  065B' 0800'              	movf	(sprintf@val+1)^(0+128),w
 12009  065C' 0085'              	movwf	___lldiv@dividend+1
 12010  065D' 0800'              	movf	sprintf@val^(0+128),w
 12011  065E' 0084'              	movwf	___lldiv@dividend
 12012  065F' 120A' 118A' 2000' 120A' 118A' 	fcall	___lldiv
 12013  0664' 0803'              	movf	?___lldiv+3,w
 12014  0665' 1683               	bsf	3,5	;RP0=1, select bank1
 12015  0666' 1303               	bcf	3,6	;RP1=0, select bank1
 12016  0667' 0080'              	movwf	(sprintf@tmpval+3)^(0+128)
 12017  0668' 0802'              	movf	?___lldiv+2,w
 12018  0669' 0080'              	movwf	(sprintf@tmpval+2)^(0+128)
 12019  066A' 0801'              	movf	?___lldiv+1,w
 12020  066B' 0080'              	movwf	(sprintf@tmpval+1)^(0+128)
 12021  066C' 0800'              	movf	?___lldiv,w
 12022  066D' 0080'              	movwf	sprintf@tmpval^(0+128)
 12023  066E'                    l3643:
 12024                           
 12025                           ;C:\Program Files\Microchip\xc8\v2.40\pic\sources\c90\common\doprnt.c: 1256:     tmpval.
      +                          vd %= 10;
 12026  066E' 3000               	movlw	0
 12027  066F' 0083'              	movwf	___llmod@divisor+3
 12028  0670' 3000               	movlw	0
 12029  0671' 0082'              	movwf	___llmod@divisor+2
 12030  0672' 3000               	movlw	0
 12031  0673' 0081'              	movwf	___llmod@divisor+1
 12032  0674' 300A               	movlw	10
 12033  0675' 0080'              	movwf	___llmod@divisor
 12034  0676' 0800'              	movf	(sprintf@tmpval+3)^(0+128),w
 12035  0677' 0087'              	movwf	___llmod@dividend+3
 12036  0678' 0800'              	movf	(sprintf@tmpval+2)^(0+128),w
 12037  0679' 0086'              	movwf	___llmod@dividend+2
 12038  067A' 0800'              	movf	(sprintf@tmpval+1)^(0+128),w
 12039  067B' 0085'              	movwf	___llmod@dividend+1
 12040  067C' 0800'              	movf	sprintf@tmpval^(0+128),w
 12041  067D' 0084'              	movwf	___llmod@dividend
 12042  067E' 120A' 118A' 2000' 120A' 118A' 	fcall	___llmod
 12043  0683' 0803'              	movf	?___llmod+3,w
 12044  0684' 1683               	bsf	3,5	;RP0=1, select bank1
 12045  0685' 1303               	bcf	3,6	;RP1=0, select bank1
 12046  0686' 0080'              	movwf	(sprintf@tmpval+3)^(0+128)
 12047  0687' 0802'              	movf	?___llmod+2,w
 12048  0688' 0080'              	movwf	(sprintf@tmpval+2)^(0+128)
 12049  0689' 0801'              	movf	?___llmod+1,w
 12050  068A' 0080'              	movwf	(sprintf@tmpval+1)^(0+128)
 12051  068B' 0800'              	movf	?___llmod,w
 12052  068C' 0080'              	movwf	sprintf@tmpval^(0+128)
 12053  068D'                    l3645:
 12054                           
 12055                           ;C:\Program Files\Microchip\xc8\v2.40\pic\sources\c90\common\doprnt.c: 1257:     ((*sp++
      +                           = ('0' + tmpval.vd)));
 12056  068D' 0800'              	movf	sprintf@sp^(0+128),w
 12057  068E' 0084               	movwf	4
 12058  068F' 0800'              	movf	sprintf@tmpval^(0+128),w
 12059  0690' 3E30               	addlw	48
 12060  0691' 1783               	bsf	3,7	;select IRP bank2
 12061  0692' 0080               	movwf	0
 12062  0693' 3001               	movlw	1
 12063  0694' 0080'              	movwf	??_sprintf^(0+128)
 12064  0695' 0800'              	movf	??_sprintf^(0+128),w
 12065  0696' 0780'              	addwf	sprintf@sp^(0+128),f
 12066  0697'                    l3647:
 12067                           
 12068                           ;C:\Program Files\Microchip\xc8\v2.40\pic\sources\c90\common\doprnt.c: 1258:     val %= 
      +                          dpowers[c];
 12069  0697' 0800'              	movf	sprintf@c^(0+128),w
 12070  0698' 0080'              	movwf	??_sprintf^(0+128)
 12071  0699' 3001               	movlw	1
 12072  069A'                    u6415:
 12073  069A' 1003               	clrc
 12074  069B' 0D80'              	rlf	??_sprintf^(0+128),f
 12075  069C' 3EFF               	addlw	-1
 12076  069D' 1D03               	skipz
 12077  069E' 2800'              	goto	u6415
 12078  069F' 1003               	clrc
 12079  06A0' 0D00'              	rlf	??_sprintf^(0+128),w
 12080  06A1' 3E69               	addlw	low ((_dpowers-__stringbase)| (0+32768))
 12081  06A2' 0084               	movwf	4
 12082  06A3' 120A' 118A' 2000' 120A' 118A' 	fcall	stringdir
 12083  06A8' 0080'              	movwf	___llmod@divisor
 12084  06A9' 120A' 118A' 2000' 120A' 118A' 	fcall	stringdir
 12085  06AE' 0081'              	movwf	___llmod@divisor+1
 12086  06AF' 120A' 118A' 2000' 120A' 118A' 	fcall	stringdir
 12087  06B4' 0082'              	movwf	___llmod@divisor+2
 12088  06B5' 120A' 118A' 2000' 120A' 118A' 	fcall	stringdir
 12089  06BA' 0083'              	movwf	___llmod@divisor+3
 12090  06BB' 0800'              	movf	(sprintf@val+3)^(0+128),w
 12091  06BC' 0087'              	movwf	___llmod@dividend+3
 12092  06BD' 0800'              	movf	(sprintf@val+2)^(0+128),w
 12093  06BE' 0086'              	movwf	___llmod@dividend+2
 12094  06BF' 0800'              	movf	(sprintf@val+1)^(0+128),w
 12095  06C0' 0085'              	movwf	___llmod@dividend+1
 12096  06C1' 0800'              	movf	sprintf@val^(0+128),w
 12097  06C2' 0084'              	movwf	___llmod@dividend
 12098  06C3' 120A' 118A' 2000' 120A' 118A' 	fcall	___llmod
 12099  06C8' 0803'              	movf	?___llmod+3,w
 12100  06C9' 1683               	bsf	3,5	;RP0=1, select bank1
 12101  06CA' 1303               	bcf	3,6	;RP1=0, select bank1
 12102  06CB' 0080'              	movwf	(sprintf@val+3)^(0+128)
 12103  06CC' 0802'              	movf	?___llmod+2,w
 12104  06CD' 0080'              	movwf	(sprintf@val+2)^(0+128)
 12105  06CE' 0801'              	movf	?___llmod+1,w
 12106  06CF' 0080'              	movwf	(sprintf@val+1)^(0+128)
 12107  06D0' 0800'              	movf	?___llmod,w
 12108  06D1' 0080'              	movwf	sprintf@val^(0+128)
 12109  06D2'                    l3649:
 12110                           
 12111                           ;C:\Program Files\Microchip\xc8\v2.40\pic\sources\c90\common\doprnt.c: 1254:    while(c-
      +                          -) {
 12112  06D2' 3001               	movlw	1
 12113  06D3' 0280'              	subwf	sprintf@c^(0+128),f
 12114  06D4' 0A00'              	incf	sprintf@c^(0+128),w
 12115  06D5' 1D03               	btfss	3,2
 12116  06D6' 2800'              	goto	u6421
 12117  06D7' 2800'              	goto	u6420
 12118  06D8'                    u6421:
 12119  06D8' 2800'              	goto	l3641
 12120  06D9'                    u6420:
 12121  06D9' 2800'              	goto	l3657
 12122  06DA'                    l3651:
 12123                           
 12124                           ;C:\Program Files\Microchip\xc8\v2.40\pic\sources\c90\common\doprnt.c: 1262:     ((*sp++
      +                           = ('0')));
 12125  06DA' 0800'              	movf	sprintf@sp^(0+128),w
 12126  06DB' 0084               	movwf	4
 12127  06DC' 3030               	movlw	48
 12128  06DD' 1783               	bsf	3,7	;select IRP bank2
 12129  06DE' 0080               	movwf	0
 12130  06DF'                    l3653:
 12131  06DF' 3001               	movlw	1
 12132  06E0' 0080'              	movwf	??_sprintf^(0+128)
 12133  06E1' 0800'              	movf	??_sprintf^(0+128),w
 12134  06E2' 0780'              	addwf	sprintf@sp^(0+128),f
 12135  06E3'                    l3655:
 12136                           
 12137                           ;C:\Program Files\Microchip\xc8\v2.40\pic\sources\c90\common\doprnt.c: 1263:     prec--;
 12138  06E3' 30FF               	movlw	255
 12139  06E4' 0780'              	addwf	sprintf@prec^(0+128),f
 12140  06E5' 1803               	skipnc
 12141  06E6' 0A80'              	incf	(sprintf@prec+1)^(0+128),f
 12142  06E7' 30FF               	movlw	255
 12143  06E8' 0780'              	addwf	(sprintf@prec+1)^(0+128),f
 12144  06E9'                    l3657:
 12145                           
 12146                           ;C:\Program Files\Microchip\xc8\v2.40\pic\sources\c90\common\doprnt.c: 1261:    while(pr
      +                          ec) {
 12147  06E9' 0800'              	movf	sprintf@prec^(0+128),w
 12148  06EA' 0400'              	iorwf	(sprintf@prec+1)^(0+128),w
 12149  06EB' 1D03               	btfss	3,2
 12150  06EC' 2800'              	goto	u6431
 12151  06ED' 2800'              	goto	u6430
 12152  06EE'                    u6431:
 12153  06EE' 2800'              	goto	l3651
 12154  06EF'                    u6430:
 12155  06EF' 2800'              	goto	l3665
 12156  06F0'                    l3659:
 12157                           
 12158                           ;C:\Program Files\Microchip\xc8\v2.40\pic\sources\c90\common\doprnt.c: 1448:   {;C:\Prog
      +                          ram Files\Microchip\xc8\v2.40\pic\sources\c90\common\doprnt.c: 1464:    if(flag & 0x03)
 12159  06F0' 3003               	movlw	3
 12160  06F1' 0500'              	andwf	sprintf@flag^(0+128),w
 12161  06F2' 0080'              	movwf	??_sprintf^(0+128)
 12162  06F3' 3000               	movlw	0
 12163  06F4' 0500'              	andwf	(sprintf@flag+1)^(0+128),w
 12164  06F5' 0080'              	movwf	(??_sprintf+1)^(0+128)
 12165  06F6' 0800'              	movf	??_sprintf^(0+128),w
 12166  06F7' 0401'              	iorwf	(??_sprintf^(0+128)+1),w
 12167  06F8' 1903               	btfsc	3,2
 12168  06F9' 2800'              	goto	u6441
 12169  06FA' 2800'              	goto	u6440
 12170  06FB'                    u6441:
 12171  06FB' 2800'              	goto	l3665
 12172  06FC'                    u6440:
 12173  06FC'                    l3661:
 12174                           
 12175                           ;C:\Program Files\Microchip\xc8\v2.40\pic\sources\c90\common\doprnt.c: 1465:     ((*sp++
      +                           = ('-')));
 12176  06FC' 0800'              	movf	sprintf@sp^(0+128),w
 12177  06FD' 0084               	movwf	4
 12178  06FE' 302D               	movlw	45
 12179  06FF' 1783               	bsf	3,7	;select IRP bank2
 12180  0700' 0080               	movwf	0
 12181  0701' 2800'              	goto	L4
 12182  0702'                    l3665:
 12183                           
 12184                           ;C:\Program Files\Microchip\xc8\v2.40\pic\sources\c90\common\doprnt.c: 553:  while((c = 
      +                          *f++)) {
 12185  0702' 3001               	movlw	1
 12186  0703' 0780'              	addwf	sprintf@f^(0+128),f
 12187  0704' 30FF               	movlw	-1
 12188  0705' 0700'              	addwf	sprintf@f^(0+128),w
 12189  0706' 0084               	movwf	4
 12190  0707' 120A' 118A' 2000' 120A' 118A' 	fcall	stringdir
 12191  070C' 0080'              	movwf	sprintf@c^(0+128)
 12192  070D' 0800'              	movf	sprintf@c^(0+128),w
 12193  070E' 1D03               	btfss	3,2
 12194  070F' 2800'              	goto	u6451
 12195  0710' 2800'              	goto	u6450
 12196  0711'                    u6451:
 12197  0711' 120A' 118A' 2800'  	goto	l3365
 12198  0714'                    u6450:
 12199  0714'                    l3667:
 12200                           
 12201                           ;C:\Program Files\Microchip\xc8\v2.40\pic\sources\c90\common\doprnt.c: 1564:  *sp = 0;
 12202  0714' 0800'              	movf	sprintf@sp^(0+128),w
 12203  0715' 0084               	movwf	4
 12204  0716' 1783               	bsf	3,7	;select IRP bank2
 12205  0717' 0180               	clrf	0
 12206  0718'                    l293:
 12207  0718' 0008               	return
 12208  0719'                    __end_of_sprintf:

Data Sizes:
    Strings     16
    Constant    144
    Data        0
    BSS         8
    Persistent  0
    Stack       0

Auto Spaces:
    Space          Size  Autos    Used
    COMMON           14     14      14
    BANK0            80     80      80
    BANK1            80     63      63
    BANK3            96     20      28
    BANK2            96      0       0

Pointer List with Targets:

    sprintf@f	PTR const unsigned char  size(1) Largest target is 14
		 -> STR_1(CODE[14]), 

    sprintf@sp	PTR unsigned char  size(1) Largest target is 20
		 -> main@s(BANK3[20]), 

    sprintf@ap	PTR void [1] size(1) Largest target is 2
		 -> ?_sprintf(BANK1[2]), 

    Lcd_Write_String@a	PTR unsigned char  size(2) Largest target is 20
		 -> STR_2(CODE[2]), main@s(BANK3[20]), 


Critical Paths under _main in COMMON

    _main->___lwdiv
    _sprintf->___lldiv
    _sprintf->___lwdiv
    ___awdiv->___awmod
    _fround->___lwdiv
    ___lwdiv->___lwmod
    ___flmul->___lwdiv
    ___xxtofl->___lwdiv
    _Lcd_Write_String->_Lcd_Write_Char
    _Lcd_Write_Char->_Lcd_Port
    _Lcd_Set_Cursor->_Lcd_Cmd
    _Lcd_Init->_Lcd_Cmd
    _Lcd_Cmd->_Lcd_Port

Critical Paths under _main in BANK0

    _sprintf->___fladd
    _scale->___flmul
    _fround->___flmul
    ___flmul->___xxtofl
    ___fltol->_scale
    ___flsub->___fladd
    ___fladd->_fround
    ___fldiv->_scale

Critical Paths under _main in BANK1

    _main->_sprintf
    _sprintf->___flge
    ___flge->___flsub

Critical Paths under _main in BANK3

    None.

Critical Paths under _main in BANK2

    None.

Call Graph Tables:

 ---------------------------------------------------------------------------------
 (Depth) Function   	        Calls       Base Space   Used Autos Params    Refs
 ---------------------------------------------------------------------------------
 (0) _main                                                24    24      0   50281
                                             59 BANK1      4     4      0
                                              0 BANK3     20    20      0
                           _ADC_init
                           _Lcd_Init
                     _Lcd_Set_Cursor
                     _Lcd_Write_Char
                   _Lcd_Write_String
                            _ReadADC
                             ___flge
                            ___flmul
                            ___fltol
                            ___lwdiv
                           ___xxtofl
                            _sprintf
 ---------------------------------------------------------------------------------
 (1) _sprintf                                             46    41      5   40061
                                             20 BANK1     39    34      5
                            ___awdiv
                            ___fladd
                            ___fldiv
                             ___fleq
                             ___flge
                            ___flmul
                            ___flneg
                            ___flsub
                            ___fltol
                            ___lldiv
                            ___llmod
                            ___lwdiv
                            ___lwmod
                             ___wmul
                           ___xxtofl
                         __div_to_l_
                        __tdiv_to_l_
                             _fround
                              _scale
 ---------------------------------------------------------------------------------
 (2) _scale                                               19    15      4    8016
                                             40 BANK0     19    15      4
                            ___awdiv
                            ___awmod
                            ___flmul
 ---------------------------------------------------------------------------------
 (3) ___awmod                                              7     3      4    1208
                                              0 COMMON     7     3      4
 ---------------------------------------------------------------------------------
 (3) ___awdiv                                              9     5      4    1364
                                              7 COMMON     5     1      4
                                              0 BANK0      4     4      0
                            ___awmod (ARG)
 ---------------------------------------------------------------------------------
 (2) _fround                                              20    16      4    6935
                                             40 BANK0     20    16      4
                            ___flmul
                            ___lwdiv
                            ___lwmod
 ---------------------------------------------------------------------------------
 (3) ___lwmod                                              6     2      4     767
                                              0 COMMON     6     2      4
 ---------------------------------------------------------------------------------
 (3) ___lwdiv                                              8     4      4     922
                                              6 COMMON     8     4      4
                            ___lwmod (ARG)
 ---------------------------------------------------------------------------------
 (3) ___flmul                                             26    18      8    5001
                                             14 BANK0     26    18      8
                          __Umul8_16
                            ___awdiv (ARG)
                            ___awmod (ARG)
                            ___lwdiv (ARG)
                            ___lwmod (ARG)
                           ___xxtofl (ARG)
 ---------------------------------------------------------------------------------
 (4) __Umul8_16                                            9     7      2     799
                                              0 COMMON     9     7      2
 ---------------------------------------------------------------------------------
 (2) __tdiv_to_l_                                         17     9      8     455
                                              0 COMMON    11     3      8
                                              0 BANK0      6     6      0
 ---------------------------------------------------------------------------------
 (2) __div_to_l_                                          15     7      8     455
                                              0 COMMON     9     1      8
                                              0 BANK0      6     6      0
 ---------------------------------------------------------------------------------
 (2) ___xxtofl                                            14    10      4     702
                                              0 BANK0     14    10      4
                            ___lwdiv (ARG)
 ---------------------------------------------------------------------------------
 (2) ___wmul                                               6     2      4     244
                                              0 COMMON     6     2      4
 ---------------------------------------------------------------------------------
 (2) ___llmod                                             10     2      8    1071
                                              0 COMMON    10     2      8
 ---------------------------------------------------------------------------------
 (2) ___lldiv                                             14     6      8     922
                                              0 COMMON    14     6      8
 ---------------------------------------------------------------------------------
 (2) ___fltol                                             10     6      4     989
                                             59 BANK0     10     6      4
                            ___flmul (ARG)
                           ___xxtofl (ARG)
                              _scale (ARG)
 ---------------------------------------------------------------------------------
 (2) ___flsub                                              8     0      8    3093
                                              0 BANK1      8     0      8
                            ___fladd
                            ___flmul (ARG)
                            ___fltol (ARG)
                           ___xxtofl (ARG)
 ---------------------------------------------------------------------------------
 (3) ___fladd                                             20    12      8    2592
                                             60 BANK0     20    12      8
                            ___flmul (ARG)
                             _fround (ARG)
 ---------------------------------------------------------------------------------
 (2) ___flneg                                              4     0      4     121
                                              0 COMMON     4     0      4
 ---------------------------------------------------------------------------------
 (2) ___flge                                              12     4      8    1246
                                              8 BANK1     12     4      8
                            ___flsub (ARG)
                            ___fltol (ARG)
                           ___xxtofl (ARG)
 ---------------------------------------------------------------------------------
 (2) ___fleq                                              12     4      8     546
                                              0 COMMON    12     4      8
 ---------------------------------------------------------------------------------
 (2) ___fldiv                                             26    18      8    1273
                                             59 BANK0     13     5      8
                                              0 BANK1     13    13      0
                              _scale (ARG)
 ---------------------------------------------------------------------------------
 (1) _ReadADC                                              4     2      2      24
                                              0 COMMON     4     2      2
 ---------------------------------------------------------------------------------
 (1) _Lcd_Write_String                                     7     5      2     420
                                              5 COMMON     7     5      2
                     _Lcd_Write_Char
 ---------------------------------------------------------------------------------
 (2) _Lcd_Write_Char                                       4     4      0     178
                                              1 COMMON     4     4      0
                           _Lcd_Port
 ---------------------------------------------------------------------------------
 (1) _Lcd_Set_Cursor                                       6     5      1     456
                                              4 COMMON     6     5      1
                            _Lcd_Cmd
 ---------------------------------------------------------------------------------
 (1) _Lcd_Init                                             2     2      0     198
                                              4 COMMON     2     2      0
                            _Lcd_Cmd
                           _Lcd_Port
 ---------------------------------------------------------------------------------
 (2) _Lcd_Cmd                                              3     3      0     110
                                              1 COMMON     3     3      0
                           _Lcd_Port
 ---------------------------------------------------------------------------------
 (3) _Lcd_Port                                             1     1      0      88
                                              0 COMMON     1     1      0
 ---------------------------------------------------------------------------------
 (1) _ADC_init                                             0     0      0       0
 ---------------------------------------------------------------------------------
 Estimated maximum stack depth 4
 ---------------------------------------------------------------------------------

 Call Graph Graphs:

 _main (ROOT)
   _ADC_init
   _Lcd_Init
     _Lcd_Cmd
       _Lcd_Port
     _Lcd_Port
   _Lcd_Set_Cursor
     _Lcd_Cmd
   _Lcd_Write_Char
     _Lcd_Port
   _Lcd_Write_String
     _Lcd_Write_Char
   _ReadADC
   ___flge
     ___flsub (ARG)
       ___fladd
         ___flmul (ARG)
           __Umul8_16
           ___awdiv (ARG)
             ___awmod (ARG)
           ___awmod (ARG)
           ___lwdiv (ARG)
             ___lwmod (ARG)
           ___lwmod (ARG)
           ___xxtofl (ARG)
             ___lwdiv (ARG)
         _fround (ARG)
           ___flmul
           ___lwdiv
           ___lwmod
       ___flmul (ARG)
       ___fltol (ARG)
         ___flmul (ARG)
         ___xxtofl (ARG)
         _scale (ARG)
           ___awdiv
           ___awmod
           ___flmul
       ___xxtofl (ARG)
     ___fltol (ARG)
     ___xxtofl (ARG)
   ___flmul
   ___fltol
   ___lwdiv
   ___xxtofl
   _sprintf
     ___awdiv
     ___fladd
     ___fldiv
       _scale (ARG)
     ___fleq
     ___flge
     ___flmul
     ___flneg
     ___flsub
     ___fltol
     ___lldiv
     ___llmod
     ___lwdiv
     ___lwmod
     ___wmul
     ___xxtofl
     __div_to_l_
     __tdiv_to_l_
     _fround
     _scale

 Address spaces:
Name               Size   Autos  Total    Cost      Usage
BITCOMMON            E      0       0       0        0.0%
EEDATA             100      0       0       0        0.0%
NULL                 0      0       0       0        0.0%
CODE                 0      0       0       0        0.0%
COMMON               E      E       E       1      100.0%
BITSFR0              0      0       0       1        0.0%
SFR0                 0      0       0       1        0.0%
BITSFR1              0      0       0       2        0.0%
SFR1                 0      0       0       2        0.0%
STACK                0      0       0       2        0.0%
ABS                  0      0      B9       3        0.0%
BITBANK0            50      0       0       4        0.0%
BITSFR3              0      0       0       4        0.0%
SFR3                 0      0       0       4        0.0%
BANK0               50     50      50       5      100.0%
BITSFR2              0      0       0       5        0.0%
SFR2                 0      0       0       5        0.0%
BITBANK1            50      0       0       6        0.0%
BANK1               50     3F      3F       7       78.8%
BITBANK3            60      0       0       8        0.0%
BANK3               60     14      1C       9       29.2%
BITBANK2            60      0       0      10        0.0%
BANK2               60      0       0      11        0.0%
DATA                 0      0      B9      12        0.0%


Microchip Technology PIC Macro Assembler V2.40 build 20220703182018 
Symbol Table                                                                                   Wed May 10 22:40:49 2023

            ___fldiv@aexp 000C              ___fldiv@bexp 000B                         _f 0000  
                       pc 0002              ___fldiv@sign 0004                        l40 0013  
                      l41 0019                        l42 001A                        l43 0020  
                      l60 005D                        l45 0021                        l37 0009  
                      l38 000C                        l39 0012                        l63 0034  
                      l48 0019                        l57 0045                        l81 0003  
                      l90 0147                        l84 0011                        l69 0041  
                      l78 0014              ___awdiv@sign 0001                        fsr 0004  
     ___wmul@multiplicand 0002       __Umul8_16@word_mpld 0006                       l201 035E  
                     l230 0031                       l215 001D                       l240 008C  
                     l241 0000                       l227 00F8                       l500 0077  
                     l333 0065                       l510 0077                       l254 01E2  
                     l514 00B6                       l194 020A                       l450 0068  
                     l507 0062                       l515 002A                       l603 0043  
                     l283 05A3                       l276 0565                       l525 00A9  
                     l613 0039                       l293 0718                       l702 026D  
                     l630 00B7                       l518 0079                       l471 007A  
                     l463 0058                       l704 027F                       l624 005B  
                     l720 0344                       l553 0053                       l297 000C  
                     l483 001C                       l491 008A                       l299 0024  
                     l467 00B7                       l484 0038                       l492 00A3  
                     l628 00DE                       l468 001E                       l732 0338  
                     l485 004D                       l645 01A7                       l637 0257  
                     l741 0026                       l670 004F                       l478 00AA  
                     l726 02B4                       l655 01ED                       l680 0078  
                     l488 001E                       l496 000A                       l649 01CB  
                     l682 0291                       l666 024D                       l658 022B  
                     l770 0067                       l667 0257                       l739 0014  
                     l764 0024                       l766 00B9                       l696 01ED  
                     l777 0083                       l778 008F                       _RA0 0028  
                     _RD2 0042                       _RD3 0043                       _RD4 0044  
                     _RD5 0045                       _RD6 0046                       _RD7 0047  
                     fsr0 0004                       indf 0000              ___awmod@sign 0006  
            ___flmul@aexp 0020              ___flmul@bexp 0021               _sprintf$897 001E  
            ___flmul@sign 001B              ___flmul@temp 0026              ___flmul@prod 0022  
            ___fltol@exp1 0044                      l3011 0024                      l3003 0000  
                    l3101 006C                      l3021 0057                      l3013 002D  
                    l3005 0010                      l3031 0030                      l3015 003F  
                    l3007 0013                      l3023 005D                      l3111 001C  
                    l3103 0000                      l2311 0003                      l3201 0121  
                    l3033 004A                      l3041 0016                      l3017 004D  
                    l3009 0020                      l3113 002E                      l3105 0008  
                    l2313 000A                      l2401 0037                      l2331 001E  
                    l2323 0001                      l3203 012F                      l3211 0181  
                    l3131 0007                      l3035 004C                      l3027 0000  
                    l3051 0066                      l3043 0032                      l3123 0000  
                    l3019 004E                      l3115 003C                      l3107 000B  
                    l2315 000E                      l2411 0054                      l2403 003D  
                    l2325 0005                      l3221 01A0                      l3213 0187  
                    l3205 0150                      l3141 0024                      l3133 000F  
                    l3029 0014                      l3053 00A0                      l3045 003A  
                    l3061 0008                      l2501 0050                      l3125 0004  
                    l3117 0045                      l3109 0018                      l3301 0087  
                    l2317 001D                      l2309 0001                      l2421 000B  
                    l2341 000E                      l2333 0000                      l2405 0044  
                    l2327 0010                      l3231 01C2                      l3223 01A3  
                    l3215 018F                      l3207 0151                      l3151 0043  
                    l3143 002E                      l3135 0015                      l3055 00A2  
                    l3047 003E                      l3039 0000                      l3063 000A  
                    l2511 0069                      l2503 0051                      l3119 004B  
                    l3311 00B1                      l3303 0091                      l2319 0022  
                    l2431 0031                      l2423 0012                      l2415 0000  
                    l2351 0023                      l2343 0012                      l2335 0003  
                    l2407 004A                      l2329 0017                      l3321 0016  
                    l3241 01F9                      l3233 01C6                      l3225 01B1  
                    l3217 0191                      l3209 0179                      l3161 0060  
                    l3153 004B                      l3145 0030                      l3137 0018  
                    l3129 0000                      l3049 0062                      l2521 0073  
                    l2513 006B                      l2505 0053                      l3081 0032  
                    l3073 0014                      l3305 00A7                      l2433 0032  
                    l2425 0016                      l2417 0002                      l2441 0000  
                    l2361 0046                      l2353 0026                      l2345 0017  
                    l2337 0007                      l2409 004F                      l3401 00D4  
                    l3331 0039                      l3323 001C                      l3315 0001  
                    l3251 023D                      l3243 0209                      l3235 01E8  
                    l3219 019A                      l3227 01B9                      l3171 008C  
                    l3163 006A                      l3155 0051                      l3139 001F  
                    l3147 0032                      l3059 0000                      l2611 01D2  
                    l2603 01BD                      l2531 007D                      l2523 0075  
                    l2515 006D                      l2507 0061                      l3083 0036  
                    l3091 0050                      l3075 0027                      l3067 0000  
                    l3307 00AC                      l2435 0039                      l2427 001A  
                    l2419 0008                      l2451 0018                      l2443 0006  
                    l2371 005F                      l2363 004C                      l2355 002D  
                    l2347 001B                      l2339 000C                      l3411 015B  
                    l3403 00E7                      l3341 001E                      l3333 003F  
                    l3317 0006                      l3325 0023                      l3261 0271  
                    l3253 024D                      l3245 020D                      l3229 01BF  
                    l3173 0094                      l3165 006C                      l3157 0054  
                    l3149 003C                      l2621 01E0                      l2613 01D4  
                    l2605 01C6                      l2533 007F                      l2525 0077  
                    l2517 006F                      l2509 0065                      l2541 0087  
                    l3077 0028                      l3069 000B                      l3309 00B0  
                    l2701 0067                      l2429 002B                      l2437 003F  
                    l2453 0022                      l2445 0009                      l2373 0064  
                    l2365 004D                      l2357 0031                      l2349 001D  
                    l2381 0005                      l3501 00A9                      l3421 0000  
                    l3413 0174                      l3405 00EB                      l3343 0024  
                    l3335 0000                      l3327 0029                      l3319 0013  
                    l3351 0025                      l3263 0275                      l3255 025C  
                    l3247 0226                      l3239 01F2                      l3191 00F9  
                    l3183 00AF                      l3159 005B                      l3167 006E  
                    l2631 01F7                      l2623 01E4                      l2615 01D9  
                    l2607 01CA                      l2551 00C4                      l2543 0088  
                    l2535 0081                      l2527 0079                      l2519 0071  
                    l2471 000E                      l2463 0000                      l3079 0030  
                    l3271 0003                      l2711 00E3                      l2703 0075  
                    l2455 0028                      l2447 0010                      l2367 0054  
                    l2359 0035                      l2391 001B                      l2383 000A  
                    l3511 00BF                      l3503 00AE                      l3431 0025  
                    l3423 0001                      l3415 017D                      l3407 00F1  
                    l3353 0000                      l2801 000A                      l3337 0006  
                    l3329 0036                      l3345 0000                      l3265 0279  
                    l3257 0260                      l3249 022E                      l3193 00FB  
                    l3185 00CD                      l3169 0080                      l3177 009D  
                    l2641 0235                      l2633 0205                      l2625 01EA  
                    l2609 01CF                      l2617 01DB                      l2561 00E2  
                    l2553 00C8                      l2545 009F                      l2537 0083  
                    l2529 007B                      l2473 0013                      l2481 0023  
                    l2465 0005                      l3097 0057                      l3089 003E  
                    l3273 0008                      l2721 014F                      l2713 00FF  
                    l2705 0082                      l2457 002F                      l2449 0014  
                    l2369 005A                      l2393 001E                      l2385 000C  
                    l2377 0000                      l3521 00E2                      l3513 00C4  
                    l3505 00B2                      l3441 003F                      l3433 0025  
                    l3425 0001                      l3417 0198                      l3409 0110  
                    l2803 000D                      l3339 000F                      l2811 000A  
                    l3347 0003                      l3355 0000                      l3259 026A  
                    l3195 0100                      l3187 00E5                      l3179 00A4  
                    l2651 0249                      l2643 023D                      l2635 0209  
                    l2571 010B                      l2619 01DF                      l2563 00E7  
                    l2555 00C9                      l2547 00BB                      l2539 0085  
                    l2491 0039                      l2483 002B                      l2475 0018  
                    l2467 0009                      l3099 0067                      l3291 0050  
                    l3283 0035                      l3275 000C                      l2731 01D9  
                    l2723 015D                      l2715 011B                      l2707 009D  
                    l2459 0035                      l2395 0025                      l2387 0010  
                    l2379 0001                      l3611 0501                      l3603 04E1  
                    l3531 0143                      l3507 00B6                      l3451 01AD  
                    l3443 0058                      l3435 002B                      l3427 0009  
                    l3419 01A0                      l3371 001A                      l3363 0003  
                    l2805 0016                      l2821 0029                      l2813 0018  
                    l3349 001F                      l3357 0000                      l3197 0118  
                    l3189 00EF                      l2653 0252                      l2645 0242  
                    l2637 0227                      l2629 01F2                      l2581 011D  
                    l2573 010F                      l2557 00D2                      l2549 00C2  
                    l2493 003D                      l2485 002E                      l2477 0020  
                    l2469 000D                      l3293 005E                      l3285 0038  
                    l3277 001C                      l2901 0040                      l2741 0269  
                    l2733 01E7                      l2725 017A                      l2717 0124  
                    l2709 00B9                      l2661 0009                      l2397 0029  
                    l2389 0015                      l3621 0578                      l3613 053C  
                    l3605 04EB                      l3541 017B                      l3525 00FE  
                    l3517 00C9                      l3509 00BB                      l3453 01EA  
                    l3445 00A0                      l3461 0297                      l3437 003A  
                    l3429 0016                      l3381 004B                      l3365 0008  
                    l3701 00CF                      l2823 002C                      l2815 001B  
                    l2807 0001                      l3359 0007                      l3199 011E  
                    l2655 0256                      l2647 0243                      l2639 0230  
                    l2591 0185                      l2583 0126                      l2575 0116  
                    l2567 00F0                      l2559 00D6                      l2495 003E  
                    l2487 0034                      l2479 0021                      l3295 006E  
                    l3287 0045                      l3279 002C                      l2911 006A  
                    l2903 0042                      l2751 028E                      l2743 0277  
                    l2735 0212                      l2727 0191                      l2719 0132  
                    l2671 0020                      l2663 000D                      l2399 002D  
                    l3631 05AC                      l3623 057E                      l3615 055B  
                    l3607 04F7                      l3551 0290                      l3543 0185  
                    l3527 0102                      l3519 00DC                      l3471 031C  
                    l3463 02A5                      l3455 01F1                      l3447 010B  
                    l3439 003D                      l3391 0093                      l3383 0059  
                    l3375 001F                      l3367 000E                      l3711 0118  
                    l3703 00D7                      l2825 0031                      l2817 0020  
                    l2809 0007                      l2649 0247                      l2593 018A  
                    l2577 0118                      l2569 0107                      l2585 012B  
                    l2497 0043                      l2489 0035                      l3297 0079  
                    l3289 004C                      l2913 006B                      l2905 0049  
                    l2761 02B1                      l2745 0280                      l2753 0294  
                    l2737 0238                      l2729 01AE                      l2681 0037  
                    l2673 0022                      l2665 000E                      l2657 0000  
                    l2841 01C7                      l3641 0633                      l3633 05B1  
                    l3625 058B                      l3617 056D                      l3609 04FC  
                    l3553 02C4                      l3545 018E                      l3537 0144  
                    l3529 0110                      l3561 030F                      l3481 036C  
                    l3473 0320                      l3465 02AA                      l3457 0254  
                    l3449 014A                      l3393 0097                      l3385 005D  
                    l3377 0039                      l3369 0013                      l3713 0143  
                    l3705 00E0                      l2819 0023                      l2587 0141  
                    l2595 0199                      l2579 011C                      l2499 0048  
                    l3299 007D                      l2931 009E                      l2923 0085  
                    l2915 0073                      l2907 0052                      l2771 02D0  
                    l2755 0298                      l2747 0284                      l2739 0260  
                    l2691 004C                      l2683 0038                      l2675 002A  
                    l2667 0013                      l2659 0005                      l2835 0116  
                    l2827 0003                      l2851 0010                      l3651 06DA  
                    l3643 066E                      l3635 05B6                      l3627 059A  
                    l3619 0574                      l3571 03A5                      l3563 030F  
                    l3555 02E5                      l3547 019B                      l3491 0051  
                    l3483 0004                      l3475 035B                      l3467 02AE  
                    l3459 0291                      l3395 00B0                      l3387 0076  
                    l3379 0047                      l3707 00E6                      l2597 01AF  
                    l2589 017F                      l2933 00AE                      l2917 007D  
                    l2925 0097                      l2909 0060                      l2781 0316  
                    l2773 02E9                      l2765 02B9                      l2757 0299  
                    l2749 0285                      l2693 0054                      l2685 003D  
                    l2677 002F                      l2669 0018                      l2837 011C  
                    l2829 0009                      l2845 0003                      l3661 06FC  
                    l3653 06DF                      l3645 068D                      l3637 05BA  
                    l3629 059F                      l3581 03FE                      l3573 03B4  
                    l3565 0354                      l3557 02EB                      l3549 0202  
                    l3493 0094                      l3485 000C                      l3477 0363  
                    l3469 02E1                      l3397 00BB                      l3389 008F  
                    l3709 00EF                      l2599 01B4                      l2951 0027  
                    l2943 0014                      l2791 0333                      l2783 0320  
                    l2767 02BE                      l2775 02EF                      l2759 029D  
                    l2695 0059                      l2687 0042                      l2679 0033  
                    l2863 0187                      l2847 0007                      l3655 06E3  
                    l3647 0697                      l3639 05D8                      l3591 04A6  
                    l3575 03CF                      l3567 0363                      l3559 02F1  
                    l3495 0099                      l3487 0012                      l3479 0368  
                    l3399 00C1                      l2961 005C                      l2953 0038  
                    l2937 0000                      l2793 033C                      l2785 0322  
                    l2777 02FC                      l2769 02CC                      l2697 005E  
                    l2689 004A                      l2881 0332                      l2857 00F8  
                    l2849 0009                      l3657 06E9                      l3649 06D2  
                    l3593 04A8                      l3585 041D                      l3577 03D8  
                    l3569 037E                      l3497 009D                      l3489 004D  
                    l3745 0031                      l3665 0702                      l3681 0005  
                    l2963 006A                      l2955 003A                      l2939 000B  
                    l2891 001A                      l2787 032E                      l2779 0307  
                    l2875 02A3                      l2859 00FF                      l2867 01B4  
                    l3579 03E0                      l3587 0426                      l3499 00A3  
                    l3659 06F0                      l3667 0714                      l3691 0014  
                    l3683 000A                      l2797 0001                      l2965 006B  
                    l2957 0041                      l2949 001F                      l2885 0000  
                    l2789 0332                      l2877 02AA                      l2869 01BB  
                    l3589 045B                      l3693 0015                      l3685 000D  
                    l2799 0004                      l2991 0002                      l2983 009F  
                    l2975 0086                      l2967 0074                      l2959 004A  
                    l2887 0011                      l3599 04AA                      l3695 0020  
                    l3687 0010                      l3679 0000                      l2993 0006  
                    l2985 00AF                      l2969 007E                      l2977 0098  
                    l2897 002B                      l3697 0064                      l3689 0013  
                    l2995 0013                      l2899 0031                      l3699 00AD  
                    l2997 001A                      l2989 0000                      l2999 0020  
                    STR_1 00A0                      STR_2 00AE                      u4000 01F7  
                    u4001 01F6                      u4010 0209                      u4011 0208  
                    u3300 001E                      u4020 0218                      u4100 0013  
                    u3301 001D                      u4101 0012                      u4030 0227  
                    u4110 0018                      u3310 0007                      u4031 0226  
                    u4111 0017                      u3311 0006                      u4040 0230  
                    u3240 000E                      u4120 0037                      u3400 005F  
                    u3320 0012                      u4041 022F                      u4025 0213  
                    u3241 000D                      u4201 010D                      u4121 0036  
                    u3401 005E                      u3321 0011                      u4050 0235  
                    u5010 0020                      u4202 0114                      u4130 003D  
                    u3330 0023                      u3410 0005                      u4051 0234  
                    u5011 001F                      u4203 011B                      u4131 003C  
                    u3331 0022                      u3411 0004                      u5100 0030  
                    u4060 0242                      u5020 0010                      u3260 0022  
                    u4300 0246                      u4140 0042                      u3500 0008  
                    u3420 0010                      u5101 002F                      u4061 0241  
                    u5021 000F                      u5005 0014                      u3261 0021  
                    u4221 0141                      u4141 0041                      u3501 0007  
                    u3421 000F                      u3270 0005                      u5110 004A  
                    u4070 0247                      u4222 0148                      u4150 0059  
                    u3350 0035                      u3430 001B                      u3271 0004  
                    u5111 0049                      u4071 0246                      u3255 0015  
                    u4311 0252                      u4231 016C                      u4223 014F  
                    u4215 011D                      u4151 0058                      u3351 0034  
                    u3431 001A                      u3280 0010                      u5120 0016  
                    u4080 0256                      u5200 000B                      u5040 0024  
                    u4400 02BE                      u4312 0259                      u4232 0173  
                    u4160 005E                      u3520 001A                      u3600 0022  
                    u6000 003A                      u3281 000F                      u5121 0015  
                    u4081 0255                      u5201 000A                      u5041 0023  
                    u4401 02BD                      u4313 0260                      u4305 0241  
                    u4233 017A                      u4161 005D                      u3521 0019  
                    u3601 0021                      u3345 0027                      u6001 0039  
                    u3290 0017                      u5130 0032                      u5210 0022  
                    u4410 02D0                      u4090 000D                      u3370 0046  
                    u3450 002D                      u6010 0058                      u3291 0016  
                    u5115 0046                      u5131 0031                      u5035 0015  
                    u4411 02CF                      u4251 01A0                      u4171 00AB  
                    u4091 000C                      u3515 000C                      u3371 0045  
                    u3451 002C                      u6011 0057                      u5140 003E  
                    u3700 0061                      u5220 0036                      u5060 003F  
                    u5300 0008                      u4420 02DF                      u4340 0284  
                    u4252 01A7                      u4172 00B2                      u3540 002B  
                    u3620 0035                      u3460 0037                      u6100 0363  
                    u6020 010B                      u5141 003D                      u3701 0060  
                    u5221 0035                      u5061 003E                      u5301 0007  
                    u4341 0283                      u4325 0262                      u4261 01CB  
                    u4253 01AE                      u4245 017C                      u4181 00C7  
                    u4173 00B9                      u3541 002A                      u3621 0034  
                    u3605 001E                      u3365 0036                      u3461 0036  
                    u3445 001F                      u6101 0360                      u6021 010A  
                    u3710 0065                      u3630 000D                      u5230 003D  
                    u4430 02FC                      u4262 01D2                      u4182 00CE  
                    u4510 011C                      u3390 005A                      u6110 0004  
                    u5151 004D                      u3711 0064                      u3631 000C  
                    u5231 003C                      u5215 001D                      u5055 0026  
                    u4431 02FB                      u4335 0279                      u4271 01F6  
                    u4263 01D9                      u4191 00F1                      u4183 00D5  
                    u3535 001B                      u3615 0029                      u4511 011B  
                    u3391 0059                      u3375 0042                      u6111 0003  
                    u5400 005B                      u5160 0066                      u5152 004E  
                    u3800 00E7                      u3720 009F                      u3640 0013  
                    u5080 005D                      u5320 001C                      u4440 0316  
                    u4360 0298                      u4280 021E                      u4272 01FD  
                    u4192 00F8                      u3560 003F                      u3480 004A  
                    u4600 00FF                      u6120 000C                      u6040 01AD  
                    u5401 005A                      u5161 0065                      u5153 0053  
                    u3801 00E6                      u3721 009E                      u3641 0012  
                    u5081 005C                      u5065 003B                      u5321 001B  
                    u4441 0315                      u4425 02DA                      u4361 0297  
                    u4273 0204                      u4193 00FF                      u3561 003E  
                    u3545 0027                      u4505 00D5                      u3385 004E  
                    u3481 0049                      u3465 0033                      u4601 00FE  
                    u6121 000B                      u6041 01AC                      u5410 0060  
                    u5090 0014                      u5154 0054                      u3730 00AA  
                    u3650 0018                      u5250 004F                      u5330 002E  
                    u4450 0332                      u4370 029D                      u3570 0006  
                    u3490 004F                      u6210 017A                      u5411 005F  
                    u5091 0013                      u5171 0075                      u5155 0059  
                    u3811 00F9                      u3731 00A8                      u3651 0017  
                    u5251 004E                      u5075 004F                      u5331 002D  
                    u5315 000D                      u4451 0331                      u4435 02F8  
                    u4371 029C                      u4355 0287                      u4291 022A  
                    u3555 0033                      u3571 0005                      u3491 004E  
                    u3475 003E                      u6211 0179                      u6035 014F  
                    u5500 0175                      u5420 0080                      u5180 00A0  
                    u5172 0076                      u5156 005A                      u3900 01AF  
                    u3820 010B                      u3812 0100                      u3740 00AB  
                    u3660 0034                      u5260 0056                      u4380 02B1  
                    u4292 0231                      u6300 03CF                      u6220 0185  
                    u6060 0254                      u5421 007F                      u5181 009F  
                    u5173 007B                      u3901 01AE                      u3821 010A  
                    u3813 0107                      u3725 009B                      u3661 0033  
                    u5261 0055                      u5245 003F                      u4445 0312  
                    u4381 02B0                      u4293 0238                      u4285 0219  
                    u4525 0139                      u6301 03CE                      u6221 0184  
                    u6205 0147                      u6061 0253                      u6045 01A9  
                    u5510 0187                      u5430 00A4                      u5174 007C  
                    u5190 0008                      u3910 01B4                      u3830 010F  
                    u3750 00BB                      u3670 003D                      u5350 004B  
                    u4390 02B8                      u3590 0018                      u4470 0009  
                    u4550 0007                      u6230 019B                      u6150 0093  
                    u6070 02A5                      u5511 0186                      u5431 00A3  
                    u5175 0081                      u5191 0007                      u3911 01B3  
                    u3831 010E                      u3751 00BA                      u3671 003C  
                    u5351 004A                      u5335 002A                      u4391 02B7  
                    u3591 0017                      u4535 0186                      u4471 0008  
                    u4615 0112                      u4551 0006                      u6231 019A  
                    u6215 0176                      u6151 0092                      u6135 0015  
                    u6071 02A4                      u6055 01F6                      u5600 01F9  
                    u5520 018F                      u5440 0100                      u5360 0015  
                    u5176 0082                      u3840 011C                      u3760 00C8  
                    u3680 0043                      u5280 0067                      u4720 0011  
                    u4640 01BB                      u4560 0010                      u6320 04E0  
                    u6240 02F1                      u6160 00A9                      u4465 000D  
                    u5601 01F8                      u5521 018E                      u5505 015E  
                    u5441 00FF                      u5361 0014                      u5185 009C  
                    u3841 011B                      u3761 00C7                      u3681 0042  
                    u5281 0066                      u5345 003D                      u4721 0010  
                    u3585 000A                      u4545 01D2                      u4705 02F9  
                    u4641 01BA                      u4625 014E                      u4561 000F  
                    u6321 04DF                      u6241 02F0                      u6161 00A8  
                    u6145 0054                      u6065 0250                      u5610 020D  
                    u5506 0161                      u5370 001F                      u3930 01CA  
                    u3690 0048                      u5290 006C                      u4810 0096  
                    u4730 0029                      u6330 04EB                      u6250 030E  
                    u6170 00B6                      u5611 020C                      u5507 0168  
                    u5371 001E                      u3931 01C9                      u3691 0047  
                    u5291 006B                      u5275 0059                      u4811 0095  
                    u4731 0028                      u4715 0335                      u4635 018A  
                    u6331 04EA                      u6315 04AD                      u6251 030D  
                    u6235 0197                      u6171 00B5                      u5620 021C  
                    u5540 01A0                      u5508 016B                      u5380 0024  
                    u3940 01CF                      u3860 0141                      u3780 00DE  
                    u5700 004B                      u4900 007A                      u4820 009D  
                    u6420 06D9                      u6340 04F7                      u6260 0363  
                    u6180 00FE                      u5541 019F                      u5509 0172  
                    u5381 0023                      u3941 01CE                      u3925 01BF  
                    u3861 0140                      u3781 00DD                      u5701 004A  
                    u4901 0079                      u4821 009C                      u4805 0086  
                    u4485 0026                      u6421 06D8                      u6405 0636  
                    u6341 04F6                      u6325 04DC                      u6261 0362  
                    u6181 00FD                      u6085 02E4                      u5630 023D  
                    u5470 011E                      u5390 0051                      u3950 01D9  
                    u3790 00E2                      u4910 007E                      u4750 0060  
                    u6430 06EF                      u6270 037E                      u6190 0102  
                    u5631 023C                      u5535 0193                      u5471 011D  
                    u5455 0104                      u5391 0050                      u3951 01D8  
                    u3871 0158                      u3863 013D                      u3855 011F  
                    u3791 00E1                      u3775 00CB                      u4911 007D  
                    u4751 005F                      u4495 0080                      u4655 01DB  
                    u4575 0030                      u6431 06EE                      u6415 069A  
                    u6271 037D                      u6191 0101                      u6095 0323  
                    u5800 0006                      u5640 025C                      u5560 01BF  
                    u3960 01DF                      u3880 016C                      u3872 0159  
                    u5720 006D                      u4920 0085                      u4840 00AE  
                    u4680 02AA                      u6440 06FC                      u6360 056C  
                    u6280 03A5                      u5801 0005                      u5641 025B  
                    u5625 0217                      u5561 01BE                      u5465 0111  
                    u3961 01DE                      u3881 016D                      u3873 015E  
                    u5721 006C                      u4921 0084                      u4841 00AD  
                    u4745 004B                      u4681 02A9                      u4665 0217  
                    u4585 006C                      u6441 06FB                      u6361 056B  
                    u6281 03A4                      u6265 035F                      u5650 0275  
                    u5570 01C6                      u5490 0150                      u3970 01E4  
                    u3890 018A                      u3882 0172                      u3874 015F  
                    u4850 000B                      u4770 0079                      u6450 0714  
                    u6370 058B                      u6290 03B4                      u6507 000A  
                    u5651 0274                      u5635 0239                      u5571 01C5  
                    u5555 01A6                      u5491 014F                      u3971 01E3  
                    u3891 0189                      u3883 0173                      u3875 0164  
                    u5715 005F                      u4851 000A                      u4835 00A0  
                    u4771 0078                      u4755 005C                      u4675 0262  
                    u4595 00B7                      u6451 0711                      u6371 058A  
                    u6355 0504                      u6291 03B3                      u5820 0029  
                    u5580 01E8                      u3980 01EA                      u3876 0165  
                    u5740 007D                      u5660 0008                      u4940 0097  
                    u4860 001D                      u4780 007D                      u6380 059A  
                    u5900 0076                      u6460 0118                      u6517 0019  
                    u5821 0028                      u5645 0258                      u5581 01E7  
                    u5485 0124                      u3981 01E9                      u5741 007C  
                    u5661 0007                      u4941 0096                      u4861 001C  
                    u4781 007C                      u4765 006C                      u6381 0599  
                    u5901 0075                      u6461 0117                      u5590 01F1  
                    u3990 01F1                      u5750 0083                      u5670 000C  
                    u4950 009E                      u4790 0084                      u6390 05B1  
                    u5910 00B0                      u6470 0143                      u6527 0028  
                    u5815 000C                      u5591 01F0                      u5495 014C  
                    u3991 01F0                      u5751 0082                      u5735 0072  
                    u5671 000B                      u4951 009D                      u4935 0087  
                    u4791 0083                      u4695 02BD                      u6391 05B0  
                    u6375 0587                      u6295 03B0                      u5911 00AF  
                    u6471 0142                      u5840 000D                      u5760 0087  
                    u5680 002C                      u4880 005C                      u5920 00EB  
                    u6537 0011                      u5761 0086                      u5681 002B  
                    u4881 005B                      u6385 0596                      u5921 00EA  
                    u5850 002F                      u5770 009C                      u4970 00AF  
                    u5930 0174                      u5835 002F                      u4971 00AE  
                    u4875 0043                      u5931 0173                      u5860 0041  
                    u4980 0006                      u5780 00AC                      u5940 0198  
                    u5861 0040                      u4981 0005                      u5781 00AB  
                    u4965 00A1                      u4885 0058                      u5941 0197  
                    u5870 0007                      u5790 00B0                      u5950 0000  
                    u6487 001D                      u5871 0006                      u5791 00AF  
                    u5775 0097                      u5695 003D                      u4895 006D  
                    u5951 01B0                      u5960 0009                      u5880 000E  
                    u6497 002E                      u5961 0006                      u5881 000D  
                    u5970 0016                      u5890 0047                      u4995 000D  
                    u5971 0015                      u5955 01AB                      u5891 0044  
                    u5980 0025                      u5981 0024                      u5990 002B  
                    u5991 002A                      u5975 0012                      u5985 0021  
       ?_Lcd_Write_String 0005                      _main 0000                      btemp 007E  
                    start 0000*       ??_Lcd_Write_String 0007          __end_of_ADC_init 0015  
         ___fldiv@new_exp 0005           __end_of_Lcd_Cmd 001A           __end_of_ReadADC 0012  
           ___fltol@sign1 0043           __end_of___fladd 0258                     ?_main 0000  
         __end_of___fldiv 0292           __end_of___awdiv 0069           __end_of___flneg 000B  
         __end_of___awmod 0059           __end_of___flmul 0345           __end_of___flsub 0050  
         __end_of___fltol 0078           __end_of___lldiv 0066           ___awdiv@divisor 0007  
         __end_of___llmod 0054           __end_of___lwdiv 0044           __end_of___lwmod 003A  
         ___awdiv@counter 0000                     _TRISB 0086                     _TRISD 0088  
         __end_of_dpowers 00A0                     _scale 0000                     main@s 0000  
                   pclath 000A                     status 0003                     wtemp0 007E  
         __end_of_sprintf 0719          __end_of_Lcd_Init 005E          __end_of_Lcd_Port 0022  
         __initialization 0000              __end_of_main 014E                    ??_main 003B  
        ___llmod@dividend 0004                    ?_scale 0028                    _ADRESH 001E  
                  _ADRESL 009E          ___awdiv@dividend 0009                 ??_Lcd_Cmd 0001  
                  _TRISA0 0428          __end_of___xxtofl 00BA                 ??_ReadADC 0002  
        __end_of__powers_ 0044                    ___flge 0000                    ___fleq 0000  
               ??___fladd 0044                    ___wmul 0000                 ??___fldiv 0043  
               ??___awdiv 000B                 ??___flneg 0004                 ??___awmod 0004  
               ??___flmul 0016                 ??___flsub 000E                 ??___fltol 003F  
               ??___lldiv 0008                 ??___llmod 0008                 ??___lwdiv 000A  
               ??___lwmod 0004                    _fround 0000          ___awdiv@quotient 0002  
         ___awmod@divisor 0000           ___awmod@counter 0005                 ?_ADC_init 0000  
               ??_sprintf 0019           Lcd_Set_Cursor@a 0006           Lcd_Set_Cursor@b 0004  
         Lcd_Set_Cursor@y 0008           Lcd_Set_Cursor@z 0007                ___flge@ff1 0008  
              ___flge@ff2 000C              ___xxtofl@arg 000A              ___xxtofl@exp 0009  
            ___xxtofl@val 0000                ___fleq@ff1 0000                ___fleq@ff2 0004  
 __end_of__initialization 000A                ___flneg@f1 0000                ___fltol@f1 003B  
          __pcstackCOMMON 0000             __end_of_scale 035F            _Lcd_Set_Cursor 0000  
              __div_to_l_ 0000                ??_ADC_init 0000                 ?_Lcd_Init 0000  
               ?_Lcd_Port 0000           __div_to_l_@exp1 0005           __div_to_l_@cntr 0004  
                 ??_scale 002C           __div_to_l_@quot 0000                __pbssBANK3 0000  
           __div_to_l_@f1 0000             __div_to_l_@f2 0004         __end_of__Umul8_16 0027  
              __pmaintext 0000                   ?___flge 0008                   ?___fleq 0000  
                 ?___wmul 0000                   ?_fround 0028    __end_of_Lcd_Set_Cursor 0046  
               ?___xxtofl 0000                ??_Lcd_Init 0004                ??_Lcd_Port 0000  
              __stringtab 0000            _Lcd_Write_Char 0000                   _Lcd_Cmd 0000  
                 _ReadADC 0000         __end_of__npowers_ 0078                 _ADC_value 0006  
                 ___fladd 0000                   ___fldiv 0000                   ___awdiv 0000  
                 ___flneg 0000                   ___awmod 0000                   ___flmul 0000  
                 ___flsub 0000                   ___fltol 0000                   ___lldiv 0000  
                 ___llmod 0000                   ___lwdiv 0000                _fround$894 0037  
              _fround$895 0033                   ___lwmod 0000           ?_Lcd_Set_Cursor 0004  
                 __ptext1 0000                   __ptext2 0000                   __ptext3 0000  
                 __ptext4 0000                   __ptext5 0000                   __ptext6 0000  
                 __ptext7 0000                   __ptext8 0000                   __ptext9 0000  
             ?__div_to_l_ 0000                   _dpowers 0078                ??___xxtofl 0004  
        ___awmod@dividend 0002                   _sprintf 0000                   _voltage 0004  
  __end_of_Lcd_Write_Char 0035      end_of_initialization 000A           ___lldiv@divisor 0000  
         ___lldiv@counter 000D                   psplit$0 A002A                   psplit$1 2A002B  
               Lcd_Port@a 0000            __tdiv_to_l_@f1 0000            __tdiv_to_l_@f2 0004  
           ??__tdiv_to_l_ 0008                 _PORTBbits 0006               ___fladd@grs 004F  
           ___xxtofl@sign 0008               ___fldiv@grs 0007               ___fldiv@rem 0000  
         ?_Lcd_Write_Char 0000         Lcd_Write_String@a 0005         Lcd_Write_String@i 000A  
             ___flmul@grs 001C          ReadADC@TempValue 0002            __end_of___flge 00A4  
          __end_of___fleq 004E            __end_of___wmul 0025          _Lcd_Write_String 0000  
       pnum$text1_split_1 002A         pnum$text1_split_2 002B            __end_of_fround 020B  
     start_initialization 0000       __end_of__tdiv_to_l_ 00B7           ___llmod@divisor 0000  
         ___llmod@counter 0009                  ??___flge 0010                  ??___fleq 0008  
                ??___wmul 0004                 __Umul8_16 0000           Lcd_Write_Char@a 0004  
         Lcd_Write_Char@y 0003                  ??_fround 002C             sprintf@tmpval 0029  
               ___fladd@a 0040                 ___fladd@b 003C                fround@prec 003B  
               ___fldiv@a 003B                 ___fldiv@b 003F                 ___flmul@a 0012  
               ___flmul@b 000E                 ___flsub@a 0000                 ___flsub@b 0004  
               ___latbits 0002             __pcstackBANK0 0000             __pcstackBANK1 0000  
           __pcstackBANK3 0000                  ?_Lcd_Cmd 0000               sprintf@flag 0027  
             sprintf@eexp 0033               sprintf@fval 0036               sprintf@prec 0031  
             sprintf@temp 0023                  ?_ReadADC 0000          ___lwdiv@dividend 0008  
        ??_Lcd_Set_Cursor 0005                  ?___fladd 003C                  ?___fldiv 003B  
                ?___awdiv 0007                  ?___flneg 0000                  ?___awmod 0000  
                ?___flmul 000E                  ?___flsub 0000                  ?___fltol 003B  
                ?___lldiv 0000                  ?___llmod 0000                 __npowers_ 0044  
              ?__Umul8_16 0000                  ?___lwdiv 0006                  ?___lwmod 0000  
               __pstrings 0000               __tdiv_to_l_ 0000              ??__div_to_l_ 0008  
               _scale$896 0036                  _ADC_init 0000          ___lwdiv@quotient 000B  
                ?_sprintf 0014            ___wmul@product 0004                  Lcd_Cmd@a 0003  
      __end_of__div_to_l_ 00B8                _ADCON0bits 001F               __stringbase 000F  
              _ADCON1bits 009F         ___wmul@multiplier 0000          ??_Lcd_Write_Char 0001  
                _Lcd_Init 0000                  _Lcd_Port 0000  __end_of_Lcd_Write_String 0042  
             ??__Umul8_16 0002        __end_of__stringtab 0010                sprintf@val 002D  
                ___xxtofl 0000           ___lwdiv@divisor 0006           ___lwdiv@counter 000D  
                __ptext10 0000                  __ptext11 0000                  __ptext20 0000  
                __ptext12 0000                  __ptext21 0000                  __ptext13 0000  
                __ptext30 0000                  __ptext22 0000                  __ptext14 0000  
                __ptext23 0000                  __ptext15 0000                  __ptext24 0000  
                __ptext16 0000                  __ptext25 0000                  __ptext17 0000  
                __ptext26 0000                  __ptext18 0000                  __ptext27 0000  
                __ptext19 0000                  __ptext28 0000                  __ptext29 0000  
                __powers_ 0010                 pnum$text1 000A                  scale@scl 003A  
      Lcd_Write_Char@temp 0002                 sprintf@ap 0022          __tdiv_to_l_@exp1 0005  
        __tdiv_to_l_@cntr 0004                 sprintf@sp 0035          __tdiv_to_l_@quot 0000  
        ___lwmod@dividend 0002          ___lldiv@dividend 0004                 stringcode 000A  
      Lcd_Set_Cursor@temp 0009              ?__tdiv_to_l_ 0000    __Umul8_16@multiplicand 0000  
                sprintf@c 003A                  sprintf@f 0014          ___lldiv@quotient 0009  
         ___lwmod@divisor 0000           ___lwmod@counter 0005                  stringdir 000A  
                stringtab 0000             ___fladd@signs 004C              ___fladd@aexp 004D  
            ___fladd@bexp 004E      __Umul8_16@multiplier 0008         __Umul8_16@product 0004  
