

Microchip MPLAB XC8 Assembler V2.40 build 20220703182018 
                                                                                               Tue Apr 04 19:35:51 2023

Microchip MPLAB XC8 C Compiler v2.40 (Free license) build 20220703182018 Og1 
     1                           	processor	16F877A
     2                           	pagewidth 120
     3                           	opt	flic
     4                           	psect	strings,global,class=STRING,delta=2,noexec
     5                           	psect	cinit,global,class=CODE,merge=1,delta=2
     6                           	psect	bssBANK0,global,class=BANK0,space=1,delta=1,noexec
     7                           	psect	clrtext,global,class=CODE,delta=2
     8                           	psect	cstackBANK1,global,class=BANK1,space=1,delta=1,noexec
     9                           	psect	cstackCOMMON,global,class=COMMON,space=1,delta=1,noexec
    10                           	psect	cstackBANK0,global,class=BANK0,space=1,delta=1,noexec
    11                           	psect	maintext,global,class=CODE,split=1,delta=2
    12                           	psect	text1,local,class=CODE,merge=1,delta=2
    13                           	psect	text2,local,class=CODE,merge=1,delta=2,group=1
    14                           	psect	text3,local,class=CODE,merge=1,delta=2,group=1
    15                           	psect	text4,local,class=CODE,merge=1,delta=2,group=1
    16                           	psect	text5,local,class=CODE,merge=1,delta=2
    17                           	psect	text6,local,class=CODE,merge=1,delta=2
    18                           	psect	intentry,global,class=CODE,delta=2
    19                           	psect	text7,local,class=CODE,merge=1,delta=2,group=1
    20                           	psect	text8,local,class=CODE,merge=1,delta=2,group=1
    21                           	psect	text9,local,class=CODE,merge=1,delta=2,group=1
    22                           	psect	text10,local,class=CODE,merge=1,delta=2,group=1
    23                           	psect	text11,local,class=CODE,merge=1,delta=2
    24                           	psect	idloc,global,abs,ovrld,class=IDLOC,space=5,delta=2,noexec
    25                           	psect	config,global,abs,ovrld,class=CONFIG,space=4,delta=2,noexec
    26                           	dabs	1,0x7E,2
    27  0000                     
    28                           ; Version 2.40
    29                           ; Generated 17/11/2021 GMT
    30                           ; 
    31                           ; Copyright © 2021, Microchip Technology Inc. and its subsidiaries ("Microchip")
    32                           ; All rights reserved.
    33                           ; 
    34                           ; This software is developed by Microchip Technology Inc. and its subsidiaries ("Microch
      +                          ip").
    35                           ; 
    36                           ; Redistribution and use in source and binary forms, with or without modification, are
    37                           ; permitted provided that the following conditions are met:
    38                           ; 
    39                           ;     1. Redistributions of source code must retain the above copyright notice, this lis
      +                          t of
    40                           ;        conditions and the following disclaimer.
    41                           ; 
    42                           ;     2. Redistributions in binary form must reproduce the above copyright notice, this 
      +                          list
    43                           ;        of conditions and the following disclaimer in the documentation and/or other
    44                           ;        materials provided with the distribution. Publication is not required when
    45                           ;        this file is used in an embedded application.
    46                           ; 
    47                           ;     3. Microchip's name may not be used to endorse or promote products derived from th
      +                          is
    48                           ;        software without specific prior written permission.
    49                           ; 
    50                           ; THIS SOFTWARE IS PROVIDED BY MICROCHIP "AS IS" AND ANY EXPRESS OR IMPLIED WARRANTIES,
    51                           ; INCLUDING, BUT NOT LIMITED TO, THE IMPLIED WARRANTIES OF MERCHANTABILITY AND FITNESS F
      +                          OR
    52                           ; PURPOSE ARE DISCLAIMED.  IN NO EVENT SHALL MICROCHIP BE LIABLE FOR ANY DIRECT, INDIREC
      +                          T,
    53                           ; INCIDENTAL, SPECIAL, EXEMPLARY, OR CONSEQUENTIAL DAMAGES (INCLUDING BUT NOT LIMITED TO
    54                           ; PROCUREMENT OF SUBSTITUTE GOODS OR SERVICES; LOSS OF USE, DATA OR PROFITS; OR BUSINESS
    55                           ; INTERRUPTION) HOWSOEVER CAUSED AND ON ANY THEORY OF LIABILITY, WHETHER IN CONTRACT, ST
      +                          RICT
    56                           ; LIABILITY, OR TORT (INCLUDING NEGLIGENCE OR OTHERWISE) ARISING IN ANY WAY OUT OF THE U
      +                          SE OF
    57                           ; THIS SOFTWARE, EVEN IF ADVISED OF THE POSSIBILITY OF SUCH DAMAGE.
    58                           ; 
    59                           ; 
    60                           ; Code-generator required, PIC16F877A Definitions
    61                           ; 
    62                           ; SFR Addresses
    63  0000                     	;# 
    64  0001                     	;# 
    65  0002                     	;# 
    66  0003                     	;# 
    67  0004                     	;# 
    68  0005                     	;# 
    69  0006                     	;# 
    70  0007                     	;# 
    71  0008                     	;# 
    72  0009                     	;# 
    73  000A                     	;# 
    74  000B                     	;# 
    75  000C                     	;# 
    76  000D                     	;# 
    77  000E                     	;# 
    78  000E                     	;# 
    79  000F                     	;# 
    80  0010                     	;# 
    81  0011                     	;# 
    82  0012                     	;# 
    83  0013                     	;# 
    84  0014                     	;# 
    85  0015                     	;# 
    86  0015                     	;# 
    87  0016                     	;# 
    88  0017                     	;# 
    89  0018                     	;# 
    90  0019                     	;# 
    91  001A                     	;# 
    92  001B                     	;# 
    93  001B                     	;# 
    94  001C                     	;# 
    95  001D                     	;# 
    96  001E                     	;# 
    97  001F                     	;# 
    98  0081                     	;# 
    99  0085                     	;# 
   100  0086                     	;# 
   101  0087                     	;# 
   102  0088                     	;# 
   103  0089                     	;# 
   104  008C                     	;# 
   105  008D                     	;# 
   106  008E                     	;# 
   107  0091                     	;# 
   108  0092                     	;# 
   109  0093                     	;# 
   110  0094                     	;# 
   111  0098                     	;# 
   112  0099                     	;# 
   113  009C                     	;# 
   114  009D                     	;# 
   115  009E                     	;# 
   116  009F                     	;# 
   117  010C                     	;# 
   118  010D                     	;# 
   119  010E                     	;# 
   120  010F                     	;# 
   121  018C                     	;# 
   122  018D                     	;# 
   123  0000                     	;# 
   124  0001                     	;# 
   125  0002                     	;# 
   126  0003                     	;# 
   127  0004                     	;# 
   128  0005                     	;# 
   129  0006                     	;# 
   130  0007                     	;# 
   131  0008                     	;# 
   132  0009                     	;# 
   133  000A                     	;# 
   134  000B                     	;# 
   135  000C                     	;# 
   136  000D                     	;# 
   137  000E                     	;# 
   138  000E                     	;# 
   139  000F                     	;# 
   140  0010                     	;# 
   141  0011                     	;# 
   142  0012                     	;# 
   143  0013                     	;# 
   144  0014                     	;# 
   145  0015                     	;# 
   146  0015                     	;# 
   147  0016                     	;# 
   148  0017                     	;# 
   149  0018                     	;# 
   150  0019                     	;# 
   151  001A                     	;# 
   152  001B                     	;# 
   153  001B                     	;# 
   154  001C                     	;# 
   155  001D                     	;# 
   156  001E                     	;# 
   157  001F                     	;# 
   158  0081                     	;# 
   159  0085                     	;# 
   160  0086                     	;# 
   161  0087                     	;# 
   162  0088                     	;# 
   163  0089                     	;# 
   164  008C                     	;# 
   165  008D                     	;# 
   166  008E                     	;# 
   167  0091                     	;# 
   168  0092                     	;# 
   169  0093                     	;# 
   170  0094                     	;# 
   171  0098                     	;# 
   172  0099                     	;# 
   173  009C                     	;# 
   174  009D                     	;# 
   175  009E                     	;# 
   176  009F                     	;# 
   177  010C                     	;# 
   178  010D                     	;# 
   179  010E                     	;# 
   180  010F                     	;# 
   181  018C                     	;# 
   182  018D                     	;# 
   183  001E                     _ADRESH	set	30
   184  001F                     _ADCON0	set	31
   185  0061                     _TMR2IF	set	97
   186  005F                     _GIE	set	95
   187  005E                     _PEIE	set	94
   188  0092                     _TMR2ON	set	146
   189  0096                     _TOUTPS3	set	150
   190  0095                     _TOUTPS2	set	149
   191  0094                     _TOUTPS1	set	148
   192  0093                     _TOUTPS0	set	147
   193  0091                     _T2CKPS1	set	145
   194  0090                     _T2CKPS0	set	144
   195  00FA                     _GO_DONE	set	250
   196  00F8                     _ADON	set	248
   197  00FD                     _CHS2	set	253
   198  00FC                     _CHS1	set	252
   199  00FB                     _CHS0	set	251
   200  0092                     _PR2	set	146
   201  009E                     _ADRESL	set	158
   202  009F                     _ADCON1	set	159
   203  0461                     _TMR2IE	set	1121
   204                           
   205                           	psect	strings
   206  0000'                    __pstrings:
   207  0000'                    stringtab:
   208  0000'                    __stringtab:
   209  0000'                    stringcode:	
   210                           ;	String table - string pointers are 1 byte each
   211                           
   212  0000'                    stringdir:
   213  0000' 3000'              	movlw	high stringdir
   214  0001' 008A               	movwf	10
   215  0002' 0804               	movf	4,w
   216  0003' 0A84               	incf	4,f
   217  0004' 0782               	addwf	2,f
   218  0005'                    __stringbase:
   219  0005' 3400               	retlw	0
   220  0006'                    __end_of__stringtab:
   221  0006'                    STR_1:
   222  0006' 3447               	retlw	71	;'G'
   223  0007' 3469               	retlw	105	;'i'
   224  0008' 3461               	retlw	97	;'a'
   225  0009' 3420               	retlw	32	;' '
   226  000A' 3474               	retlw	116	;'t'
   227  000B' 3472               	retlw	114	;'r'
   228  000C' 3469               	retlw	105	;'i'
   229  000D' 3420               	retlw	32	;' '
   230  000E' 3449               	retlw	73	;'I'
   231  000F' 343D               	retlw	61	;'='
   232  0010' 3420               	retlw	32	;' '
   233  0011' 3420               	retlw	32	;' '
   234  0012' 3420               	retlw	32	;' '
   235  0013' 3400               	retlw	0
   236  0014'                    STR_2:
   237  0014' 3447               	retlw	71	;'G'
   238  0015' 3469               	retlw	105	;'i'
   239  0016' 3461               	retlw	97	;'a'
   240  0017' 3420               	retlw	32	;' '
   241  0018' 3474               	retlw	116	;'t'
   242  0019' 3472               	retlw	114	;'r'
   243  001A' 3469               	retlw	105	;'i'
   244  001B' 3420               	retlw	32	;' '
   245  001C' 3455               	retlw	85	;'U'
   246  001D' 343D               	retlw	61	;'='
   247  001E' 3420               	retlw	32	;' '
   248  001F' 3420               	retlw	32	;' '
   249  0020' 3420               	retlw	32	;' '
   250  0021' 3400               	retlw	0
   251                           
   252                           	psect	cinit
   253  0000'                    start_initialization:	
   254                           ; #config settings
   255                           
   256  0000'                    __initialization:
   257                           
   258                           ; Clear objects allocated to BANK0
   259  0000' 1383               	bcf	3,7	;select IRP bank0
   260  0001' 3000'              	movlw	low __pbssBANK0
   261  0002' 0084               	movwf	4
   262  0003' 3000'              	movlw	low (__pbssBANK0+21)
   263  0004' 120A' 118A' 2000' 120A' 118A' 	fcall	clear_ram0
   264  0009'                    end_of_initialization:	
   265                           ;End of C runtime variable initialization code
   266                           
   267  0009'                    __end_of__initialization:
   268  0009' 0183               	clrf	3
   269  000A' 120A' 118A' 2800'  	ljmp	_main	;jump to C main() function
   270                           
   271                           	psect	bssBANK0
   272  0000'                    __pbssBANK0:
   273  0000'                    _Dienap:
   274  0000'                    	ds	4
   275  0004'                    _Dong:
   276  0004'                    	ds	4
   277  0008'                    main@F907:
   278  0008'                    	ds	3
   279  000B'                    _count_s:
   280  000B'                    	ds	2
   281  000D'                    _count1:
   282  000D'                    	ds	2
   283  000F'                    _count:
   284  000F'                    	ds	2
   285  0011'                    _i:
   286  0011'                    	ds	2
   287  0013'                    _adc_ok:
   288  0013'                    	ds	1
   289  0014'                    _do_dienap:
   290  0014'                    	ds	1
   291                           
   292                           	psect	clrtext
   293  0000'                    clear_ram0:	
   294                           ;	Called with FSR containing the base address, and
   295                           ;	W with the last address+1
   296                           
   297  0000' 0064               	clrwdt	;clear the watchdog before getting into this loop
   298  0001'                    clrloop0:
   299  0001' 0180               	clrf	0	;clear RAM location pointed to by FSR
   300  0002' 0A84               	incf	4,f	;increment pointer
   301  0003' 0604               	xorwf	4,w	;XOR with final address
   302  0004' 1903               	btfsc	3,2	;have we reached the end yet?
   303  0005' 3400               	retlw	0	;all done for this memory range, return
   304  0006' 0604               	xorwf	4,w	;XOR again to restore value
   305  0007' 2800'              	goto	clrloop0	;do the next byte
   306                           
   307                           	psect	cstackBANK1
   308  0000'                    __pcstackBANK1:
   309  0000'                    ?___lwmod:
   310  0000'                    ?___fltol:	
   311                           ; 2 bytes @ 0x0
   312                           
   313  0000'                    ___lwmod@divisor:	
   314                           ; 4 bytes @ 0x0
   315                           
   316  0000'                    ___fltol@f1:	
   317                           ; 2 bytes @ 0x0
   318                           
   319                           
   320                           ; 4 bytes @ 0x0
   321  0000'                    	ds	2
   322  0002'                    ___lwmod@dividend:
   323                           
   324                           ; 2 bytes @ 0x2
   325  0002'                    	ds	2
   326  0004'                    ??___fltol:
   327  0004'                    ___lwmod@counter:	
   328                           ; 1 bytes @ 0x4
   329                           
   330                           
   331                           ; 1 bytes @ 0x4
   332  0004'                    	ds	1
   333  0005'                    ?___lwdiv:
   334  0005'                    ___lwdiv@divisor:	
   335                           ; 2 bytes @ 0x5
   336                           
   337                           
   338                           ; 2 bytes @ 0x5
   339  0005'                    	ds	2
   340  0007'                    ___lwdiv@dividend:
   341                           
   342                           ; 2 bytes @ 0x7
   343  0007'                    	ds	1
   344  0008'                    ___fltol@sign1:
   345                           
   346                           ; 1 bytes @ 0x8
   347  0008'                    	ds	1
   348  0009'                    ??___lwdiv:
   349  0009'                    ___fltol@exp1:	
   350                           ; 1 bytes @ 0x9
   351                           
   352                           
   353                           ; 1 bytes @ 0x9
   354  0009'                    	ds	1
   355  000A'                    ___lwdiv@counter:
   356                           
   357                           ; 1 bytes @ 0xA
   358  000A'                    	ds	1
   359  000B'                    ___lwdiv@quotient:
   360                           
   361                           ; 2 bytes @ 0xB
   362  000B'                    	ds	2
   363  000D'                    _main$711:
   364                           
   365                           ; 2 bytes @ 0xD
   366  000D'                    	ds	2
   367  000F'                    main@Digit:
   368                           
   369                           ; 3 bytes @ 0xF
   370  000F'                    	ds	3
   371  0012'                    main@ADC_Value:
   372                           
   373                           ; 2 bytes @ 0x12
   374  0012'                    	ds	2
   375                           
   376                           	psect	cstackCOMMON
   377  0000'                    __pcstackCOMMON:
   378  0000'                    ?_LCDInit:
   379  0000'                    ?_InitAdc:	
   380                           ; 1 bytes @ 0x0
   381                           
   382  0000'                    ?_timer2_initialize:	
   383                           ; 1 bytes @ 0x0
   384                           
   385  0000'                    ?_Count_Up:	
   386                           ; 1 bytes @ 0x0
   387                           
   388  0000'                    ?__Umul8_16:	
   389                           ; 1 bytes @ 0x0
   390                           
   391  0000'                    ?_ReadAdc:	
   392                           ; 2 bytes @ 0x0
   393                           
   394  0000'                    ?_main:	
   395                           ; 2 bytes @ 0x0
   396                           
   397  0000'                    ?___fldiv:	
   398                           ; 2 bytes @ 0x0
   399                           
   400  0000'                    __Umul8_16@multiplicand:	
   401                           ; 4 bytes @ 0x0
   402                           
   403  0000'                    ___fldiv@a:	
   404                           ; 1 bytes @ 0x0
   405                           
   406                           
   407                           ; 4 bytes @ 0x0
   408  0000'                    	ds	2
   409  0002'                    ??__Umul8_16:
   410  0002'                    ??_ReadAdc:	
   411                           ; 1 bytes @ 0x2
   412                           
   413                           
   414                           ; 1 bytes @ 0x2
   415  0002'                    	ds	2
   416  0004'                    ReadAdc@value:
   417  0004'                    __Umul8_16@product:	
   418                           ; 2 bytes @ 0x4
   419                           
   420  0004'                    ___fldiv@b:	
   421                           ; 2 bytes @ 0x4
   422                           
   423                           
   424                           ; 4 bytes @ 0x4
   425  0004'                    	ds	2
   426  0006'                    ReadAdc@Channel:
   427  0006'                    __Umul8_16@word_mpld:	
   428                           ; 1 bytes @ 0x6
   429                           
   430                           
   431                           ; 2 bytes @ 0x6
   432  0006'                    	ds	1
   433  0007'                    ?___xxtofl:
   434  0007'                    ___xxtofl@val:	
   435                           ; 4 bytes @ 0x7
   436                           
   437                           
   438                           ; 4 bytes @ 0x7
   439  0007'                    	ds	1
   440  0008'                    ??___fldiv:
   441  0008'                    __Umul8_16@multiplier:	
   442                           ; 1 bytes @ 0x8
   443                           
   444                           
   445                           ; 1 bytes @ 0x8
   446  0008'                    	ds	1
   447  0009'                    ??___flmul:
   448                           
   449                           ; 1 bytes @ 0x9
   450  0009'                    	ds	5
   451                           
   452                           	psect	cstackBANK0
   453  0000'                    __pcstackBANK0:
   454  0000'                    ??_LCDInit:
   455  0000'                    ?_LCDGotoXY:	
   456                           ; 1 bytes @ 0x0
   457                           
   458  0000'                    ??_LCDGotoXY:	
   459                           ; 1 bytes @ 0x0
   460                           
   461  0000'                    ?_LCDWriteString:	
   462                           ; 1 bytes @ 0x0
   463                           
   464  0000'                    ??_LCDWriteString:	
   465                           ; 1 bytes @ 0x0
   466                           
   467  0000'                    ?_LCDByte:	
   468                           ; 1 bytes @ 0x0
   469                           
   470  0000'                    ??_LCDByte:	
   471                           ; 1 bytes @ 0x0
   472                           
   473  0000'                    ??___xxtofl:	
   474                           ; 1 bytes @ 0x0
   475                           
   476  0000'                    ?___flmul:	
   477                           ; 1 bytes @ 0x0
   478                           
   479  0000'                    _LCDGotoXY$1:	
   480                           ; 4 bytes @ 0x0
   481                           
   482  0000'                    _LCDWriteString$0:	
   483                           ; 1 bytes @ 0x0
   484                           
   485  0000'                    _LCDByte$1:	
   486                           ; 1 bytes @ 0x0
   487                           
   488  0000'                    ___fldiv@rem:	
   489                           ; 1 bytes @ 0x0
   490                           
   491  0000'                    ___flmul@b:	
   492                           ; 4 bytes @ 0x0
   493                           
   494                           
   495                           ; 4 bytes @ 0x0
   496  0000'                    	ds	4
   497  0004'                    ___fldiv@sign:
   498  0004'                    ___xxtofl@sign:	
   499                           ; 1 bytes @ 0x4
   500                           
   501  0004'                    ___flmul@a:	
   502                           ; 1 bytes @ 0x4
   503                           
   504                           
   505                           ; 4 bytes @ 0x4
   506  0004'                    	ds	1
   507  0005'                    ___xxtofl@exp:
   508  0005'                    ___fldiv@new_exp:	
   509                           ; 1 bytes @ 0x5
   510                           
   511                           
   512                           ; 2 bytes @ 0x5
   513  0005'                    	ds	1
   514  0006'                    ___xxtofl@arg:
   515                           
   516                           ; 4 bytes @ 0x6
   517  0006'                    	ds	1
   518  0007'                    ___fldiv@grs:
   519                           
   520                           ; 4 bytes @ 0x7
   521  0007'                    	ds	1
   522  0008'                    ___flmul@sign:
   523                           
   524                           ; 1 bytes @ 0x8
   525  0008'                    	ds	1
   526  0009'                    ___flmul@grs:
   527                           
   528                           ; 4 bytes @ 0x9
   529  0009'                    	ds	2
   530  000B'                    ___fldiv@bexp:
   531                           
   532                           ; 1 bytes @ 0xB
   533  000B'                    	ds	1
   534  000C'                    ___fldiv@aexp:
   535                           
   536                           ; 1 bytes @ 0xC
   537  000C'                    	ds	1
   538  000D'                    ___flmul@aexp:
   539                           
   540                           ; 1 bytes @ 0xD
   541  000D'                    	ds	1
   542  000E'                    ___flmul@bexp:
   543                           
   544                           ; 1 bytes @ 0xE
   545  000E'                    	ds	1
   546  000F'                    ___flmul@prod:
   547                           
   548                           ; 4 bytes @ 0xF
   549  000F'                    	ds	4
   550  0013'                    ___flmul@temp:
   551                           
   552                           ; 2 bytes @ 0x13
   553  0013'                    	ds	2
   554  0015'                    ??_Count_Up:
   555                           
   556                           ; 1 bytes @ 0x15
   557  0015'                    	ds	8
   558  001D'                    ??_InitAdc:
   559  001D'                    ??_timer2_initialize:	
   560                           ; 1 bytes @ 0x1D
   561                           
   562  001D'                    ??___lwmod:	
   563                           ; 1 bytes @ 0x1D
   564                           
   565                           
   566                           ; 1 bytes @ 0x1D
   567  001D'                    	ds	1
   568  001E'                    ??_main:
   569                           
   570                           	psect	maintext
   571  0000'                    __pmaintext:	
   572                           ; 1 bytes @ 0x1E
   573 ;;
   574 ;;Main: autosize = 0, tempsize = 0, incstack = 0, save=0
   575 ;;
   576 ;; *************** function _main *****************
   577 ;; Defined at:
   578 ;;		line 98 in file "adc ghep trong.c"
   579 ;; Parameters:    Size  Location     Type
   580 ;;		None
   581 ;; Auto vars:     Size  Location     Type
   582 ;;  Digit           3   15[BANK1 ] unsigned char [3]
   583 ;;  ADC_Value       2   18[BANK1 ] unsigned int 
   584 ;; Return value:  Size  Location     Type
   585 ;;                  2   97[None  ] int 
   586 ;; Registers used:
   587 ;;		wreg, fsr0l, fsr0h, fsr1l, fsr1h, fsr1l, fsr1h, status,2, status,0, btemp+1, pclath, cstack
   588 ;; Tracked objects:
   589 ;;		On entry : B00/0
   590 ;;		On exit  : 0/0
   591 ;;		Unchanged: 0/0
   592 ;; Data sizes:     COMMON   BANK0   BANK1   BANK3   BANK2
   593 ;;      Params:         0       0       0       0       0
   594 ;;      Locals:         0       0       7       0       0
   595 ;;      Temps:          0       0       0       0       0
   596 ;;      Totals:         0       0       7       0       0
   597 ;;Total ram usage:        7 bytes
   598 ;; Hardware stack levels required when called: 4
   599 ;; This function calls:
   600 ;;		_InitAdc
   601 ;;		_LCDByte
   602 ;;		_LCDGotoXY
   603 ;;		_LCDInit
   604 ;;		_LCDWriteString
   605 ;;		___fltol
   606 ;;		___lwdiv
   607 ;;		___lwmod
   608 ;;		_timer2_initialize
   609 ;; This function is called by:
   610 ;;		Startup code after reset
   611 ;; This function uses a non-reentrant model
   612 ;;
   613                           
   614  0000'                    _main:	
   615                           ;psect for function _main
   616                           
   617  0000'                    l1954:	
   618                           ;incstack = 0
   619                           ; Regs used in _main: [allreg]
   620                           
   621                           
   622                           ;adc ghep trong.c: 100: unsigned char Digit[3] = { 0,0,0 };
   623  0000' 3000               	movlw	0
   624  0001' 1683               	bsf	3,5	;RP0=1, select bank1
   625  0002' 1303               	bcf	3,6	;RP1=0, select bank1
   626  0003' 0080'              	movwf	main@Digit^(0+128)
   627  0004' 3000               	movlw	0
   628  0005' 0080'              	movwf	(main@Digit+1)^(0+128)
   629  0006' 3000               	movlw	0
   630  0007' 0080'              	movwf	(main@Digit+2)^(0+128)
   631  0008'                    l1956:
   632  0008'                    l1958:
   633                           
   634                           ;adc ghep trong.c: 102: ADCON1 = 0x06;
   635  0008' 3006               	movlw	6
   636  0009' 009F               	movwf	31	;volatile
   637  000A'                    l1960:
   638                           
   639                           ;adc ghep trong.c: 103: LCDInit(0B00000000);
   640  000A' 3000               	movlw	0
   641  000B' 120A' 118A' 2000' 120A' 118A' 	fcall	_LCDInit
   642  0010'                    l1962:
   643                           
   644                           ;adc ghep trong.c: 104: InitAdc();
   645  0010' 120A' 118A' 2000' 120A' 118A' 	fcall	_InitAdc
   646  0015'                    l1964:
   647                           
   648                           ;adc ghep trong.c: 105: timer2_initialize ();
   649  0015' 120A' 118A' 2000' 120A' 118A' 	fcall	_timer2_initialize
   650  001A'                    l1966:
   651                           
   652                           ;adc ghep trong.c: 108: {;adc ghep trong.c: 110: if(adc_ok && count1==25)
   653  001A' 1283               	bcf	3,5	;RP0=0, select bank0
   654  001B' 1303               	bcf	3,6	;RP1=0, select bank0
   655  001C' 0813'              	movf	_adc_ok,w
   656  001D' 1903               	btfsc	3,2
   657  001E' 2800'              	goto	u2521
   658  001F' 2800'              	goto	u2520
   659  0020'                    u2521:
   660  0020' 2800'              	goto	l2016
   661  0021'                    u2520:
   662  0021'                    l1968:
   663  0021' 3019               	movlw	25
   664  0022' 060D'              	xorwf	_count1,w
   665  0023' 040E'              	iorwf	_count1+1,w
   666  0024' 1D03               	btfss	3,2
   667  0025' 2800'              	goto	u2531
   668  0026' 2800'              	goto	u2530
   669  0027'                    u2531:
   670  0027' 2800'              	goto	l2016
   671  0028'                    u2530:
   672  0028'                    l1970:
   673                           
   674                           ;adc ghep trong.c: 111: {;adc ghep trong.c: 112: count1=0;
   675  0028' 018D'              	clrf	_count1
   676  0029' 018E'              	clrf	_count1+1
   677  002A'                    l1972:
   678                           
   679                           ;adc ghep trong.c: 113: ADC_Value=(unsigned int)Dong;
   680  002A' 0807'              	movf	_Dong+3,w
   681  002B' 1683               	bsf	3,5	;RP0=1, select bank1
   682  002C' 1303               	bcf	3,6	;RP1=0, select bank1
   683  002D' 0080'              	movwf	(___fltol@f1+3)^(0+128)
   684  002E' 1283               	bcf	3,5	;RP0=0, select bank0
   685  002F' 1303               	bcf	3,6	;RP1=0, select bank0
   686  0030' 0806'              	movf	_Dong+2,w
   687  0031' 1683               	bsf	3,5	;RP0=1, select bank1
   688  0032' 1303               	bcf	3,6	;RP1=0, select bank1
   689  0033' 0080'              	movwf	(___fltol@f1+2)^(0+128)
   690  0034' 1283               	bcf	3,5	;RP0=0, select bank0
   691  0035' 1303               	bcf	3,6	;RP1=0, select bank0
   692  0036' 0805'              	movf	_Dong+1,w
   693  0037' 1683               	bsf	3,5	;RP0=1, select bank1
   694  0038' 1303               	bcf	3,6	;RP1=0, select bank1
   695  0039' 0080'              	movwf	(___fltol@f1+1)^(0+128)
   696  003A' 1283               	bcf	3,5	;RP0=0, select bank0
   697  003B' 1303               	bcf	3,6	;RP1=0, select bank0
   698  003C' 0804'              	movf	_Dong,w
   699  003D' 1683               	bsf	3,5	;RP0=1, select bank1
   700  003E' 1303               	bcf	3,6	;RP1=0, select bank1
   701  003F' 0080'              	movwf	___fltol@f1^(0+128)
   702  0040' 120A' 118A' 2000' 120A' 118A' 	fcall	___fltol
   703  0045' 1683               	bsf	3,5	;RP0=1, select bank1
   704  0046' 1303               	bcf	3,6	;RP1=0, select bank1
   705  0047' 0800'              	movf	(?___fltol+1)^(0+128),w
   706  0048' 0080'              	movwf	(main@ADC_Value+1)^(0+128)
   707  0049' 0800'              	movf	?___fltol^(0+128),w
   708  004A' 0080'              	movwf	main@ADC_Value^(0+128)
   709  004B'                    l1974:
   710                           
   711                           ;adc ghep trong.c: 114: Digit[2] = (ADC_Value/100);
   712  004B' 3064               	movlw	100
   713  004C' 0080'              	movwf	___lwdiv@divisor^(0+128)
   714  004D' 3000               	movlw	0
   715  004E' 0081'              	movwf	(___lwdiv@divisor^(0+128)+1)
   716  004F' 0800'              	movf	(main@ADC_Value+1)^(0+128),w
   717  0050' 0080'              	movwf	(___lwdiv@dividend+1)^(0+128)
   718  0051' 0800'              	movf	main@ADC_Value^(0+128),w
   719  0052' 0080'              	movwf	___lwdiv@dividend^(0+128)
   720  0053' 120A' 118A' 2000' 120A' 118A' 	fcall	___lwdiv
   721  0058' 1683               	bsf	3,5	;RP0=1, select bank1
   722  0059' 1303               	bcf	3,6	;RP1=0, select bank1
   723  005A' 0800'              	movf	?___lwdiv^(0+128),w
   724  005B' 0082'              	movwf	(main@Digit^(0+128)+2)
   725  005C'                    l1976:
   726                           
   727                           ;adc ghep trong.c: 115: Digit[1] = (ADC_Value%100)/10;
   728  005C' 300A               	movlw	10
   729  005D' 0080'              	movwf	___lwdiv@divisor^(0+128)
   730  005E' 3000               	movlw	0
   731  005F' 0081'              	movwf	(___lwdiv@divisor^(0+128)+1)
   732  0060' 0800'              	movf	(main@ADC_Value+1)^(0+128),w
   733  0061' 0080'              	movwf	(___lwmod@dividend+1)^(0+128)
   734  0062' 0800'              	movf	main@ADC_Value^(0+128),w
   735  0063' 0080'              	movwf	___lwmod@dividend^(0+128)
   736  0064' 3064               	movlw	100
   737  0065' 0080'              	movwf	___lwmod@divisor^(0+128)
   738  0066' 3000               	movlw	0
   739  0067' 0081'              	movwf	(___lwmod@divisor^(0+128)+1)
   740  0068' 120A' 118A' 2000' 120A' 118A' 	fcall	___lwmod
   741  006D' 1683               	bsf	3,5	;RP0=1, select bank1
   742  006E' 1303               	bcf	3,6	;RP1=0, select bank1
   743  006F' 0800'              	movf	(?___lwmod+1)^(0+128),w
   744  0070' 0080'              	movwf	(___lwdiv@dividend+1)^(0+128)
   745  0071' 0800'              	movf	?___lwmod^(0+128),w
   746  0072' 0080'              	movwf	___lwdiv@dividend^(0+128)
   747  0073' 120A' 118A' 2000' 120A' 118A' 	fcall	___lwdiv
   748  0078' 1683               	bsf	3,5	;RP0=1, select bank1
   749  0079' 1303               	bcf	3,6	;RP1=0, select bank1
   750  007A' 0800'              	movf	?___lwdiv^(0+128),w
   751  007B' 0081'              	movwf	(main@Digit^(0+128)+1)
   752  007C'                    l1978:
   753                           
   754                           ;adc ghep trong.c: 116: Digit[0] = (ADC_Value%100)%10;
   755  007C' 0800'              	movf	(main@ADC_Value+1)^(0+128),w
   756  007D' 0080'              	movwf	(___lwmod@dividend+1)^(0+128)
   757  007E' 0800'              	movf	main@ADC_Value^(0+128),w
   758  007F' 0080'              	movwf	___lwmod@dividend^(0+128)
   759  0080' 3064               	movlw	100
   760  0081' 0080'              	movwf	___lwmod@divisor^(0+128)
   761  0082' 3000               	movlw	0
   762  0083' 0081'              	movwf	(___lwmod@divisor^(0+128)+1)
   763  0084' 120A' 118A' 2000' 120A' 118A' 	fcall	___lwmod
   764  0089' 1683               	bsf	3,5	;RP0=1, select bank1
   765  008A' 1303               	bcf	3,6	;RP1=0, select bank1
   766  008B' 0800'              	movf	(?___lwmod+1)^(0+128),w
   767  008C' 0080'              	movwf	(_main$711+1)^(0+128)
   768  008D' 0800'              	movf	?___lwmod^(0+128),w
   769  008E' 0080'              	movwf	_main$711^(0+128)
   770  008F'                    l1980:
   771                           
   772                           ;adc ghep trong.c: 116: Digit[0] = (ADC_Value%100)%10;
   773  008F' 300A               	movlw	10
   774  0090' 0080'              	movwf	___lwmod@divisor^(0+128)
   775  0091' 3000               	movlw	0
   776  0092' 0081'              	movwf	(___lwmod@divisor^(0+128)+1)
   777  0093' 0800'              	movf	(_main$711+1)^(0+128),w
   778  0094' 0080'              	movwf	(___lwmod@dividend+1)^(0+128)
   779  0095' 0800'              	movf	_main$711^(0+128),w
   780  0096' 0080'              	movwf	___lwmod@dividend^(0+128)
   781  0097' 120A' 118A' 2000' 120A' 118A' 	fcall	___lwmod
   782  009C' 1683               	bsf	3,5	;RP0=1, select bank1
   783  009D' 1303               	bcf	3,6	;RP1=0, select bank1
   784  009E' 0800'              	movf	?___lwmod^(0+128),w
   785  009F' 0080'              	movwf	main@Digit^(0+128)
   786  00A0'                    l1982:
   787                           
   788                           ;adc ghep trong.c: 117: LCDGotoXY(1,0);
   789  00A0' 1283               	bcf	3,5	;RP0=0, select bank0
   790  00A1' 1303               	bcf	3,6	;RP1=0, select bank0
   791  00A2' 0180'              	clrf	_LCDGotoXY$1
   792  00A3' 3001               	movlw	1
   793  00A4' 120A' 118A' 2000' 120A' 118A' 	fcall	_LCDGotoXY
   794  00A9'                    l1984:
   795                           
   796                           ;adc ghep trong.c: 118: LCDWriteString("Gia tri I=   ");
   797  00A9' 3001               	movlw	(low ((STR_1-__stringbase)| (0+32768)))& (0+255)
   798  00AA' 120A' 118A' 2000' 120A' 118A' 	fcall	_LCDWriteString
   799  00AF'                    l1986:
   800                           
   801                           ;adc ghep trong.c: 119: (LCDByte(Digit[2]+0x30,1));
   802  00AF' 1283               	bcf	3,5	;RP0=0, select bank0
   803  00B0' 1303               	bcf	3,6	;RP1=0, select bank0
   804  00B1' 0180'              	clrf	_LCDByte$1
   805  00B2' 0A80'              	incf	_LCDByte$1,f
   806  00B3' 1683               	bsf	3,5	;RP0=1, select bank1
   807  00B4' 1303               	bcf	3,6	;RP1=0, select bank1
   808  00B5' 0802'              	movf	(main@Digit^(0+128)+2),w
   809  00B6' 3E30               	addlw	48
   810  00B7' 120A' 118A' 2000' 120A' 118A' 	fcall	_LCDByte
   811  00BC'                    l1988:
   812                           
   813                           ;adc ghep trong.c: 120: (LCDByte('.',1));
   814  00BC' 1283               	bcf	3,5	;RP0=0, select bank0
   815  00BD' 1303               	bcf	3,6	;RP1=0, select bank0
   816  00BE' 0180'              	clrf	_LCDByte$1
   817  00BF' 0A80'              	incf	_LCDByte$1,f
   818  00C0' 302E               	movlw	46
   819  00C1' 120A' 118A' 2000' 120A' 118A' 	fcall	_LCDByte
   820  00C6'                    l1990:
   821                           
   822                           ;adc ghep trong.c: 121: (LCDByte(Digit[1]+0x30,1));
   823  00C6' 1283               	bcf	3,5	;RP0=0, select bank0
   824  00C7' 1303               	bcf	3,6	;RP1=0, select bank0
   825  00C8' 0180'              	clrf	_LCDByte$1
   826  00C9' 0A80'              	incf	_LCDByte$1,f
   827  00CA' 1683               	bsf	3,5	;RP0=1, select bank1
   828  00CB' 1303               	bcf	3,6	;RP1=0, select bank1
   829  00CC' 0801'              	movf	(main@Digit^(0+128)+1),w
   830  00CD' 3E30               	addlw	48
   831  00CE' 120A' 118A' 2000' 120A' 118A' 	fcall	_LCDByte
   832  00D3'                    l1992:
   833                           
   834                           ;adc ghep trong.c: 122: (LCDByte(Digit[0]+0x30,1));
   835  00D3' 1283               	bcf	3,5	;RP0=0, select bank0
   836  00D4' 1303               	bcf	3,6	;RP1=0, select bank0
   837  00D5' 0180'              	clrf	_LCDByte$1
   838  00D6' 0A80'              	incf	_LCDByte$1,f
   839  00D7' 1683               	bsf	3,5	;RP0=1, select bank1
   840  00D8' 1303               	bcf	3,6	;RP1=0, select bank1
   841  00D9' 0800'              	movf	main@Digit^(0+128),w
   842  00DA' 3E30               	addlw	48
   843  00DB' 120A' 118A' 2000' 120A' 118A' 	fcall	_LCDByte
   844  00E0'                    l1994:
   845                           
   846                           ;adc ghep trong.c: 123: ADC_Value=(unsigned int)Dienap;
   847  00E0' 1283               	bcf	3,5	;RP0=0, select bank0
   848  00E1' 1303               	bcf	3,6	;RP1=0, select bank0
   849  00E2' 0803'              	movf	_Dienap+3,w
   850  00E3' 1683               	bsf	3,5	;RP0=1, select bank1
   851  00E4' 1303               	bcf	3,6	;RP1=0, select bank1
   852  00E5' 0080'              	movwf	(___fltol@f1+3)^(0+128)
   853  00E6' 1283               	bcf	3,5	;RP0=0, select bank0
   854  00E7' 1303               	bcf	3,6	;RP1=0, select bank0
   855  00E8' 0802'              	movf	_Dienap+2,w
   856  00E9' 1683               	bsf	3,5	;RP0=1, select bank1
   857  00EA' 1303               	bcf	3,6	;RP1=0, select bank1
   858  00EB' 0080'              	movwf	(___fltol@f1+2)^(0+128)
   859  00EC' 1283               	bcf	3,5	;RP0=0, select bank0
   860  00ED' 1303               	bcf	3,6	;RP1=0, select bank0
   861  00EE' 0801'              	movf	_Dienap+1,w
   862  00EF' 1683               	bsf	3,5	;RP0=1, select bank1
   863  00F0' 1303               	bcf	3,6	;RP1=0, select bank1
   864  00F1' 0080'              	movwf	(___fltol@f1+1)^(0+128)
   865  00F2' 1283               	bcf	3,5	;RP0=0, select bank0
   866  00F3' 1303               	bcf	3,6	;RP1=0, select bank0
   867  00F4' 0800'              	movf	_Dienap,w
   868  00F5' 1683               	bsf	3,5	;RP0=1, select bank1
   869  00F6' 1303               	bcf	3,6	;RP1=0, select bank1
   870  00F7' 0080'              	movwf	___fltol@f1^(0+128)
   871  00F8' 120A' 118A' 2000' 120A' 118A' 	fcall	___fltol
   872  00FD' 1683               	bsf	3,5	;RP0=1, select bank1
   873  00FE' 1303               	bcf	3,6	;RP1=0, select bank1
   874  00FF' 0800'              	movf	(?___fltol+1)^(0+128),w
   875  0100' 0080'              	movwf	(main@ADC_Value+1)^(0+128)
   876  0101' 0800'              	movf	?___fltol^(0+128),w
   877  0102' 0080'              	movwf	main@ADC_Value^(0+128)
   878  0103'                    l1996:
   879                           
   880                           ;adc ghep trong.c: 124: Digit[2] = (ADC_Value/100);
   881  0103' 3064               	movlw	100
   882  0104' 0080'              	movwf	___lwdiv@divisor^(0+128)
   883  0105' 3000               	movlw	0
   884  0106' 0081'              	movwf	(___lwdiv@divisor^(0+128)+1)
   885  0107' 0800'              	movf	(main@ADC_Value+1)^(0+128),w
   886  0108' 0080'              	movwf	(___lwdiv@dividend+1)^(0+128)
   887  0109' 0800'              	movf	main@ADC_Value^(0+128),w
   888  010A' 0080'              	movwf	___lwdiv@dividend^(0+128)
   889  010B' 120A' 118A' 2000' 120A' 118A' 	fcall	___lwdiv
   890  0110' 1683               	bsf	3,5	;RP0=1, select bank1
   891  0111' 1303               	bcf	3,6	;RP1=0, select bank1
   892  0112' 0800'              	movf	?___lwdiv^(0+128),w
   893  0113' 0082'              	movwf	(main@Digit^(0+128)+2)
   894  0114'                    l1998:
   895                           
   896                           ;adc ghep trong.c: 125: Digit[1] = (ADC_Value%100)/10;
   897  0114' 300A               	movlw	10
   898  0115' 0080'              	movwf	___lwdiv@divisor^(0+128)
   899  0116' 3000               	movlw	0
   900  0117' 0081'              	movwf	(___lwdiv@divisor^(0+128)+1)
   901  0118' 0800'              	movf	(main@ADC_Value+1)^(0+128),w
   902  0119' 0080'              	movwf	(___lwmod@dividend+1)^(0+128)
   903  011A' 0800'              	movf	main@ADC_Value^(0+128),w
   904  011B' 0080'              	movwf	___lwmod@dividend^(0+128)
   905  011C' 3064               	movlw	100
   906  011D' 0080'              	movwf	___lwmod@divisor^(0+128)
   907  011E' 3000               	movlw	0
   908  011F' 0081'              	movwf	(___lwmod@divisor^(0+128)+1)
   909  0120' 120A' 118A' 2000' 120A' 118A' 	fcall	___lwmod
   910  0125' 1683               	bsf	3,5	;RP0=1, select bank1
   911  0126' 1303               	bcf	3,6	;RP1=0, select bank1
   912  0127' 0800'              	movf	(?___lwmod+1)^(0+128),w
   913  0128' 0080'              	movwf	(___lwdiv@dividend+1)^(0+128)
   914  0129' 0800'              	movf	?___lwmod^(0+128),w
   915  012A' 0080'              	movwf	___lwdiv@dividend^(0+128)
   916  012B' 120A' 118A' 2000' 120A' 118A' 	fcall	___lwdiv
   917  0130' 1683               	bsf	3,5	;RP0=1, select bank1
   918  0131' 1303               	bcf	3,6	;RP1=0, select bank1
   919  0132' 0800'              	movf	?___lwdiv^(0+128),w
   920  0133' 0081'              	movwf	(main@Digit^(0+128)+1)
   921  0134'                    l2000:
   922                           
   923                           ;adc ghep trong.c: 126: Digit[0] = (ADC_Value%100)%10;
   924  0134' 0800'              	movf	(main@ADC_Value+1)^(0+128),w
   925  0135' 0080'              	movwf	(___lwmod@dividend+1)^(0+128)
   926  0136' 0800'              	movf	main@ADC_Value^(0+128),w
   927  0137' 0080'              	movwf	___lwmod@dividend^(0+128)
   928  0138' 3064               	movlw	100
   929  0139' 0080'              	movwf	___lwmod@divisor^(0+128)
   930  013A' 3000               	movlw	0
   931  013B' 0081'              	movwf	(___lwmod@divisor^(0+128)+1)
   932  013C' 120A' 118A' 2000' 120A' 118A' 	fcall	___lwmod
   933  0141' 1683               	bsf	3,5	;RP0=1, select bank1
   934  0142' 1303               	bcf	3,6	;RP1=0, select bank1
   935  0143' 0800'              	movf	(?___lwmod+1)^(0+128),w
   936  0144' 0080'              	movwf	(_main$711+1)^(0+128)
   937  0145' 0800'              	movf	?___lwmod^(0+128),w
   938  0146' 0080'              	movwf	_main$711^(0+128)
   939  0147'                    l2002:
   940                           
   941                           ;adc ghep trong.c: 126: Digit[0] = (ADC_Value%100)%10;
   942  0147' 300A               	movlw	10
   943  0148' 0080'              	movwf	___lwmod@divisor^(0+128)
   944  0149' 3000               	movlw	0
   945  014A' 0081'              	movwf	(___lwmod@divisor^(0+128)+1)
   946  014B' 0800'              	movf	(_main$711+1)^(0+128),w
   947  014C' 0080'              	movwf	(___lwmod@dividend+1)^(0+128)
   948  014D' 0800'              	movf	_main$711^(0+128),w
   949  014E' 0080'              	movwf	___lwmod@dividend^(0+128)
   950  014F' 120A' 118A' 2000' 120A' 118A' 	fcall	___lwmod
   951  0154' 1683               	bsf	3,5	;RP0=1, select bank1
   952  0155' 1303               	bcf	3,6	;RP1=0, select bank1
   953  0156' 0800'              	movf	?___lwmod^(0+128),w
   954  0157' 0080'              	movwf	main@Digit^(0+128)
   955  0158'                    l2004:
   956                           
   957                           ;adc ghep trong.c: 127: LCDGotoXY(1,1);
   958  0158' 1283               	bcf	3,5	;RP0=0, select bank0
   959  0159' 1303               	bcf	3,6	;RP1=0, select bank0
   960  015A' 0180'              	clrf	_LCDGotoXY$1
   961  015B' 0A80'              	incf	_LCDGotoXY$1,f
   962  015C' 3001               	movlw	1
   963  015D' 120A' 118A' 2000' 120A' 118A' 	fcall	_LCDGotoXY
   964  0162'                    l2006:
   965                           
   966                           ;adc ghep trong.c: 128: LCDWriteString("Gia tri U=   ");
   967  0162' 300F               	movlw	(low ((STR_2-__stringbase)| (0+32768)))& (0+255)
   968  0163' 120A' 118A' 2000' 120A' 118A' 	fcall	_LCDWriteString
   969  0168'                    l2008:
   970                           
   971                           ;adc ghep trong.c: 129: (LCDByte(Digit[2]+0x30,1));
   972  0168' 1283               	bcf	3,5	;RP0=0, select bank0
   973  0169' 1303               	bcf	3,6	;RP1=0, select bank0
   974  016A' 0180'              	clrf	_LCDByte$1
   975  016B' 0A80'              	incf	_LCDByte$1,f
   976  016C' 1683               	bsf	3,5	;RP0=1, select bank1
   977  016D' 1303               	bcf	3,6	;RP1=0, select bank1
   978  016E' 0802'              	movf	(main@Digit^(0+128)+2),w
   979  016F' 3E30               	addlw	48
   980  0170' 120A' 118A' 2000' 120A' 118A' 	fcall	_LCDByte
   981  0175'                    l2010:
   982                           
   983                           ;adc ghep trong.c: 130: (LCDByte('.',1));
   984  0175' 1283               	bcf	3,5	;RP0=0, select bank0
   985  0176' 1303               	bcf	3,6	;RP1=0, select bank0
   986  0177' 0180'              	clrf	_LCDByte$1
   987  0178' 0A80'              	incf	_LCDByte$1,f
   988  0179' 302E               	movlw	46
   989  017A' 120A' 118A' 2000' 120A' 118A' 	fcall	_LCDByte
   990  017F'                    l2012:
   991                           
   992                           ;adc ghep trong.c: 131: (LCDByte(Digit[1]+0x30,1));
   993  017F' 1283               	bcf	3,5	;RP0=0, select bank0
   994  0180' 1303               	bcf	3,6	;RP1=0, select bank0
   995  0181' 0180'              	clrf	_LCDByte$1
   996  0182' 0A80'              	incf	_LCDByte$1,f
   997  0183' 1683               	bsf	3,5	;RP0=1, select bank1
   998  0184' 1303               	bcf	3,6	;RP1=0, select bank1
   999  0185' 0801'              	movf	(main@Digit^(0+128)+1),w
  1000  0186' 3E30               	addlw	48
  1001  0187' 120A' 118A' 2000' 120A' 118A' 	fcall	_LCDByte
  1002  018C'                    l2014:
  1003                           
  1004                           ;adc ghep trong.c: 132: (LCDByte(Digit[0]+0x30,1));
  1005  018C' 1283               	bcf	3,5	;RP0=0, select bank0
  1006  018D' 1303               	bcf	3,6	;RP1=0, select bank0
  1007  018E' 0180'              	clrf	_LCDByte$1
  1008  018F' 0A80'              	incf	_LCDByte$1,f
  1009  0190' 1683               	bsf	3,5	;RP0=1, select bank1
  1010  0191' 1303               	bcf	3,6	;RP1=0, select bank1
  1011  0192' 0800'              	movf	main@Digit^(0+128),w
  1012  0193' 3E30               	addlw	48
  1013  0194' 120A' 118A' 2000' 120A' 118A' 	fcall	_LCDByte
  1014  0199'                    l2016:
  1015                           
  1016                           ;adc ghep trong.c: 135: (LCDByte(0b00000001,0));
  1017  0199' 1283               	bcf	3,5	;RP0=0, select bank0
  1018  019A' 1303               	bcf	3,6	;RP1=0, select bank0
  1019  019B' 0180'              	clrf	_LCDByte$1
  1020  019C' 3001               	movlw	1
  1021  019D' 120A' 118A' 2000' 120A' 118A' 	fcall	_LCDByte
  1022  01A2' 2800'              	goto	l1966
  1023  01A3' 120A' 118A' 2800'  	ljmp	start
  1024  01A6'                    __end_of_main:
  1025                           
  1026                           	psect	text1
  1027  0000'                    __ptext1:	
  1028 ;; *************** function _timer2_initialize *****************
  1029 ;; Defined at:
  1030 ;;		line 59 in file "adc ghep trong.c"
  1031 ;; Parameters:    Size  Location     Type
  1032 ;;		None
  1033 ;; Auto vars:     Size  Location     Type
  1034 ;;		None
  1035 ;; Return value:  Size  Location     Type
  1036 ;;                  1    wreg      void 
  1037 ;; Registers used:
  1038 ;;		wreg
  1039 ;; Tracked objects:
  1040 ;;		On entry : 0/0
  1041 ;;		On exit  : 0/0
  1042 ;;		Unchanged: 0/0
  1043 ;; Data sizes:     COMMON   BANK0   BANK1   BANK3   BANK2
  1044 ;;      Params:         0       0       0       0       0
  1045 ;;      Locals:         0       0       0       0       0
  1046 ;;      Temps:          0       0       0       0       0
  1047 ;;      Totals:         0       0       0       0       0
  1048 ;;Total ram usage:        0 bytes
  1049 ;; Hardware stack levels used: 1
  1050 ;; Hardware stack levels required when called: 3
  1051 ;; This function calls:
  1052 ;;		Nothing
  1053 ;; This function is called by:
  1054 ;;		_main
  1055 ;; This function uses a non-reentrant model
  1056 ;;
  1057                           
  1058  0000'                    _timer2_initialize:	
  1059                           ;psect for function _timer2_initialize
  1060                           
  1061  0000'                    l1850:	
  1062                           ;incstack = 0
  1063                           ; Regs used in _timer2_initialize: [wreg]
  1064                           
  1065                           
  1066                           ;adc ghep trong.c: 61: T2CKPS0=1;
  1067  0000' 1283               	bcf	3,5	;RP0=0, select bank0
  1068  0001' 1303               	bcf	3,6	;RP1=0, select bank0
  1069  0002' 1412               	bsf	18,0	;volatile
  1070                           
  1071                           ;adc ghep trong.c: 62: T2CKPS1=0;
  1072  0003' 1092               	bcf	18,1	;volatile
  1073  0004'                    l1852:
  1074                           
  1075                           ;adc ghep trong.c: 63: PR2=100;
  1076  0004' 3064               	movlw	100
  1077  0005' 1683               	bsf	3,5	;RP0=1, select bank1
  1078  0006' 1303               	bcf	3,6	;RP1=0, select bank1
  1079  0007' 0092               	movwf	18	;volatile
  1080  0008'                    l1854:
  1081                           
  1082                           ;adc ghep trong.c: 64: TOUTPS0=1;
  1083  0008' 1283               	bcf	3,5	;RP0=0, select bank0
  1084  0009' 1303               	bcf	3,6	;RP1=0, select bank0
  1085  000A' 1592               	bsf	18,3	;volatile
  1086  000B'                    l1856:
  1087                           
  1088                           ;adc ghep trong.c: 65: TOUTPS1=0;
  1089  000B' 1212               	bcf	18,4	;volatile
  1090  000C'                    l1858:
  1091                           
  1092                           ;adc ghep trong.c: 66: TOUTPS2=0;
  1093  000C' 1292               	bcf	18,5	;volatile
  1094  000D'                    l1860:
  1095                           
  1096                           ;adc ghep trong.c: 67: TOUTPS3=1;
  1097  000D' 1712               	bsf	18,6	;volatile
  1098  000E'                    l1862:
  1099                           
  1100                           ;adc ghep trong.c: 68: TMR2ON=1;
  1101  000E' 1512               	bsf	18,2	;volatile
  1102  000F'                    l1864:
  1103                           
  1104                           ;adc ghep trong.c: 69: TMR2IE=1;
  1105  000F' 1683               	bsf	3,5	;RP0=1, select bank1
  1106  0010' 1303               	bcf	3,6	;RP1=0, select bank1
  1107  0011' 148C               	bsf	12,1	;volatile
  1108  0012'                    l1866:
  1109                           
  1110                           ;adc ghep trong.c: 70: PEIE=1;
  1111  0012' 170B               	bsf	11,6	;volatile
  1112  0013'                    l1868:
  1113                           
  1114                           ;adc ghep trong.c: 71: GIE=1;
  1115  0013' 178B               	bsf	11,7	;volatile
  1116  0014'                    l84:
  1117  0014' 0008               	return
  1118  0015'                    __end_of_timer2_initialize:
  1119                           
  1120                           	psect	text2
  1121  0000'                    __ptext2:	
  1122 ;; *************** function ___lwmod *****************
  1123 ;; Defined at:
  1124 ;;		line 5 in file "C:\Program Files\Microchip\xc8\v2.40\pic\sources\c90\common\lwmod.c"
  1125 ;; Parameters:    Size  Location     Type
  1126 ;;  divisor         2    0[BANK1 ] unsigned int 
  1127 ;;  dividend        2    2[BANK1 ] unsigned int 
  1128 ;; Auto vars:     Size  Location     Type
  1129 ;;  counter         1    4[BANK1 ] unsigned char 
  1130 ;; Return value:  Size  Location     Type
  1131 ;;                  2    0[BANK1 ] unsigned int 
  1132 ;; Registers used:
  1133 ;;		wreg, status,2, status,0
  1134 ;; Tracked objects:
  1135 ;;		On entry : 0/0
  1136 ;;		On exit  : 0/0
  1137 ;;		Unchanged: 0/0
  1138 ;; Data sizes:     COMMON   BANK0   BANK1   BANK3   BANK2
  1139 ;;      Params:         0       0       4       0       0
  1140 ;;      Locals:         0       0       1       0       0
  1141 ;;      Temps:          0       1       0       0       0
  1142 ;;      Totals:         0       1       5       0       0
  1143 ;;Total ram usage:        6 bytes
  1144 ;; Hardware stack levels used: 1
  1145 ;; Hardware stack levels required when called: 3
  1146 ;; This function calls:
  1147 ;;		Nothing
  1148 ;; This function is called by:
  1149 ;;		_main
  1150 ;; This function uses a non-reentrant model
  1151 ;;
  1152                           
  1153  0000'                    ___lwmod:	
  1154                           ;psect for function ___lwmod
  1155                           
  1156  0000'                    l1932:	
  1157                           ;incstack = 0
  1158                           ; Regs used in ___lwmod: [wreg+status,2+status,0]
  1159                           
  1160  0000' 1683               	bsf	3,5	;RP0=1, select bank1
  1161  0001' 1303               	bcf	3,6	;RP1=0, select bank1
  1162  0002' 0800'              	movf	___lwmod@divisor^(0+128),w
  1163  0003' 0400'              	iorwf	(___lwmod@divisor+1)^(0+128),w
  1164  0004' 1903               	btfsc	3,2
  1165  0005' 2800'              	goto	u2461
  1166  0006' 2800'              	goto	u2460
  1167  0007'                    u2461:
  1168  0007' 2800'              	goto	l1950
  1169  0008'                    u2460:
  1170  0008'                    l1934:
  1171  0008' 0180'              	clrf	___lwmod@counter^(0+128)
  1172  0009' 0A80'              	incf	___lwmod@counter^(0+128),f
  1173  000A' 2800'              	goto	l1940
  1174  000B'                    l1936:
  1175  000B' 3001               	movlw	1
  1176  000C'                    u2475:
  1177  000C' 1003               	clrc
  1178  000D' 0D80'              	rlf	___lwmod@divisor^(0+128),f
  1179  000E' 0D80'              	rlf	(___lwmod@divisor+1)^(0+128),f
  1180  000F' 3EFF               	addlw	-1
  1181  0010' 1D03               	skipz
  1182  0011' 2800'              	goto	u2475
  1183  0012'                    l1938:
  1184  0012' 3001               	movlw	1
  1185  0013' 1283               	bcf	3,5	;RP0=0, select bank0
  1186  0014' 1303               	bcf	3,6	;RP1=0, select bank0
  1187  0015' 009D'              	movwf	??___lwmod
  1188  0016' 081D'              	movf	??___lwmod,w
  1189  0017' 1683               	bsf	3,5	;RP0=1, select bank1
  1190  0018' 1303               	bcf	3,6	;RP1=0, select bank1
  1191  0019' 0780'              	addwf	___lwmod@counter^(0+128),f
  1192  001A'                    l1940:
  1193  001A' 1F80'              	btfss	(___lwmod@divisor+1)^(0+128),7
  1194  001B' 2800'              	goto	u2481
  1195  001C' 2800'              	goto	u2480
  1196  001D'                    u2481:
  1197  001D' 2800'              	goto	l1936
  1198  001E'                    u2480:
  1199  001E'                    l1942:
  1200  001E' 0800'              	movf	(___lwmod@divisor+1)^(0+128),w
  1201  001F' 0200'              	subwf	(___lwmod@dividend+1)^(0+128),w
  1202  0020' 1D03               	skipz
  1203  0021' 2800'              	goto	u2495
  1204  0022' 0800'              	movf	___lwmod@divisor^(0+128),w
  1205  0023' 0200'              	subwf	___lwmod@dividend^(0+128),w
  1206  0024'                    u2495:
  1207  0024' 1C03               	skipc
  1208  0025' 2800'              	goto	u2491
  1209  0026' 2800'              	goto	u2490
  1210  0027'                    u2491:
  1211  0027' 2800'              	goto	l1946
  1212  0028'                    u2490:
  1213  0028'                    l1944:
  1214  0028' 0800'              	movf	___lwmod@divisor^(0+128),w
  1215  0029' 0280'              	subwf	___lwmod@dividend^(0+128),f
  1216  002A' 0800'              	movf	(___lwmod@divisor+1)^(0+128),w
  1217  002B' 1C03               	skipc
  1218  002C' 0380'              	decf	(___lwmod@dividend+1)^(0+128),f
  1219  002D' 0280'              	subwf	(___lwmod@dividend+1)^(0+128),f
  1220  002E'                    l1946:
  1221  002E' 3001               	movlw	1
  1222  002F'                    u2505:
  1223  002F' 1003               	clrc
  1224  0030' 0C80'              	rrf	(___lwmod@divisor+1)^(0+128),f
  1225  0031' 0C80'              	rrf	___lwmod@divisor^(0+128),f
  1226  0032' 3EFF               	addlw	-1
  1227  0033' 1D03               	skipz
  1228  0034' 2800'              	goto	u2505
  1229  0035'                    l1948:
  1230  0035' 3001               	movlw	1
  1231  0036' 0280'              	subwf	___lwmod@counter^(0+128),f
  1232  0037' 1D03               	btfss	3,2
  1233  0038' 2800'              	goto	u2511
  1234  0039' 2800'              	goto	u2510
  1235  003A'                    u2511:
  1236  003A' 2800'              	goto	l1942
  1237  003B'                    u2510:
  1238  003B'                    l1950:
  1239  003B' 0800'              	movf	(___lwmod@dividend+1)^(0+128),w
  1240  003C' 0080'              	movwf	(?___lwmod+1)^(0+128)
  1241  003D' 0800'              	movf	___lwmod@dividend^(0+128),w
  1242  003E' 0080'              	movwf	?___lwmod^(0+128)
  1243  003F'                    l472:
  1244  003F' 0008               	return
  1245  0040'                    __end_of___lwmod:
  1246                           
  1247                           	psect	text3
  1248  0000'                    __ptext3:	
  1249 ;; *************** function ___lwdiv *****************
  1250 ;; Defined at:
  1251 ;;		line 5 in file "C:\Program Files\Microchip\xc8\v2.40\pic\sources\c90\common\lwdiv.c"
  1252 ;; Parameters:    Size  Location     Type
  1253 ;;  divisor         2    5[BANK1 ] unsigned int 
  1254 ;;  dividend        2    7[BANK1 ] unsigned int 
  1255 ;; Auto vars:     Size  Location     Type
  1256 ;;  quotient        2   11[BANK1 ] unsigned int 
  1257 ;;  counter         1   10[BANK1 ] unsigned char 
  1258 ;; Return value:  Size  Location     Type
  1259 ;;                  2    5[BANK1 ] unsigned int 
  1260 ;; Registers used:
  1261 ;;		wreg, status,2, status,0
  1262 ;; Tracked objects:
  1263 ;;		On entry : 0/0
  1264 ;;		On exit  : 0/0
  1265 ;;		Unchanged: 0/0
  1266 ;; Data sizes:     COMMON   BANK0   BANK1   BANK3   BANK2
  1267 ;;      Params:         0       0       4       0       0
  1268 ;;      Locals:         0       0       3       0       0
  1269 ;;      Temps:          0       0       1       0       0
  1270 ;;      Totals:         0       0       8       0       0
  1271 ;;Total ram usage:        8 bytes
  1272 ;; Hardware stack levels used: 1
  1273 ;; Hardware stack levels required when called: 3
  1274 ;; This function calls:
  1275 ;;		Nothing
  1276 ;; This function is called by:
  1277 ;;		_main
  1278 ;; This function uses a non-reentrant model
  1279 ;;
  1280                           
  1281  0000'                    ___lwdiv:	
  1282                           ;psect for function ___lwdiv
  1283                           
  1284  0000'                    l1906:	
  1285                           ;incstack = 0
  1286                           ; Regs used in ___lwdiv: [wreg+status,2+status,0]
  1287                           
  1288  0000' 1683               	bsf	3,5	;RP0=1, select bank1
  1289  0001' 1303               	bcf	3,6	;RP1=0, select bank1
  1290  0002' 0180'              	clrf	___lwdiv@quotient^(0+128)
  1291  0003' 0180'              	clrf	(___lwdiv@quotient+1)^(0+128)
  1292  0004'                    l1908:
  1293  0004' 0800'              	movf	___lwdiv@divisor^(0+128),w
  1294  0005' 0400'              	iorwf	(___lwdiv@divisor+1)^(0+128),w
  1295  0006' 1903               	btfsc	3,2
  1296  0007' 2800'              	goto	u2391
  1297  0008' 2800'              	goto	u2390
  1298  0009'                    u2391:
  1299  0009' 2800'              	goto	l1928
  1300  000A'                    u2390:
  1301  000A'                    l1910:
  1302  000A' 0180'              	clrf	___lwdiv@counter^(0+128)
  1303  000B' 0A80'              	incf	___lwdiv@counter^(0+128),f
  1304  000C' 2800'              	goto	l1916
  1305  000D'                    l1912:
  1306  000D' 3001               	movlw	1
  1307  000E'                    u2405:
  1308  000E' 1003               	clrc
  1309  000F' 0D80'              	rlf	___lwdiv@divisor^(0+128),f
  1310  0010' 0D80'              	rlf	(___lwdiv@divisor+1)^(0+128),f
  1311  0011' 3EFF               	addlw	-1
  1312  0012' 1D03               	skipz
  1313  0013' 2800'              	goto	u2405
  1314  0014'                    l1914:
  1315  0014' 3001               	movlw	1
  1316  0015' 0080'              	movwf	??___lwdiv^(0+128)
  1317  0016' 0800'              	movf	??___lwdiv^(0+128),w
  1318  0017' 0780'              	addwf	___lwdiv@counter^(0+128),f
  1319  0018'                    l1916:
  1320  0018' 1F80'              	btfss	(___lwdiv@divisor+1)^(0+128),7
  1321  0019' 2800'              	goto	u2411
  1322  001A' 2800'              	goto	u2410
  1323  001B'                    u2411:
  1324  001B' 2800'              	goto	l1912
  1325  001C'                    u2410:
  1326  001C'                    l1918:
  1327  001C' 3001               	movlw	1
  1328  001D'                    u2425:
  1329  001D' 1003               	clrc
  1330  001E' 0D80'              	rlf	___lwdiv@quotient^(0+128),f
  1331  001F' 0D80'              	rlf	(___lwdiv@quotient+1)^(0+128),f
  1332  0020' 3EFF               	addlw	-1
  1333  0021' 1D03               	skipz
  1334  0022' 2800'              	goto	u2425
  1335  0023' 0800'              	movf	(___lwdiv@divisor+1)^(0+128),w
  1336  0024' 0200'              	subwf	(___lwdiv@dividend+1)^(0+128),w
  1337  0025' 1D03               	skipz
  1338  0026' 2800'              	goto	u2435
  1339  0027' 0800'              	movf	___lwdiv@divisor^(0+128),w
  1340  0028' 0200'              	subwf	___lwdiv@dividend^(0+128),w
  1341  0029'                    u2435:
  1342  0029' 1C03               	skipc
  1343  002A' 2800'              	goto	u2431
  1344  002B' 2800'              	goto	u2430
  1345  002C'                    u2431:
  1346  002C' 2800'              	goto	l1924
  1347  002D'                    u2430:
  1348  002D'                    l1920:
  1349  002D' 0800'              	movf	___lwdiv@divisor^(0+128),w
  1350  002E' 0280'              	subwf	___lwdiv@dividend^(0+128),f
  1351  002F' 0800'              	movf	(___lwdiv@divisor+1)^(0+128),w
  1352  0030' 1C03               	skipc
  1353  0031' 0380'              	decf	(___lwdiv@dividend+1)^(0+128),f
  1354  0032' 0280'              	subwf	(___lwdiv@dividend+1)^(0+128),f
  1355  0033'                    l1922:
  1356  0033' 1400'              	bsf	___lwdiv@quotient^(0+128),0
  1357  0034'                    l1924:
  1358  0034' 3001               	movlw	1
  1359  0035'                    u2445:
  1360  0035' 1003               	clrc
  1361  0036' 0C80'              	rrf	(___lwdiv@divisor+1)^(0+128),f
  1362  0037' 0C80'              	rrf	___lwdiv@divisor^(0+128),f
  1363  0038' 3EFF               	addlw	-1
  1364  0039' 1D03               	skipz
  1365  003A' 2800'              	goto	u2445
  1366  003B'                    l1926:
  1367  003B' 3001               	movlw	1
  1368  003C' 0280'              	subwf	___lwdiv@counter^(0+128),f
  1369  003D' 1D03               	btfss	3,2
  1370  003E' 2800'              	goto	u2451
  1371  003F' 2800'              	goto	u2450
  1372  0040'                    u2451:
  1373  0040' 2800'              	goto	l1918
  1374  0041'                    u2450:
  1375  0041'                    l1928:
  1376  0041' 0800'              	movf	(___lwdiv@quotient+1)^(0+128),w
  1377  0042' 0080'              	movwf	(?___lwdiv+1)^(0+128)
  1378  0043' 0800'              	movf	___lwdiv@quotient^(0+128),w
  1379  0044' 0080'              	movwf	?___lwdiv^(0+128)
  1380  0045'                    l462:
  1381  0045' 0008               	return
  1382  0046'                    __end_of___lwdiv:
  1383                           
  1384                           	psect	text4
  1385  0000'                    __ptext4:	
  1386 ;; *************** function ___fltol *****************
  1387 ;; Defined at:
  1388 ;;		line 43 in file "C:\Program Files\Microchip\xc8\v2.40\pic\sources\c90\common\fltol.c"
  1389 ;; Parameters:    Size  Location     Type
  1390 ;;  f1              4    0[BANK1 ] unsigned int 
  1391 ;; Auto vars:     Size  Location     Type
  1392 ;;  exp1            1    9[BANK1 ] unsigned char 
  1393 ;;  sign1           1    8[BANK1 ] unsigned char 
  1394 ;; Return value:  Size  Location     Type
  1395 ;;                  4    0[BANK1 ] long 
  1396 ;; Registers used:
  1397 ;;		wreg, status,2, status,0
  1398 ;; Tracked objects:
  1399 ;;		On entry : 0/0
  1400 ;;		On exit  : 0/0
  1401 ;;		Unchanged: 0/0
  1402 ;; Data sizes:     COMMON   BANK0   BANK1   BANK3   BANK2
  1403 ;;      Params:         0       0       4       0       0
  1404 ;;      Locals:         0       0       2       0       0
  1405 ;;      Temps:          0       0       4       0       0
  1406 ;;      Totals:         0       0      10       0       0
  1407 ;;Total ram usage:       10 bytes
  1408 ;; Hardware stack levels used: 1
  1409 ;; Hardware stack levels required when called: 3
  1410 ;; This function calls:
  1411 ;;		Nothing
  1412 ;; This function is called by:
  1413 ;;		_main
  1414 ;; This function uses a non-reentrant model
  1415 ;;
  1416                           
  1417  0000'                    ___fltol:	
  1418                           ;psect for function ___fltol
  1419                           
  1420  0000'                    l1870:	
  1421                           ;incstack = 0
  1422                           ; Regs used in ___fltol: [wreg+status,2+status,0]
  1423                           
  1424  0000' 1003               	clrc
  1425  0001' 1683               	bsf	3,5	;RP0=1, select bank1
  1426  0002' 1303               	bcf	3,6	;RP1=0, select bank1
  1427  0003' 0D00'              	rlf	(___fltol@f1+2)^(0+128),w
  1428  0004' 0D00'              	rlf	(___fltol@f1+3)^(0+128),w
  1429  0005' 0080'              	movwf	___fltol@exp1^(0+128)
  1430  0006' 0800'              	movf	___fltol@exp1^(0+128),w
  1431  0007' 1D03               	btfss	3,2
  1432  0008' 2800'              	goto	u2291
  1433  0009' 2800'              	goto	u2290
  1434  000A'                    u2291:
  1435  000A' 2800'              	goto	l1876
  1436  000B'                    u2290:
  1437  000B'                    l1872:
  1438  000B' 3000               	movlw	0
  1439  000C' 0080'              	movwf	(?___fltol+3)^(0+128)
  1440  000D' 3000               	movlw	0
  1441  000E' 0080'              	movwf	(?___fltol+2)^(0+128)
  1442  000F' 3000               	movlw	0
  1443  0010' 0080'              	movwf	(?___fltol+1)^(0+128)
  1444  0011' 3000               	movlw	0
  1445  0012' 0080'              	movwf	?___fltol^(0+128)
  1446  0013' 2800'              	goto	l376
  1447  0014'                    l1876:
  1448  0014' 0800'              	movf	___fltol@f1^(0+128),w
  1449  0015' 0080'              	movwf	??___fltol^(0+128)
  1450  0016' 0800'              	movf	(___fltol@f1+1)^(0+128),w
  1451  0017' 0081'              	movwf	(??___fltol^(0+128)+1)
  1452  0018' 0800'              	movf	(___fltol@f1+2)^(0+128),w
  1453  0019' 0082'              	movwf	(??___fltol^(0+128)+2)
  1454  001A' 0800'              	movf	(___fltol@f1+3)^(0+128),w
  1455  001B' 0083'              	movwf	(??___fltol^(0+128)+3)
  1456  001C' 301F               	movlw	31
  1457  001D'                    u2305:
  1458  001D' 1003               	clrc
  1459  001E' 0C83'              	rrf	(??___fltol^(0+128)+3),f
  1460  001F' 0C82'              	rrf	(??___fltol^(0+128)+2),f
  1461  0020' 0C81'              	rrf	(??___fltol^(0+128)+1),f
  1462  0021' 0C80'              	rrf	??___fltol^(0+128),f
  1463  0022'                    u2300:
  1464  0022' 3EFF               	addlw	-1
  1465  0023' 1D03               	skipz
  1466  0024' 2800'              	goto	u2305
  1467  0025' 0800'              	movf	??___fltol^(0+128),w
  1468  0026' 0080'              	movwf	___fltol@sign1^(0+128)
  1469  0027'                    l1878:
  1470  0027' 1782'              	bsf	(___fltol@f1^(0+128)+2),7
  1471  0028'                    l1880:
  1472  0028' 30FF               	movlw	255
  1473  0029' 0580'              	andwf	___fltol@f1^(0+128),f
  1474  002A' 30FF               	movlw	255
  1475  002B' 0580'              	andwf	(___fltol@f1+1)^(0+128),f
  1476  002C' 30FF               	movlw	255
  1477  002D' 0580'              	andwf	(___fltol@f1+2)^(0+128),f
  1478  002E' 3000               	movlw	0
  1479  002F' 0580'              	andwf	(___fltol@f1+3)^(0+128),f
  1480  0030'                    l1882:
  1481  0030' 3096               	movlw	150
  1482  0031' 0280'              	subwf	___fltol@exp1^(0+128),f
  1483  0032'                    l1884:
  1484  0032' 1F80'              	btfss	___fltol@exp1^(0+128),7
  1485  0033' 2800'              	goto	u2311
  1486  0034' 2800'              	goto	u2310
  1487  0035'                    u2311:
  1488  0035' 2800'              	goto	l1894
  1489  0036'                    u2310:
  1490  0036'                    l1886:
  1491  0036' 0800'              	movf	___fltol@exp1^(0+128),w
  1492  0037' 3A80               	xorlw	128
  1493  0038' 3E97               	addlw	151
  1494  0039' 1803               	skipnc
  1495  003A' 2800'              	goto	u2321
  1496  003B' 2800'              	goto	u2320
  1497  003C'                    u2321:
  1498  003C' 2800'              	goto	l1892
  1499  003D'                    u2320:
  1500  003D' 2800'              	goto	l1872
  1501  003E'                    l1892:
  1502  003E' 3001               	movlw	1
  1503  003F'                    u2335:
  1504  003F' 1003               	clrc
  1505  0040' 0C80'              	rrf	(___fltol@f1+3)^(0+128),f
  1506  0041' 0C80'              	rrf	(___fltol@f1+2)^(0+128),f
  1507  0042' 0C80'              	rrf	(___fltol@f1+1)^(0+128),f
  1508  0043' 0C80'              	rrf	___fltol@f1^(0+128),f
  1509  0044' 3EFF               	addlw	-1
  1510  0045' 1D03               	skipz
  1511  0046' 2800'              	goto	u2335
  1512  0047' 3001               	movlw	1
  1513  0048' 0080'              	movwf	??___fltol^(0+128)
  1514  0049' 0800'              	movf	??___fltol^(0+128),w
  1515  004A' 0780'              	addwf	___fltol@exp1^(0+128),f
  1516  004B' 1D03               	btfss	3,2
  1517  004C' 2800'              	goto	u2341
  1518  004D' 2800'              	goto	u2340
  1519  004E'                    u2341:
  1520  004E' 2800'              	goto	l1892
  1521  004F'                    u2340:
  1522  004F' 2800'              	goto	l1902
  1523  0050'                    l1894:
  1524  0050' 3020               	movlw	32
  1525  0051' 0200'              	subwf	___fltol@exp1^(0+128),w
  1526  0052' 1C03               	skipc
  1527  0053' 2800'              	goto	u2351
  1528  0054' 2800'              	goto	u2350
  1529  0055'                    u2351:
  1530  0055' 2800'              	goto	l383
  1531  0056'                    u2350:
  1532  0056' 2800'              	goto	l1872
  1533  0057'                    l1900:
  1534  0057' 3001               	movlw	1
  1535  0058' 0080'              	movwf	??___fltol^(0+128)
  1536  0059'                    u2365:
  1537  0059' 1003               	clrc
  1538  005A' 0D80'              	rlf	___fltol@f1^(0+128),f
  1539  005B' 0D80'              	rlf	(___fltol@f1+1)^(0+128),f
  1540  005C' 0D80'              	rlf	(___fltol@f1+2)^(0+128),f
  1541  005D' 0D80'              	rlf	(___fltol@f1+3)^(0+128),f
  1542  005E' 0B80'              	decfsz	??___fltol^(0+128),f
  1543  005F' 2800'              	goto	u2365
  1544  0060' 3001               	movlw	1
  1545  0061' 0280'              	subwf	___fltol@exp1^(0+128),f
  1546  0062'                    l383:
  1547  0062' 0800'              	movf	___fltol@exp1^(0+128),w
  1548  0063' 1D03               	btfss	3,2
  1549  0064' 2800'              	goto	u2371
  1550  0065' 2800'              	goto	u2370
  1551  0066'                    u2371:
  1552  0066' 2800'              	goto	l1900
  1553  0067'                    u2370:
  1554  0067'                    l1902:
  1555  0067' 0800'              	movf	___fltol@sign1^(0+128),w
  1556  0068' 1903               	btfsc	3,2
  1557  0069' 2800'              	goto	u2381
  1558  006A' 2800'              	goto	u2380
  1559  006B'                    u2381:
  1560  006B' 2800'              	goto	l386
  1561  006C'                    u2380:
  1562  006C'                    l1904:
  1563  006C' 0980'              	comf	___fltol@f1^(0+128),f
  1564  006D' 0980'              	comf	(___fltol@f1+1)^(0+128),f
  1565  006E' 0980'              	comf	(___fltol@f1+2)^(0+128),f
  1566  006F' 0980'              	comf	(___fltol@f1+3)^(0+128),f
  1567  0070' 0A80'              	incf	___fltol@f1^(0+128),f
  1568  0071' 1903               	skipnz
  1569  0072' 0A80'              	incf	(___fltol@f1+1)^(0+128),f
  1570  0073' 1903               	skipnz
  1571  0074' 0A80'              	incf	(___fltol@f1+2)^(0+128),f
  1572  0075' 1903               	skipnz
  1573  0076' 0A80'              	incf	(___fltol@f1+3)^(0+128),f
  1574  0077'                    l386:
  1575  0077'                    l376:
  1576  0077' 0008               	return
  1577  0078'                    __end_of___fltol:
  1578                           
  1579                           	psect	text5
  1580  0000'                    __ptext5:	
  1581 ;; *************** function _InitAdc *****************
  1582 ;; Defined at:
  1583 ;;		line 38 in file "adc ghep trong.c"
  1584 ;; Parameters:    Size  Location     Type
  1585 ;;		None
  1586 ;; Auto vars:     Size  Location     Type
  1587 ;;		None
  1588 ;; Return value:  Size  Location     Type
  1589 ;;                  1    wreg      void 
  1590 ;; Registers used:
  1591 ;;		wreg
  1592 ;; Tracked objects:
  1593 ;;		On entry : 0/0
  1594 ;;		On exit  : 0/0
  1595 ;;		Unchanged: 0/0
  1596 ;; Data sizes:     COMMON   BANK0   BANK1   BANK3   BANK2
  1597 ;;      Params:         0       0       0       0       0
  1598 ;;      Locals:         0       0       0       0       0
  1599 ;;      Temps:          0       0       0       0       0
  1600 ;;      Totals:         0       0       0       0       0
  1601 ;;Total ram usage:        0 bytes
  1602 ;; Hardware stack levels used: 1
  1603 ;; Hardware stack levels required when called: 3
  1604 ;; This function calls:
  1605 ;;		Nothing
  1606 ;; This function is called by:
  1607 ;;		_main
  1608 ;; This function uses a non-reentrant model
  1609 ;;
  1610                           
  1611  0000'                    _InitAdc:	
  1612                           ;psect for function _InitAdc
  1613                           
  1614  0000'                    l1848:	
  1615                           ;incstack = 0
  1616                           ; Regs used in _InitAdc: [wreg]
  1617                           
  1618                           
  1619                           ;adc ghep trong.c: 40: ADCON1 = 0xC4;
  1620  0000' 30C4               	movlw	196
  1621  0001' 1683               	bsf	3,5	;RP0=1, select bank1
  1622  0002' 1303               	bcf	3,6	;RP1=0, select bank1
  1623  0003' 009F               	movwf	31	;volatile
  1624                           
  1625                           ;adc ghep trong.c: 41: ADCON0 =0x80;
  1626  0004' 3080               	movlw	128
  1627  0005' 1283               	bcf	3,5	;RP0=0, select bank0
  1628  0006' 1303               	bcf	3,6	;RP1=0, select bank0
  1629  0007' 009F               	movwf	31	;volatile
  1630  0008'                    l71:
  1631  0008' 0008               	return
  1632  0009'                    __end_of_InitAdc:
  1633                           
  1634                           	psect	text6
  1635  0000'                    __ptext6:	
  1636 ;; *************** function _Count_Up *****************
  1637 ;; Defined at:
  1638 ;;		line 73 in file "adc ghep trong.c"
  1639 ;; Parameters:    Size  Location     Type
  1640 ;;		None
  1641 ;; Auto vars:     Size  Location     Type
  1642 ;;		None
  1643 ;; Return value:  Size  Location     Type
  1644 ;;                  1    wreg      void 
  1645 ;; Registers used:
  1646 ;;		wreg, fsr0l, fsr0h, status,2, status,0, btemp+1, pclath, cstack
  1647 ;; Tracked objects:
  1648 ;;		On entry : 0/0
  1649 ;;		On exit  : 0/0
  1650 ;;		Unchanged: 0/0
  1651 ;; Data sizes:     COMMON   BANK0   BANK1   BANK3   BANK2
  1652 ;;      Params:         0       0       0       0       0
  1653 ;;      Locals:         0       0       0       0       0
  1654 ;;      Temps:          0       8       0       0       0
  1655 ;;      Totals:         0       8       0       0       0
  1656 ;;Total ram usage:        8 bytes
  1657 ;; Hardware stack levels used: 1
  1658 ;; Hardware stack levels required when called: 2
  1659 ;; This function calls:
  1660 ;;		_ReadAdc
  1661 ;;		___fldiv
  1662 ;;		___flmul
  1663 ;;		___xxtofl
  1664 ;; This function is called by:
  1665 ;;		Interrupt level 1
  1666 ;; This function uses a non-reentrant model
  1667 ;;
  1668                           
  1669  0000'                    _Count_Up:	
  1670                           ;psect for function _Count_Up
  1671                           
  1672  0000'                    i1l1736:
  1673                           
  1674                           ;adc ghep trong.c: 75: if (TMR2IE && TMR2IF)
  1675  0000' 1683               	bsf	3,5	;RP0=1, select bank1
  1676  0001' 1303               	bcf	3,6	;RP1=0, select bank1
  1677  0002' 1C8C               	btfss	12,1	;volatile
  1678  0003' 2800'              	goto	u223_21
  1679  0004' 2800'              	goto	u223_20
  1680  0005'                    u223_21:
  1681  0005' 2800'              	goto	i1l93
  1682  0006'                    u223_20:
  1683  0006'                    i1l1738:
  1684  0006' 1283               	bcf	3,5	;RP0=0, select bank0
  1685  0007' 1303               	bcf	3,6	;RP1=0, select bank0
  1686  0008' 1C8C               	btfss	12,1	;volatile
  1687  0009' 2800'              	goto	u224_21
  1688  000A' 2800'              	goto	u224_20
  1689  000B'                    u224_21:
  1690  000B' 2800'              	goto	i1l93
  1691  000C'                    u224_20:
  1692  000C'                    i1l1740:
  1693                           
  1694                           ;adc ghep trong.c: 76: {;adc ghep trong.c: 77: TMR2IF=0;
  1695  000C' 108C               	bcf	12,1	;volatile
  1696  000D'                    i1l1742:
  1697                           
  1698                           ;adc ghep trong.c: 78: count++;
  1699  000D' 3001               	movlw	1
  1700  000E' 078F'              	addwf	_count,f
  1701  000F' 1803               	skipnc
  1702  0010' 0A90'              	incf	_count+1,f
  1703  0011' 3000               	movlw	0
  1704  0012' 0790'              	addwf	_count+1,f
  1705  0013'                    i1l1744:
  1706                           
  1707                           ;adc ghep trong.c: 79: if(count==20)
  1708  0013' 3014               	movlw	20
  1709  0014' 060F'              	xorwf	_count,w
  1710  0015' 0410'              	iorwf	_count+1,w
  1711  0016' 1D03               	btfss	3,2
  1712  0017' 2800'              	goto	u225_21
  1713  0018' 2800'              	goto	u225_20
  1714  0019'                    u225_21:
  1715  0019' 2800'              	goto	i1l93
  1716  001A'                    u225_20:
  1717  001A'                    i1l1746:
  1718                           
  1719                           ;adc ghep trong.c: 80: {;adc ghep trong.c: 81: count=0;
  1720  001A' 018F'              	clrf	_count
  1721  001B' 0190'              	clrf	_count+1
  1722  001C'                    i1l1748:
  1723                           
  1724                           ;adc ghep trong.c: 82: count1++;
  1725  001C' 3001               	movlw	1
  1726  001D' 078D'              	addwf	_count1,f
  1727  001E' 1803               	skipnc
  1728  001F' 0A8E'              	incf	_count1+1,f
  1729  0020' 3000               	movlw	0
  1730  0021' 078E'              	addwf	_count1+1,f
  1731  0022'                    i1l1750:
  1732                           
  1733                           ;adc ghep trong.c: 83: if(do_dienap)
  1734  0022' 0814'              	movf	_do_dienap,w
  1735  0023' 1903               	btfsc	3,2
  1736  0024' 2800'              	goto	u226_21
  1737  0025' 2800'              	goto	u226_20
  1738  0026'                    u226_21:
  1739  0026' 2800'              	goto	i1l1758
  1740  0027'                    u226_20:
  1741  0027'                    i1l1752:
  1742                           
  1743                           ;adc ghep trong.c: 84: {;adc ghep trong.c: 85: Dienap=(float)(ReadAdc(0));
  1744  0027' 3000               	movlw	0
  1745  0028' 120A' 118A' 2000' 120A' 118A' 	fcall	_ReadAdc
  1746  002D' 0800'              	movf	?_ReadAdc,w
  1747  002E' 1283               	bcf	3,5	;RP0=0, select bank0
  1748  002F' 1303               	bcf	3,6	;RP1=0, select bank0
  1749  0030' 0095'              	movwf	??_Count_Up
  1750  0031' 0801'              	movf	?_ReadAdc+1,w
  1751  0032' 0096'              	movwf	??_Count_Up+1
  1752  0033' 0197'              	clrf	??_Count_Up+2
  1753  0034' 0198'              	clrf	??_Count_Up+3
  1754  0035' 0818'              	movf	??_Count_Up+3,w
  1755  0036' 008A'              	movwf	___xxtofl@val+3
  1756  0037' 0817'              	movf	??_Count_Up+2,w
  1757  0038' 0089'              	movwf	___xxtofl@val+2
  1758  0039' 0816'              	movf	??_Count_Up+1,w
  1759  003A' 0088'              	movwf	___xxtofl@val+1
  1760  003B' 0815'              	movf	??_Count_Up,w
  1761  003C' 0087'              	movwf	___xxtofl@val
  1762  003D' 3000               	movlw	0
  1763  003E' 120A' 118A' 2000' 120A' 118A' 	fcall	___xxtofl
  1764  0043' 080A'              	movf	?___xxtofl+3,w
  1765  0044' 1283               	bcf	3,5	;RP0=0, select bank0
  1766  0045' 1303               	bcf	3,6	;RP1=0, select bank0
  1767  0046' 0083'              	movwf	_Dienap+3
  1768  0047' 0809'              	movf	?___xxtofl+2,w
  1769  0048' 0082'              	movwf	_Dienap+2
  1770  0049' 0808'              	movf	?___xxtofl+1,w
  1771  004A' 0081'              	movwf	_Dienap+1
  1772  004B' 0807'              	movf	?___xxtofl,w
  1773  004C' 0080'              	movwf	_Dienap
  1774  004D'                    i1l1754:
  1775                           
  1776                           ;adc ghep trong.c: 86: Dienap=Dienap*1.962;
  1777  004D' 303F               	movlw	63
  1778  004E' 0083'              	movwf	___flmul@b+3
  1779  004F' 30FB               	movlw	251
  1780  0050' 0082'              	movwf	___flmul@b+2
  1781  0051' 3022               	movlw	34
  1782  0052' 0081'              	movwf	___flmul@b+1
  1783  0053' 30D1               	movlw	209
  1784  0054' 0080'              	movwf	___flmul@b
  1785  0055' 0803'              	movf	_Dienap+3,w
  1786  0056' 0087'              	movwf	___flmul@a+3
  1787  0057' 0802'              	movf	_Dienap+2,w
  1788  0058' 0086'              	movwf	___flmul@a+2
  1789  0059' 0801'              	movf	_Dienap+1,w
  1790  005A' 0085'              	movwf	___flmul@a+1
  1791  005B' 0800'              	movf	_Dienap,w
  1792  005C' 0084'              	movwf	___flmul@a
  1793  005D' 120A' 118A' 2000' 120A' 118A' 	fcall	___flmul
  1794  0062' 1283               	bcf	3,5	;RP0=0, select bank0
  1795  0063' 1303               	bcf	3,6	;RP1=0, select bank0
  1796  0064' 0803'              	movf	?___flmul+3,w
  1797  0065' 0083'              	movwf	_Dienap+3
  1798  0066' 0802'              	movf	?___flmul+2,w
  1799  0067' 0082'              	movwf	_Dienap+2
  1800  0068' 0801'              	movf	?___flmul+1,w
  1801  0069' 0081'              	movwf	_Dienap+1
  1802  006A' 0800'              	movf	?___flmul,w
  1803  006B' 0080'              	movwf	_Dienap
  1804  006C'                    i1l1756:
  1805                           
  1806                           ;adc ghep trong.c: 87: adc_ok=1;
  1807  006C' 0193'              	clrf	_adc_ok
  1808  006D' 0A93'              	incf	_adc_ok,f
  1809                           
  1810                           ;adc ghep trong.c: 88: }
  1811  006E' 2800'              	goto	i1l1762
  1812  006F'                    i1l1758:
  1813                           
  1814                           ;adc ghep trong.c: 90: {;adc ghep trong.c: 91: Dong = (float)(ReadAdc(1));
  1815  006F' 3001               	movlw	1
  1816  0070' 120A' 118A' 2000' 120A' 118A' 	fcall	_ReadAdc
  1817  0075' 0800'              	movf	?_ReadAdc,w
  1818  0076' 1283               	bcf	3,5	;RP0=0, select bank0
  1819  0077' 1303               	bcf	3,6	;RP1=0, select bank0
  1820  0078' 0095'              	movwf	??_Count_Up
  1821  0079' 0801'              	movf	?_ReadAdc+1,w
  1822  007A' 0096'              	movwf	??_Count_Up+1
  1823  007B' 0197'              	clrf	??_Count_Up+2
  1824  007C' 0198'              	clrf	??_Count_Up+3
  1825  007D' 0818'              	movf	??_Count_Up+3,w
  1826  007E' 008A'              	movwf	___xxtofl@val+3
  1827  007F' 0817'              	movf	??_Count_Up+2,w
  1828  0080' 0089'              	movwf	___xxtofl@val+2
  1829  0081' 0816'              	movf	??_Count_Up+1,w
  1830  0082' 0088'              	movwf	___xxtofl@val+1
  1831  0083' 0815'              	movf	??_Count_Up,w
  1832  0084' 0087'              	movwf	___xxtofl@val
  1833  0085' 3000               	movlw	0
  1834  0086' 120A' 118A' 2000' 120A' 118A' 	fcall	___xxtofl
  1835  008B' 080A'              	movf	?___xxtofl+3,w
  1836  008C' 1283               	bcf	3,5	;RP0=0, select bank0
  1837  008D' 1303               	bcf	3,6	;RP1=0, select bank0
  1838  008E' 0087'              	movwf	_Dong+3
  1839  008F' 0809'              	movf	?___xxtofl+2,w
  1840  0090' 0086'              	movwf	_Dong+2
  1841  0091' 0808'              	movf	?___xxtofl+1,w
  1842  0092' 0085'              	movwf	_Dong+1
  1843  0093' 0807'              	movf	?___xxtofl,w
  1844  0094' 0084'              	movwf	_Dong
  1845  0095'                    i1l1760:
  1846                           
  1847                           ;adc ghep trong.c: 92: Dong=Dong/2.55;
  1848  0095' 3040               	movlw	64
  1849  0096' 0083'              	movwf	___fldiv@a+3
  1850  0097' 3023               	movlw	35
  1851  0098' 0082'              	movwf	___fldiv@a+2
  1852  0099' 3033               	movlw	51
  1853  009A' 0081'              	movwf	___fldiv@a+1
  1854  009B' 3033               	movlw	51
  1855  009C' 0080'              	movwf	___fldiv@a
  1856  009D' 0807'              	movf	_Dong+3,w
  1857  009E' 0087'              	movwf	___fldiv@b+3
  1858  009F' 0806'              	movf	_Dong+2,w
  1859  00A0' 0086'              	movwf	___fldiv@b+2
  1860  00A1' 0805'              	movf	_Dong+1,w
  1861  00A2' 0085'              	movwf	___fldiv@b+1
  1862  00A3' 0804'              	movf	_Dong,w
  1863  00A4' 0084'              	movwf	___fldiv@b
  1864  00A5' 120A' 118A' 2000' 120A' 118A' 	fcall	___fldiv
  1865  00AA' 0803'              	movf	?___fldiv+3,w
  1866  00AB' 1283               	bcf	3,5	;RP0=0, select bank0
  1867  00AC' 1303               	bcf	3,6	;RP1=0, select bank0
  1868  00AD' 0087'              	movwf	_Dong+3
  1869  00AE' 0802'              	movf	?___fldiv+2,w
  1870  00AF' 0086'              	movwf	_Dong+2
  1871  00B0' 0801'              	movf	?___fldiv+1,w
  1872  00B1' 0085'              	movwf	_Dong+1
  1873  00B2' 0800'              	movf	?___fldiv,w
  1874  00B3' 0084'              	movwf	_Dong
  1875  00B4'                    i1l1762:
  1876                           
  1877                           ;adc ghep trong.c: 94: do_dienap=~do_dienap;
  1878  00B4' 0994'              	comf	_do_dienap,f
  1879  00B5'                    i1l93:
  1880  00B5' 1283               	bcf	3,5	;RP0=0, select bank0
  1881  00B6' 081C'              	movf	??_Count_Up+7,w
  1882  00B7' 00FF               	movwf	btemp+1
  1883  00B8' 081B'              	movf	??_Count_Up+6,w
  1884  00B9' 008A               	movwf	10
  1885  00BA' 081A'              	movf	??_Count_Up+5,w
  1886  00BB' 0084               	movwf	4
  1887  00BC' 0E19'              	swapf	??_Count_Up+4,w
  1888  00BD' 0083               	movwf	3
  1889  00BE' 0EFE               	swapf	btemp,f
  1890  00BF' 0E7E               	swapf	btemp,w
  1891  00C0' 0009               	retfie
  1892  00C1'                    __end_of_Count_Up:
  1893                           
  1894                           	psect	intentry
  1895  0000'                    __pintentry:	
  1896                           ;incstack = 0
  1897                           ; Regs used in _Count_Up: [wreg-fsr0h+status,2+status,0+btemp+1+pclath+cstack]
  1898                           
  1899  0000'                    interrupt_function:
  1900  007E                     saved_w	set	btemp
  1901  0000' 00FE               	movwf	btemp
  1902  0001' 0E03               	swapf	3,w
  1903  0002' 1283               	bcf	3,5	;RP0=0, select bank0
  1904  0003' 1303               	bcf	3,6	;RP1=0, select bank0
  1905  0004' 0099'              	movwf	??_Count_Up+4
  1906  0005' 0804               	movf	4,w
  1907  0006' 009A'              	movwf	??_Count_Up+5
  1908  0007' 080A               	movf	10,w
  1909  0008' 009B'              	movwf	??_Count_Up+6
  1910  0009' 087F               	movf	btemp+1,w
  1911  000A' 009C'              	movwf	??_Count_Up+7
  1912  000B' 120A' 118A' 2800'  	ljmp	_Count_Up
  1913                           
  1914                           	psect	text7
  1915  0000'                    __ptext7:	
  1916 ;; *************** function ___xxtofl *****************
  1917 ;; Defined at:
  1918 ;;		line 10 in file "C:\Program Files\Microchip\xc8\v2.40\pic\sources\c90\common\xxtofl.c"
  1919 ;; Parameters:    Size  Location     Type
  1920 ;;  sign            1    wreg     unsigned char 
  1921 ;;  val             4    7[COMMON] long 
  1922 ;; Auto vars:     Size  Location     Type
  1923 ;;  sign            1    4[BANK0 ] unsigned char 
  1924 ;;  arg             4    6[BANK0 ] unsigned long 
  1925 ;;  exp             1    5[BANK0 ] unsigned char 
  1926 ;; Return value:  Size  Location     Type
  1927 ;;                  4    7[COMMON] unsigned char 
  1928 ;; Registers used:
  1929 ;;		wreg, status,2, status,0
  1930 ;; Tracked objects:
  1931 ;;		On entry : 0/0
  1932 ;;		On exit  : 0/0
  1933 ;;		Unchanged: 0/0
  1934 ;; Data sizes:     COMMON   BANK0   BANK1   BANK3   BANK2
  1935 ;;      Params:         4       0       0       0       0
  1936 ;;      Locals:         0       6       0       0       0
  1937 ;;      Temps:          0       4       0       0       0
  1938 ;;      Totals:         4      10       0       0       0
  1939 ;;Total ram usage:       14 bytes
  1940 ;; Hardware stack levels used: 1
  1941 ;; This function calls:
  1942 ;;		Nothing
  1943 ;; This function is called by:
  1944 ;;		_Count_Up
  1945 ;; This function uses a non-reentrant model
  1946 ;;
  1947                           
  1948  0000'                    ___xxtofl:	
  1949                           ;psect for function ___xxtofl
  1950                           
  1951                           
  1952                           ;incstack = 0
  1953                           ; Regs used in ___xxtofl: [wreg+status,2+status,0]
  1954                           ;___xxtofl@sign stored from wreg
  1955  0000' 1283               	bcf	3,5	;RP0=0, select bank0
  1956  0001' 1303               	bcf	3,6	;RP1=0, select bank0
  1957  0002' 0084'              	movwf	___xxtofl@sign
  1958  0003'                    i1l1692:
  1959  0003' 0804'              	movf	___xxtofl@sign,w
  1960  0004' 1903               	btfsc	3,2
  1961  0005' 2800'              	goto	u209_21
  1962  0006' 2800'              	goto	u209_20
  1963  0007'                    u209_21:
  1964  0007' 2800'              	goto	i1l1698
  1965  0008'                    u209_20:
  1966  0008'                    i1l1694:
  1967  0008' 1F8A'              	btfss	___xxtofl@val+3,7
  1968  0009' 2800'              	goto	u210_21
  1969  000A' 2800'              	goto	u210_20
  1970  000B'                    u210_21:
  1971  000B' 2800'              	goto	i1l1698
  1972  000C'                    u210_20:
  1973  000C'                    i1l1696:
  1974  000C' 0907'              	comf	___xxtofl@val,w
  1975  000D' 0086'              	movwf	___xxtofl@arg
  1976  000E' 0908'              	comf	___xxtofl@val+1,w
  1977  000F' 0087'              	movwf	___xxtofl@arg+1
  1978  0010' 0909'              	comf	___xxtofl@val+2,w
  1979  0011' 0088'              	movwf	___xxtofl@arg+2
  1980  0012' 090A'              	comf	___xxtofl@val+3,w
  1981  0013' 0089'              	movwf	___xxtofl@arg+3
  1982  0014' 0A86'              	incf	___xxtofl@arg,f
  1983  0015' 1903               	skipnz
  1984  0016' 0A87'              	incf	___xxtofl@arg+1,f
  1985  0017' 1903               	skipnz
  1986  0018' 0A88'              	incf	___xxtofl@arg+2,f
  1987  0019' 1903               	skipnz
  1988  001A' 0A89'              	incf	___xxtofl@arg+3,f
  1989  001B' 2800'              	goto	i1l623
  1990  001C'                    i1l1698:
  1991  001C' 080A'              	movf	___xxtofl@val+3,w
  1992  001D' 0089'              	movwf	___xxtofl@arg+3
  1993  001E' 0809'              	movf	___xxtofl@val+2,w
  1994  001F' 0088'              	movwf	___xxtofl@arg+2
  1995  0020' 0808'              	movf	___xxtofl@val+1,w
  1996  0021' 0087'              	movwf	___xxtofl@arg+1
  1997  0022' 0807'              	movf	___xxtofl@val,w
  1998  0023' 0086'              	movwf	___xxtofl@arg
  1999  0024'                    i1l623:
  2000  0024' 080A'              	movf	___xxtofl@val+3,w
  2001  0025' 0409'              	iorwf	___xxtofl@val+2,w
  2002  0026' 0408'              	iorwf	___xxtofl@val+1,w
  2003  0027' 0407'              	iorwf	___xxtofl@val,w
  2004  0028' 1D03               	skipz
  2005  0029' 2800'              	goto	u211_21
  2006  002A' 2800'              	goto	u211_20
  2007  002B'                    u211_21:
  2008  002B' 2800'              	goto	i1l1704
  2009  002C'                    u211_20:
  2010  002C'                    i1l1700:
  2011  002C' 3000               	movlw	0
  2012  002D' 008A'              	movwf	?___xxtofl+3
  2013  002E' 3000               	movlw	0
  2014  002F' 0089'              	movwf	?___xxtofl+2
  2015  0030' 3000               	movlw	0
  2016  0031' 0088'              	movwf	?___xxtofl+1
  2017  0032' 3000               	movlw	0
  2018  0033' 0087'              	movwf	?___xxtofl
  2019  0034' 2800'              	goto	i1l625
  2020  0035'                    i1l1704:
  2021  0035' 3096               	movlw	150
  2022  0036' 0085'              	movwf	___xxtofl@exp
  2023  0037' 2800'              	goto	i1l1708
  2024  0038'                    i1l1706:
  2025  0038' 3001               	movlw	1
  2026  0039' 0080'              	movwf	??___xxtofl
  2027  003A' 0800'              	movf	??___xxtofl,w
  2028  003B' 0785'              	addwf	___xxtofl@exp,f
  2029  003C' 3001               	movlw	1
  2030  003D'                    u212_25:
  2031  003D' 1003               	clrc
  2032  003E' 0C89'              	rrf	___xxtofl@arg+3,f
  2033  003F' 0C88'              	rrf	___xxtofl@arg+2,f
  2034  0040' 0C87'              	rrf	___xxtofl@arg+1,f
  2035  0041' 0C86'              	rrf	___xxtofl@arg,f
  2036  0042' 3EFF               	addlw	-1
  2037  0043' 1D03               	skipz
  2038  0044' 2800'              	goto	u212_25
  2039  0045'                    i1l1708:
  2040  0045' 30FE               	movlw	254
  2041  0046' 0509'              	andwf	___xxtofl@arg+3,w
  2042  0047' 1D03               	btfss	3,2
  2043  0048' 2800'              	goto	u213_21
  2044  0049' 2800'              	goto	u213_20
  2045  004A'                    u213_21:
  2046  004A' 2800'              	goto	i1l1706
  2047  004B'                    u213_20:
  2048  004B' 2800'              	goto	i1l629
  2049  004C'                    i1l1710:
  2050  004C' 3001               	movlw	1
  2051  004D' 0080'              	movwf	??___xxtofl
  2052  004E' 0800'              	movf	??___xxtofl,w
  2053  004F' 0785'              	addwf	___xxtofl@exp,f
  2054  0050'                    i1l1712:
  2055  0050' 3001               	movlw	1
  2056  0051' 0786'              	addwf	___xxtofl@arg,f
  2057  0052' 3000               	movlw	0
  2058  0053' 1803               	skipnc
  2059  0054' 3001               	movlw	1
  2060  0055' 0787'              	addwf	___xxtofl@arg+1,f
  2061  0056' 3000               	movlw	0
  2062  0057' 1803               	skipnc
  2063  0058' 3001               	movlw	1
  2064  0059' 0788'              	addwf	___xxtofl@arg+2,f
  2065  005A' 3000               	movlw	0
  2066  005B' 1803               	skipnc
  2067  005C' 3001               	movlw	1
  2068  005D' 0789'              	addwf	___xxtofl@arg+3,f
  2069  005E'                    i1l1714:
  2070  005E' 3001               	movlw	1
  2071  005F'                    u214_25:
  2072  005F' 1003               	clrc
  2073  0060' 0C89'              	rrf	___xxtofl@arg+3,f
  2074  0061' 0C88'              	rrf	___xxtofl@arg+2,f
  2075  0062' 0C87'              	rrf	___xxtofl@arg+1,f
  2076  0063' 0C86'              	rrf	___xxtofl@arg,f
  2077  0064' 3EFF               	addlw	-1
  2078  0065' 1D03               	skipz
  2079  0066' 2800'              	goto	u214_25
  2080  0067'                    i1l629:
  2081  0067' 30FF               	movlw	255
  2082  0068' 0509'              	andwf	___xxtofl@arg+3,w
  2083  0069' 1D03               	btfss	3,2
  2084  006A' 2800'              	goto	u215_21
  2085  006B' 2800'              	goto	u215_20
  2086  006C'                    u215_21:
  2087  006C' 2800'              	goto	i1l1710
  2088  006D'                    u215_20:
  2089  006D' 2800'              	goto	i1l1718
  2090  006E'                    i1l1716:
  2091  006E' 3001               	movlw	1
  2092  006F' 0285'              	subwf	___xxtofl@exp,f
  2093  0070' 3001               	movlw	1
  2094  0071' 0080'              	movwf	??___xxtofl
  2095  0072'                    u216_25:
  2096  0072' 1003               	clrc
  2097  0073' 0D86'              	rlf	___xxtofl@arg,f
  2098  0074' 0D87'              	rlf	___xxtofl@arg+1,f
  2099  0075' 0D88'              	rlf	___xxtofl@arg+2,f
  2100  0076' 0D89'              	rlf	___xxtofl@arg+3,f
  2101  0077' 0B80'              	decfsz	??___xxtofl,f
  2102  0078' 2800'              	goto	u216_25
  2103  0079'                    i1l1718:
  2104  0079' 1B88'              	btfsc	___xxtofl@arg+2,7
  2105  007A' 2800'              	goto	u217_21
  2106  007B' 2800'              	goto	u217_20
  2107  007C'                    u217_21:
  2108  007C' 2800'              	goto	i1l636
  2109  007D'                    u217_20:
  2110  007D'                    i1l1720:
  2111  007D' 3002               	movlw	2
  2112  007E' 0205'              	subwf	___xxtofl@exp,w
  2113  007F' 1803               	skipnc
  2114  0080' 2800'              	goto	u218_21
  2115  0081' 2800'              	goto	u218_20
  2116  0082'                    u218_21:
  2117  0082' 2800'              	goto	i1l1716
  2118  0083'                    u218_20:
  2119  0083'                    i1l636:
  2120  0083' 1805'              	btfsc	___xxtofl@exp,0
  2121  0084' 2800'              	goto	u219_21
  2122  0085' 2800'              	goto	u219_20
  2123  0086'                    u219_21:
  2124  0086' 2800'              	goto	i1l637
  2125  0087'                    u219_20:
  2126  0087'                    i1l1722:
  2127  0087' 30FF               	movlw	255
  2128  0088' 0586'              	andwf	___xxtofl@arg,f
  2129  0089' 30FF               	movlw	255
  2130  008A' 0587'              	andwf	___xxtofl@arg+1,f
  2131  008B' 307F               	movlw	127
  2132  008C' 0588'              	andwf	___xxtofl@arg+2,f
  2133  008D' 30FF               	movlw	255
  2134  008E' 0589'              	andwf	___xxtofl@arg+3,f
  2135  008F'                    i1l637:
  2136  008F' 1003               	clrc
  2137  0090' 0C85'              	rrf	___xxtofl@exp,f
  2138  0091'                    i1l1724:
  2139  0091' 0805'              	movf	___xxtofl@exp,w
  2140  0092' 0080'              	movwf	??___xxtofl
  2141  0093' 0181'              	clrf	??___xxtofl+1
  2142  0094' 0182'              	clrf	??___xxtofl+2
  2143  0095' 0183'              	clrf	??___xxtofl+3
  2144  0096' 3018               	movlw	24
  2145  0097'                    u220_25:
  2146  0097' 1003               	clrc
  2147  0098' 0D80'              	rlf	??___xxtofl,f
  2148  0099' 0D81'              	rlf	??___xxtofl+1,f
  2149  009A' 0D82'              	rlf	??___xxtofl+2,f
  2150  009B' 0D83'              	rlf	??___xxtofl+3,f
  2151  009C'                    u220_20:
  2152  009C' 3EFF               	addlw	-1
  2153  009D' 1D03               	skipz
  2154  009E' 2800'              	goto	u220_25
  2155  009F' 0800'              	movf	??___xxtofl,w
  2156  00A0' 0486'              	iorwf	___xxtofl@arg,f
  2157  00A1' 0801'              	movf	??___xxtofl+1,w
  2158  00A2' 0487'              	iorwf	___xxtofl@arg+1,f
  2159  00A3' 0802'              	movf	??___xxtofl+2,w
  2160  00A4' 0488'              	iorwf	___xxtofl@arg+2,f
  2161  00A5' 0803'              	movf	??___xxtofl+3,w
  2162  00A6' 0489'              	iorwf	___xxtofl@arg+3,f
  2163  00A7'                    i1l1726:
  2164  00A7' 0804'              	movf	___xxtofl@sign,w
  2165  00A8' 1903               	btfsc	3,2
  2166  00A9' 2800'              	goto	u221_21
  2167  00AA' 2800'              	goto	u221_20
  2168  00AB'                    u221_21:
  2169  00AB' 2800'              	goto	i1l1732
  2170  00AC'                    u221_20:
  2171  00AC'                    i1l1728:
  2172  00AC' 1F8A'              	btfss	___xxtofl@val+3,7
  2173  00AD' 2800'              	goto	u222_21
  2174  00AE' 2800'              	goto	u222_20
  2175  00AF'                    u222_21:
  2176  00AF' 2800'              	goto	i1l1732
  2177  00B0'                    u222_20:
  2178  00B0'                    i1l1730:
  2179  00B0' 1789'              	bsf	___xxtofl@arg+3,7
  2180  00B1'                    i1l1732:
  2181  00B1' 0809'              	movf	___xxtofl@arg+3,w
  2182  00B2' 008A'              	movwf	?___xxtofl+3
  2183  00B3' 0808'              	movf	___xxtofl@arg+2,w
  2184  00B4' 0089'              	movwf	?___xxtofl+2
  2185  00B5' 0807'              	movf	___xxtofl@arg+1,w
  2186  00B6' 0088'              	movwf	?___xxtofl+1
  2187  00B7' 0806'              	movf	___xxtofl@arg,w
  2188  00B8' 0087'              	movwf	?___xxtofl
  2189  00B9'                    i1l625:
  2190  00B9' 0008               	return
  2191  00BA'                    __end_of___xxtofl:
  2192                           
  2193                           	psect	text8
  2194  0000'                    __ptext8:	
  2195 ;; *************** function ___flmul *****************
  2196 ;; Defined at:
  2197 ;;		line 8 in file "C:\Program Files\Microchip\xc8\v2.40\pic\sources\c90\common\sprcmul.c"
  2198 ;; Parameters:    Size  Location     Type
  2199 ;;  b               4    0[BANK0 ] unsigned char 
  2200 ;;  a               4    4[BANK0 ] unsigned char 
  2201 ;; Auto vars:     Size  Location     Type
  2202 ;;  prod            4   15[BANK0 ] struct .
  2203 ;;  grs             4    9[BANK0 ] unsigned long 
  2204 ;;  temp            2   19[BANK0 ] struct .
  2205 ;;  bexp            1   14[BANK0 ] unsigned char 
  2206 ;;  aexp            1   13[BANK0 ] unsigned char 
  2207 ;;  sign            1    8[BANK0 ] unsigned char 
  2208 ;; Return value:  Size  Location     Type
  2209 ;;                  4    0[BANK0 ] unsigned char 
  2210 ;; Registers used:
  2211 ;;		wreg, status,2, status,0, btemp+1, pclath, cstack
  2212 ;; Tracked objects:
  2213 ;;		On entry : 0/0
  2214 ;;		On exit  : 0/0
  2215 ;;		Unchanged: 0/0
  2216 ;; Data sizes:     COMMON   BANK0   BANK1   BANK3   BANK2
  2217 ;;      Params:         0       8       0       0       0
  2218 ;;      Locals:         0      13       0       0       0
  2219 ;;      Temps:          5       0       0       0       0
  2220 ;;      Totals:         5      21       0       0       0
  2221 ;;Total ram usage:       26 bytes
  2222 ;; Hardware stack levels used: 1
  2223 ;; Hardware stack levels required when called: 1
  2224 ;; This function calls:
  2225 ;;		__Umul8_16
  2226 ;; This function is called by:
  2227 ;;		_Count_Up
  2228 ;; This function uses a non-reentrant model
  2229 ;;
  2230                           
  2231  0000'                    ___flmul:	
  2232                           ;psect for function ___flmul
  2233                           
  2234  0000'                    i1l1552:	
  2235                           ;incstack = 0
  2236                           ; Regs used in ___flmul: [wreg+status,2+status,0+btemp+1+pclath+cstack]
  2237                           
  2238  0000' 1283               	bcf	3,5	;RP0=0, select bank0
  2239  0001' 1303               	bcf	3,6	;RP1=0, select bank0
  2240  0002' 0803'              	movf	___flmul@b+3,w
  2241  0003' 3980               	andlw	128
  2242  0004' 0088'              	movwf	___flmul@sign
  2243  0005'                    i1l1554:
  2244  0005' 0803'              	movf	___flmul@b+3,w
  2245  0006' 0089'              	movwf	??___flmul
  2246  0007' 0709'              	addwf	??___flmul,w
  2247  0008' 008E'              	movwf	___flmul@bexp
  2248  0009'                    i1l1556:
  2249  0009' 1F82'              	btfss	___flmul@b+2,7
  2250  000A' 2800'              	goto	u172_21
  2251  000B' 2800'              	goto	u172_20
  2252  000C'                    u172_21:
  2253  000C' 2800'              	goto	i1l1560
  2254  000D'                    u172_20:
  2255  000D'                    i1l1558:
  2256  000D' 140E'              	bsf	___flmul@bexp,0
  2257  000E'                    i1l1560:
  2258  000E' 080E'              	movf	___flmul@bexp,w
  2259  000F' 1903               	btfsc	3,2
  2260  0010' 2800'              	goto	u173_21
  2261  0011' 2800'              	goto	u173_20
  2262  0012'                    u173_21:
  2263  0012' 2800'              	goto	i1l1568
  2264  0013'                    u173_20:
  2265  0013'                    i1l1562:
  2266  0013' 0A0E'              	incf	___flmul@bexp,w
  2267  0014' 1D03               	btfss	3,2
  2268  0015' 2800'              	goto	u174_21
  2269  0016' 2800'              	goto	u174_20
  2270  0017'                    u174_21:
  2271  0017' 2800'              	goto	i1l1566
  2272  0018'                    u174_20:
  2273  0018'                    i1l1564:
  2274  0018' 3000               	movlw	0
  2275  0019' 0083'              	movwf	___flmul@b+3
  2276  001A' 3000               	movlw	0
  2277  001B' 0082'              	movwf	___flmul@b+2
  2278  001C' 3000               	movlw	0
  2279  001D' 0081'              	movwf	___flmul@b+1
  2280  001E' 3000               	movlw	0
  2281  001F' 0080'              	movwf	___flmul@b
  2282  0020'                    i1l1566:
  2283  0020' 1782'              	bsf	___flmul@b+2,7
  2284  0021' 2800'              	goto	i1l1570
  2285  0022'                    i1l1568:
  2286  0022' 3000               	movlw	0
  2287  0023' 0083'              	movwf	___flmul@b+3
  2288  0024' 3000               	movlw	0
  2289  0025' 0082'              	movwf	___flmul@b+2
  2290  0026' 3000               	movlw	0
  2291  0027' 0081'              	movwf	___flmul@b+1
  2292  0028' 3000               	movlw	0
  2293  0029' 0080'              	movwf	___flmul@b
  2294  002A'                    i1l1570:
  2295  002A' 0807'              	movf	___flmul@a+3,w
  2296  002B' 3980               	andlw	128
  2297  002C' 0089'              	movwf	??___flmul
  2298  002D' 0809'              	movf	??___flmul,w
  2299  002E' 0688'              	xorwf	___flmul@sign,f
  2300  002F'                    i1l1572:
  2301  002F' 0807'              	movf	___flmul@a+3,w
  2302  0030' 0089'              	movwf	??___flmul
  2303  0031' 0709'              	addwf	??___flmul,w
  2304  0032' 008D'              	movwf	___flmul@aexp
  2305  0033'                    i1l1574:
  2306  0033' 1F86'              	btfss	___flmul@a+2,7
  2307  0034' 2800'              	goto	u175_21
  2308  0035' 2800'              	goto	u175_20
  2309  0036'                    u175_21:
  2310  0036' 2800'              	goto	i1l1578
  2311  0037'                    u175_20:
  2312  0037'                    i1l1576:
  2313  0037' 140D'              	bsf	___flmul@aexp,0
  2314  0038'                    i1l1578:
  2315  0038' 080D'              	movf	___flmul@aexp,w
  2316  0039' 1903               	btfsc	3,2
  2317  003A' 2800'              	goto	u176_21
  2318  003B' 2800'              	goto	u176_20
  2319  003C'                    u176_21:
  2320  003C' 2800'              	goto	i1l1586
  2321  003D'                    u176_20:
  2322  003D'                    i1l1580:
  2323  003D' 0A0D'              	incf	___flmul@aexp,w
  2324  003E' 1D03               	btfss	3,2
  2325  003F' 2800'              	goto	u177_21
  2326  0040' 2800'              	goto	u177_20
  2327  0041'                    u177_21:
  2328  0041' 2800'              	goto	i1l1584
  2329  0042'                    u177_20:
  2330  0042'                    i1l1582:
  2331  0042' 3000               	movlw	0
  2332  0043' 0087'              	movwf	___flmul@a+3
  2333  0044' 3000               	movlw	0
  2334  0045' 0086'              	movwf	___flmul@a+2
  2335  0046' 3000               	movlw	0
  2336  0047' 0085'              	movwf	___flmul@a+1
  2337  0048' 3000               	movlw	0
  2338  0049' 0084'              	movwf	___flmul@a
  2339  004A'                    i1l1584:
  2340  004A' 1786'              	bsf	___flmul@a+2,7
  2341  004B' 2800'              	goto	i1l1588
  2342  004C'                    i1l1586:
  2343  004C' 3000               	movlw	0
  2344  004D' 0087'              	movwf	___flmul@a+3
  2345  004E' 3000               	movlw	0
  2346  004F' 0086'              	movwf	___flmul@a+2
  2347  0050' 3000               	movlw	0
  2348  0051' 0085'              	movwf	___flmul@a+1
  2349  0052' 3000               	movlw	0
  2350  0053' 0084'              	movwf	___flmul@a
  2351  0054'                    i1l1588:
  2352  0054' 080D'              	movf	___flmul@aexp,w
  2353  0055' 1903               	btfsc	3,2
  2354  0056' 2800'              	goto	u178_21
  2355  0057' 2800'              	goto	u178_20
  2356  0058'                    u178_21:
  2357  0058' 2800'              	goto	i1l1592
  2358  0059'                    u178_20:
  2359  0059'                    i1l1590:
  2360  0059' 080E'              	movf	___flmul@bexp,w
  2361  005A' 1D03               	btfss	3,2
  2362  005B' 2800'              	goto	u179_21
  2363  005C' 2800'              	goto	u179_20
  2364  005D'                    u179_21:
  2365  005D' 2800'              	goto	i1l1596
  2366  005E'                    u179_20:
  2367  005E'                    i1l1592:
  2368  005E' 3000               	movlw	0
  2369  005F' 0083'              	movwf	?___flmul+3
  2370  0060' 3000               	movlw	0
  2371  0061' 0082'              	movwf	?___flmul+2
  2372  0062' 3000               	movlw	0
  2373  0063' 0081'              	movwf	?___flmul+1
  2374  0064' 3000               	movlw	0
  2375  0065' 0080'              	movwf	?___flmul
  2376  0066' 2800'              	goto	i1l579
  2377  0067'                    i1l1596:
  2378  0067' 0800'              	movf	___flmul@b,w
  2379  0068' 0080'              	movwf	__Umul8_16@multiplicand
  2380  0069' 0806'              	movf	___flmul@a+2,w
  2381  006A' 120A' 118A' 2000' 120A' 118A' 	fcall	__Umul8_16
  2382  006F' 0801'              	movf	?__Umul8_16+1,w
  2383  0070' 1283               	bcf	3,5	;RP0=0, select bank0
  2384  0071' 1303               	bcf	3,6	;RP1=0, select bank0
  2385  0072' 0094'              	movwf	___flmul@temp+1
  2386  0073' 0800'              	movf	?__Umul8_16,w
  2387  0074' 0093'              	movwf	___flmul@temp
  2388  0075'                    i1l1598:
  2389  0075' 0813'              	movf	___flmul@temp,w
  2390  0076' 0089'              	movwf	??___flmul
  2391  0077' 018A'              	clrf	??___flmul+1
  2392  0078' 018B'              	clrf	??___flmul+2
  2393  0079' 018C'              	clrf	??___flmul+3
  2394  007A' 080C'              	movf	??___flmul+3,w
  2395  007B' 008C'              	movwf	___flmul@grs+3
  2396  007C' 080B'              	movf	??___flmul+2,w
  2397  007D' 008B'              	movwf	___flmul@grs+2
  2398  007E' 080A'              	movf	??___flmul+1,w
  2399  007F' 008A'              	movwf	___flmul@grs+1
  2400  0080' 0809'              	movf	??___flmul,w
  2401  0081' 0089'              	movwf	___flmul@grs
  2402  0082'                    i1l1600:
  2403  0082' 0814'              	movf	___flmul@temp+1,w
  2404  0083' 0089'              	movwf	??___flmul
  2405  0084' 018A'              	clrf	??___flmul+1
  2406  0085' 018B'              	clrf	??___flmul+2
  2407  0086' 018C'              	clrf	??___flmul+3
  2408  0087' 080C'              	movf	??___flmul+3,w
  2409  0088' 0092'              	movwf	___flmul@prod+3
  2410  0089' 080B'              	movf	??___flmul+2,w
  2411  008A' 0091'              	movwf	___flmul@prod+2
  2412  008B' 080A'              	movf	??___flmul+1,w
  2413  008C' 0090'              	movwf	___flmul@prod+1
  2414  008D' 0809'              	movf	??___flmul,w
  2415  008E' 008F'              	movwf	___flmul@prod
  2416  008F' 0801'              	movf	___flmul@b+1,w
  2417  0090' 0080'              	movwf	__Umul8_16@multiplicand
  2418  0091' 0805'              	movf	___flmul@a+1,w
  2419  0092' 120A' 118A' 2000' 120A' 118A' 	fcall	__Umul8_16
  2420  0097' 0801'              	movf	?__Umul8_16+1,w
  2421  0098' 1283               	bcf	3,5	;RP0=0, select bank0
  2422  0099' 1303               	bcf	3,6	;RP1=0, select bank0
  2423  009A' 0094'              	movwf	___flmul@temp+1
  2424  009B' 0800'              	movf	?__Umul8_16,w
  2425  009C' 0093'              	movwf	___flmul@temp
  2426  009D'                    i1l1602:
  2427  009D' 0813'              	movf	___flmul@temp,w
  2428  009E' 0089'              	movwf	??___flmul
  2429  009F' 018A'              	clrf	??___flmul+1
  2430  00A0' 018B'              	clrf	??___flmul+2
  2431  00A1' 018C'              	clrf	??___flmul+3
  2432  00A2' 0809'              	movf	??___flmul,w
  2433  00A3' 0789'              	addwf	___flmul@grs,f
  2434  00A4' 080A'              	movf	??___flmul+1,w
  2435  00A5' 1103               	clrz
  2436  00A6' 1803               	skipnc
  2437  00A7' 3E01               	addlw	1
  2438  00A8' 1903               	skipnz
  2439  00A9' 2800'              	goto	u180_21
  2440  00AA' 078A'              	addwf	___flmul@grs+1,f
  2441  00AB'                    u180_21:
  2442  00AB' 080B'              	movf	??___flmul+2,w
  2443  00AC' 1103               	clrz
  2444  00AD' 1803               	skipnc
  2445  00AE' 3E01               	addlw	1
  2446  00AF' 1903               	skipnz
  2447  00B0' 2800'              	goto	u180_22
  2448  00B1' 078B'              	addwf	___flmul@grs+2,f
  2449  00B2'                    u180_22:
  2450  00B2' 080C'              	movf	??___flmul+3,w
  2451  00B3' 1103               	clrz
  2452  00B4' 1803               	skipnc
  2453  00B5' 3E01               	addlw	1
  2454  00B6' 1903               	skipnz
  2455  00B7' 2800'              	goto	u180_23
  2456  00B8' 078C'              	addwf	___flmul@grs+3,f
  2457  00B9'                    u180_23:
  2458  00B9'                    i1l1604:
  2459  00B9' 0814'              	movf	___flmul@temp+1,w
  2460  00BA' 0089'              	movwf	??___flmul
  2461  00BB' 018A'              	clrf	??___flmul+1
  2462  00BC' 018B'              	clrf	??___flmul+2
  2463  00BD' 018C'              	clrf	??___flmul+3
  2464  00BE' 0809'              	movf	??___flmul,w
  2465  00BF' 078F'              	addwf	___flmul@prod,f
  2466  00C0' 080A'              	movf	??___flmul+1,w
  2467  00C1' 1103               	clrz
  2468  00C2' 1803               	skipnc
  2469  00C3' 3E01               	addlw	1
  2470  00C4' 1903               	skipnz
  2471  00C5' 2800'              	goto	u181_21
  2472  00C6' 0790'              	addwf	___flmul@prod+1,f
  2473  00C7'                    u181_21:
  2474  00C7' 080B'              	movf	??___flmul+2,w
  2475  00C8' 1103               	clrz
  2476  00C9' 1803               	skipnc
  2477  00CA' 3E01               	addlw	1
  2478  00CB' 1903               	skipnz
  2479  00CC' 2800'              	goto	u181_22
  2480  00CD' 0791'              	addwf	___flmul@prod+2,f
  2481  00CE'                    u181_22:
  2482  00CE' 080C'              	movf	??___flmul+3,w
  2483  00CF' 1103               	clrz
  2484  00D0' 1803               	skipnc
  2485  00D1' 3E01               	addlw	1
  2486  00D2' 1903               	skipnz
  2487  00D3' 2800'              	goto	u181_23
  2488  00D4' 0792'              	addwf	___flmul@prod+3,f
  2489  00D5'                    u181_23:
  2490  00D5' 0802'              	movf	___flmul@b+2,w
  2491  00D6' 0080'              	movwf	__Umul8_16@multiplicand
  2492  00D7' 0804'              	movf	___flmul@a,w
  2493  00D8' 120A' 118A' 2000' 120A' 118A' 	fcall	__Umul8_16
  2494  00DD' 0801'              	movf	?__Umul8_16+1,w
  2495  00DE' 1283               	bcf	3,5	;RP0=0, select bank0
  2496  00DF' 1303               	bcf	3,6	;RP1=0, select bank0
  2497  00E0' 0094'              	movwf	___flmul@temp+1
  2498  00E1' 0800'              	movf	?__Umul8_16,w
  2499  00E2' 0093'              	movwf	___flmul@temp
  2500  00E3'                    i1l1606:
  2501  00E3' 0813'              	movf	___flmul@temp,w
  2502  00E4' 0089'              	movwf	??___flmul
  2503  00E5' 018A'              	clrf	??___flmul+1
  2504  00E6' 018B'              	clrf	??___flmul+2
  2505  00E7' 018C'              	clrf	??___flmul+3
  2506  00E8' 0809'              	movf	??___flmul,w
  2507  00E9' 0789'              	addwf	___flmul@grs,f
  2508  00EA' 080A'              	movf	??___flmul+1,w
  2509  00EB' 1103               	clrz
  2510  00EC' 1803               	skipnc
  2511  00ED' 3E01               	addlw	1
  2512  00EE' 1903               	skipnz
  2513  00EF' 2800'              	goto	u182_21
  2514  00F0' 078A'              	addwf	___flmul@grs+1,f
  2515  00F1'                    u182_21:
  2516  00F1' 080B'              	movf	??___flmul+2,w
  2517  00F2' 1103               	clrz
  2518  00F3' 1803               	skipnc
  2519  00F4' 3E01               	addlw	1
  2520  00F5' 1903               	skipnz
  2521  00F6' 2800'              	goto	u182_22
  2522  00F7' 078B'              	addwf	___flmul@grs+2,f
  2523  00F8'                    u182_22:
  2524  00F8' 080C'              	movf	??___flmul+3,w
  2525  00F9' 1103               	clrz
  2526  00FA' 1803               	skipnc
  2527  00FB' 3E01               	addlw	1
  2528  00FC' 1903               	skipnz
  2529  00FD' 2800'              	goto	u182_23
  2530  00FE' 078C'              	addwf	___flmul@grs+3,f
  2531  00FF'                    u182_23:
  2532  00FF'                    i1l1608:
  2533  00FF' 0814'              	movf	___flmul@temp+1,w
  2534  0100' 0089'              	movwf	??___flmul
  2535  0101' 018A'              	clrf	??___flmul+1
  2536  0102' 018B'              	clrf	??___flmul+2
  2537  0103' 018C'              	clrf	??___flmul+3
  2538  0104' 0809'              	movf	??___flmul,w
  2539  0105' 078F'              	addwf	___flmul@prod,f
  2540  0106' 080A'              	movf	??___flmul+1,w
  2541  0107' 1103               	clrz
  2542  0108' 1803               	skipnc
  2543  0109' 3E01               	addlw	1
  2544  010A' 1903               	skipnz
  2545  010B' 2800'              	goto	u183_21
  2546  010C' 0790'              	addwf	___flmul@prod+1,f
  2547  010D'                    u183_21:
  2548  010D' 080B'              	movf	??___flmul+2,w
  2549  010E' 1103               	clrz
  2550  010F' 1803               	skipnc
  2551  0110' 3E01               	addlw	1
  2552  0111' 1903               	skipnz
  2553  0112' 2800'              	goto	u183_22
  2554  0113' 0791'              	addwf	___flmul@prod+2,f
  2555  0114'                    u183_22:
  2556  0114' 080C'              	movf	??___flmul+3,w
  2557  0115' 1103               	clrz
  2558  0116' 1803               	skipnc
  2559  0117' 3E01               	addlw	1
  2560  0118' 1903               	skipnz
  2561  0119' 2800'              	goto	u183_23
  2562  011A' 0792'              	addwf	___flmul@prod+3,f
  2563  011B'                    u183_23:
  2564  011B'                    i1l1610:
  2565  011B' 3008               	movlw	8
  2566  011C' 0089'              	movwf	??___flmul
  2567  011D'                    u184_25:
  2568  011D' 1003               	clrc
  2569  011E' 0D89'              	rlf	___flmul@grs,f
  2570  011F' 0D8A'              	rlf	___flmul@grs+1,f
  2571  0120' 0D8B'              	rlf	___flmul@grs+2,f
  2572  0121' 0D8C'              	rlf	___flmul@grs+3,f
  2573  0122' 0B89'              	decfsz	??___flmul,f
  2574  0123' 2800'              	goto	u184_25
  2575  0124'                    i1l1612:
  2576  0124' 0801'              	movf	___flmul@b+1,w
  2577  0125' 0080'              	movwf	__Umul8_16@multiplicand
  2578  0126' 0804'              	movf	___flmul@a,w
  2579  0127' 120A' 118A' 2000' 120A' 118A' 	fcall	__Umul8_16
  2580  012C' 0801'              	movf	?__Umul8_16+1,w
  2581  012D' 1283               	bcf	3,5	;RP0=0, select bank0
  2582  012E' 1303               	bcf	3,6	;RP1=0, select bank0
  2583  012F' 0094'              	movwf	___flmul@temp+1
  2584  0130' 0800'              	movf	?__Umul8_16,w
  2585  0131' 0093'              	movwf	___flmul@temp
  2586  0132'                    i1l1614:
  2587  0132' 0813'              	movf	___flmul@temp,w
  2588  0133' 0089'              	movwf	??___flmul
  2589  0134' 0814'              	movf	___flmul@temp+1,w
  2590  0135' 008A'              	movwf	??___flmul+1
  2591  0136' 018B'              	clrf	??___flmul+2
  2592  0137' 018C'              	clrf	??___flmul+3
  2593  0138' 0809'              	movf	??___flmul,w
  2594  0139' 0789'              	addwf	___flmul@grs,f
  2595  013A' 080A'              	movf	??___flmul+1,w
  2596  013B' 1103               	clrz
  2597  013C' 1803               	skipnc
  2598  013D' 3E01               	addlw	1
  2599  013E' 1903               	skipnz
  2600  013F' 2800'              	goto	u185_21
  2601  0140' 078A'              	addwf	___flmul@grs+1,f
  2602  0141'                    u185_21:
  2603  0141' 080B'              	movf	??___flmul+2,w
  2604  0142' 1103               	clrz
  2605  0143' 1803               	skipnc
  2606  0144' 3E01               	addlw	1
  2607  0145' 1903               	skipnz
  2608  0146' 2800'              	goto	u185_22
  2609  0147' 078B'              	addwf	___flmul@grs+2,f
  2610  0148'                    u185_22:
  2611  0148' 080C'              	movf	??___flmul+3,w
  2612  0149' 1103               	clrz
  2613  014A' 1803               	skipnc
  2614  014B' 3E01               	addlw	1
  2615  014C' 1903               	skipnz
  2616  014D' 2800'              	goto	u185_23
  2617  014E' 078C'              	addwf	___flmul@grs+3,f
  2618  014F'                    u185_23:
  2619  014F'                    i1l1616:
  2620  014F' 0800'              	movf	___flmul@b,w
  2621  0150' 0080'              	movwf	__Umul8_16@multiplicand
  2622  0151' 0805'              	movf	___flmul@a+1,w
  2623  0152' 120A' 118A' 2000' 120A' 118A' 	fcall	__Umul8_16
  2624  0157' 0801'              	movf	?__Umul8_16+1,w
  2625  0158' 1283               	bcf	3,5	;RP0=0, select bank0
  2626  0159' 1303               	bcf	3,6	;RP1=0, select bank0
  2627  015A' 0094'              	movwf	___flmul@temp+1
  2628  015B' 0800'              	movf	?__Umul8_16,w
  2629  015C' 0093'              	movwf	___flmul@temp
  2630  015D'                    i1l1618:
  2631  015D' 0813'              	movf	___flmul@temp,w
  2632  015E' 0089'              	movwf	??___flmul
  2633  015F' 0814'              	movf	___flmul@temp+1,w
  2634  0160' 008A'              	movwf	??___flmul+1
  2635  0161' 018B'              	clrf	??___flmul+2
  2636  0162' 018C'              	clrf	??___flmul+3
  2637  0163' 0809'              	movf	??___flmul,w
  2638  0164' 0789'              	addwf	___flmul@grs,f
  2639  0165' 080A'              	movf	??___flmul+1,w
  2640  0166' 1103               	clrz
  2641  0167' 1803               	skipnc
  2642  0168' 3E01               	addlw	1
  2643  0169' 1903               	skipnz
  2644  016A' 2800'              	goto	u186_21
  2645  016B' 078A'              	addwf	___flmul@grs+1,f
  2646  016C'                    u186_21:
  2647  016C' 080B'              	movf	??___flmul+2,w
  2648  016D' 1103               	clrz
  2649  016E' 1803               	skipnc
  2650  016F' 3E01               	addlw	1
  2651  0170' 1903               	skipnz
  2652  0171' 2800'              	goto	u186_22
  2653  0172' 078B'              	addwf	___flmul@grs+2,f
  2654  0173'                    u186_22:
  2655  0173' 080C'              	movf	??___flmul+3,w
  2656  0174' 1103               	clrz
  2657  0175' 1803               	skipnc
  2658  0176' 3E01               	addlw	1
  2659  0177' 1903               	skipnz
  2660  0178' 2800'              	goto	u186_23
  2661  0179' 078C'              	addwf	___flmul@grs+3,f
  2662  017A'                    u186_23:
  2663  017A'                    i1l1620:
  2664  017A' 3008               	movlw	8
  2665  017B' 0089'              	movwf	??___flmul
  2666  017C'                    u187_25:
  2667  017C' 1003               	clrc
  2668  017D' 0D89'              	rlf	___flmul@grs,f
  2669  017E' 0D8A'              	rlf	___flmul@grs+1,f
  2670  017F' 0D8B'              	rlf	___flmul@grs+2,f
  2671  0180' 0D8C'              	rlf	___flmul@grs+3,f
  2672  0181' 0B89'              	decfsz	??___flmul,f
  2673  0182' 2800'              	goto	u187_25
  2674  0183' 0800'              	movf	___flmul@b,w
  2675  0184' 0080'              	movwf	__Umul8_16@multiplicand
  2676  0185' 0804'              	movf	___flmul@a,w
  2677  0186' 120A' 118A' 2000' 120A' 118A' 	fcall	__Umul8_16
  2678  018B' 0801'              	movf	?__Umul8_16+1,w
  2679  018C' 1283               	bcf	3,5	;RP0=0, select bank0
  2680  018D' 1303               	bcf	3,6	;RP1=0, select bank0
  2681  018E' 0094'              	movwf	___flmul@temp+1
  2682  018F' 0800'              	movf	?__Umul8_16,w
  2683  0190' 0093'              	movwf	___flmul@temp
  2684  0191'                    i1l1622:
  2685  0191' 0813'              	movf	___flmul@temp,w
  2686  0192' 0089'              	movwf	??___flmul
  2687  0193' 0814'              	movf	___flmul@temp+1,w
  2688  0194' 008A'              	movwf	??___flmul+1
  2689  0195' 018B'              	clrf	??___flmul+2
  2690  0196' 018C'              	clrf	??___flmul+3
  2691  0197' 0809'              	movf	??___flmul,w
  2692  0198' 0789'              	addwf	___flmul@grs,f
  2693  0199' 080A'              	movf	??___flmul+1,w
  2694  019A' 1103               	clrz
  2695  019B' 1803               	skipnc
  2696  019C' 3E01               	addlw	1
  2697  019D' 1903               	skipnz
  2698  019E' 2800'              	goto	u188_21
  2699  019F' 078A'              	addwf	___flmul@grs+1,f
  2700  01A0'                    u188_21:
  2701  01A0' 080B'              	movf	??___flmul+2,w
  2702  01A1' 1103               	clrz
  2703  01A2' 1803               	skipnc
  2704  01A3' 3E01               	addlw	1
  2705  01A4' 1903               	skipnz
  2706  01A5' 2800'              	goto	u188_22
  2707  01A6' 078B'              	addwf	___flmul@grs+2,f
  2708  01A7'                    u188_22:
  2709  01A7' 080C'              	movf	??___flmul+3,w
  2710  01A8' 1103               	clrz
  2711  01A9' 1803               	skipnc
  2712  01AA' 3E01               	addlw	1
  2713  01AB' 1903               	skipnz
  2714  01AC' 2800'              	goto	u188_23
  2715  01AD' 078C'              	addwf	___flmul@grs+3,f
  2716  01AE'                    u188_23:
  2717  01AE'                    i1l1624:
  2718  01AE' 0801'              	movf	___flmul@b+1,w
  2719  01AF' 0080'              	movwf	__Umul8_16@multiplicand
  2720  01B0' 0806'              	movf	___flmul@a+2,w
  2721  01B1' 120A' 118A' 2000' 120A' 118A' 	fcall	__Umul8_16
  2722  01B6' 0801'              	movf	?__Umul8_16+1,w
  2723  01B7' 1283               	bcf	3,5	;RP0=0, select bank0
  2724  01B8' 1303               	bcf	3,6	;RP1=0, select bank0
  2725  01B9' 0094'              	movwf	___flmul@temp+1
  2726  01BA' 0800'              	movf	?__Umul8_16,w
  2727  01BB' 0093'              	movwf	___flmul@temp
  2728  01BC' 0813'              	movf	___flmul@temp,w
  2729  01BD' 0089'              	movwf	??___flmul
  2730  01BE' 0814'              	movf	___flmul@temp+1,w
  2731  01BF' 008A'              	movwf	??___flmul+1
  2732  01C0' 018B'              	clrf	??___flmul+2
  2733  01C1' 018C'              	clrf	??___flmul+3
  2734  01C2' 0809'              	movf	??___flmul,w
  2735  01C3' 078F'              	addwf	___flmul@prod,f
  2736  01C4' 080A'              	movf	??___flmul+1,w
  2737  01C5' 1103               	clrz
  2738  01C6' 1803               	skipnc
  2739  01C7' 3E01               	addlw	1
  2740  01C8' 1903               	skipnz
  2741  01C9' 2800'              	goto	u189_21
  2742  01CA' 0790'              	addwf	___flmul@prod+1,f
  2743  01CB'                    u189_21:
  2744  01CB' 080B'              	movf	??___flmul+2,w
  2745  01CC' 1103               	clrz
  2746  01CD' 1803               	skipnc
  2747  01CE' 3E01               	addlw	1
  2748  01CF' 1903               	skipnz
  2749  01D0' 2800'              	goto	u189_22
  2750  01D1' 0791'              	addwf	___flmul@prod+2,f
  2751  01D2'                    u189_22:
  2752  01D2' 080C'              	movf	??___flmul+3,w
  2753  01D3' 1103               	clrz
  2754  01D4' 1803               	skipnc
  2755  01D5' 3E01               	addlw	1
  2756  01D6' 1903               	skipnz
  2757  01D7' 2800'              	goto	u189_23
  2758  01D8' 0792'              	addwf	___flmul@prod+3,f
  2759  01D9'                    u189_23:
  2760  01D9'                    i1l1626:
  2761  01D9' 0802'              	movf	___flmul@b+2,w
  2762  01DA' 0080'              	movwf	__Umul8_16@multiplicand
  2763  01DB' 0805'              	movf	___flmul@a+1,w
  2764  01DC' 120A' 118A' 2000' 120A' 118A' 	fcall	__Umul8_16
  2765  01E1' 0801'              	movf	?__Umul8_16+1,w
  2766  01E2' 1283               	bcf	3,5	;RP0=0, select bank0
  2767  01E3' 1303               	bcf	3,6	;RP1=0, select bank0
  2768  01E4' 0094'              	movwf	___flmul@temp+1
  2769  01E5' 0800'              	movf	?__Umul8_16,w
  2770  01E6' 0093'              	movwf	___flmul@temp
  2771  01E7'                    i1l1628:
  2772  01E7' 0813'              	movf	___flmul@temp,w
  2773  01E8' 0089'              	movwf	??___flmul
  2774  01E9' 0814'              	movf	___flmul@temp+1,w
  2775  01EA' 008A'              	movwf	??___flmul+1
  2776  01EB' 018B'              	clrf	??___flmul+2
  2777  01EC' 018C'              	clrf	??___flmul+3
  2778  01ED' 0809'              	movf	??___flmul,w
  2779  01EE' 078F'              	addwf	___flmul@prod,f
  2780  01EF' 080A'              	movf	??___flmul+1,w
  2781  01F0' 1103               	clrz
  2782  01F1' 1803               	skipnc
  2783  01F2' 3E01               	addlw	1
  2784  01F3' 1903               	skipnz
  2785  01F4' 2800'              	goto	u190_21
  2786  01F5' 0790'              	addwf	___flmul@prod+1,f
  2787  01F6'                    u190_21:
  2788  01F6' 080B'              	movf	??___flmul+2,w
  2789  01F7' 1103               	clrz
  2790  01F8' 1803               	skipnc
  2791  01F9' 3E01               	addlw	1
  2792  01FA' 1903               	skipnz
  2793  01FB' 2800'              	goto	u190_22
  2794  01FC' 0791'              	addwf	___flmul@prod+2,f
  2795  01FD'                    u190_22:
  2796  01FD' 080C'              	movf	??___flmul+3,w
  2797  01FE' 1103               	clrz
  2798  01FF' 1803               	skipnc
  2799  0200' 3E01               	addlw	1
  2800  0201' 1903               	skipnz
  2801  0202' 2800'              	goto	u190_23
  2802  0203' 0792'              	addwf	___flmul@prod+3,f
  2803  0204'                    u190_23:
  2804  0204' 0802'              	movf	___flmul@b+2,w
  2805  0205' 0080'              	movwf	__Umul8_16@multiplicand
  2806  0206' 0806'              	movf	___flmul@a+2,w
  2807  0207' 120A' 118A' 2000' 120A' 118A' 	fcall	__Umul8_16
  2808  020C' 0801'              	movf	?__Umul8_16+1,w
  2809  020D' 1283               	bcf	3,5	;RP0=0, select bank0
  2810  020E' 1303               	bcf	3,6	;RP1=0, select bank0
  2811  020F' 0094'              	movwf	___flmul@temp+1
  2812  0210' 0800'              	movf	?__Umul8_16,w
  2813  0211' 0093'              	movwf	___flmul@temp
  2814  0212'                    i1l1630:
  2815  0212' 0813'              	movf	___flmul@temp,w
  2816  0213' 0089'              	movwf	??___flmul
  2817  0214' 0814'              	movf	___flmul@temp+1,w
  2818  0215' 008A'              	movwf	??___flmul+1
  2819  0216' 018B'              	clrf	??___flmul+2
  2820  0217' 018C'              	clrf	??___flmul+3
  2821  0218' 3008               	movlw	8
  2822  0219'                    u191_25:
  2823  0219' 1003               	clrc
  2824  021A' 0D89'              	rlf	??___flmul,f
  2825  021B' 0D8A'              	rlf	??___flmul+1,f
  2826  021C' 0D8B'              	rlf	??___flmul+2,f
  2827  021D' 0D8C'              	rlf	??___flmul+3,f
  2828  021E'                    u191_20:
  2829  021E' 3EFF               	addlw	-1
  2830  021F' 1D03               	skipz
  2831  0220' 2800'              	goto	u191_25
  2832  0221' 0809'              	movf	??___flmul,w
  2833  0222' 078F'              	addwf	___flmul@prod,f
  2834  0223' 080A'              	movf	??___flmul+1,w
  2835  0224' 1103               	clrz
  2836  0225' 1803               	skipnc
  2837  0226' 3E01               	addlw	1
  2838  0227' 1903               	skipnz
  2839  0228' 2800'              	goto	u192_21
  2840  0229' 0790'              	addwf	___flmul@prod+1,f
  2841  022A'                    u192_21:
  2842  022A' 080B'              	movf	??___flmul+2,w
  2843  022B' 1103               	clrz
  2844  022C' 1803               	skipnc
  2845  022D' 3E01               	addlw	1
  2846  022E' 1903               	skipnz
  2847  022F' 2800'              	goto	u192_22
  2848  0230' 0791'              	addwf	___flmul@prod+2,f
  2849  0231'                    u192_22:
  2850  0231' 080C'              	movf	??___flmul+3,w
  2851  0232' 1103               	clrz
  2852  0233' 1803               	skipnc
  2853  0234' 3E01               	addlw	1
  2854  0235' 1903               	skipnz
  2855  0236' 2800'              	goto	u192_23
  2856  0237' 0792'              	addwf	___flmul@prod+3,f
  2857  0238'                    u192_23:
  2858  0238'                    i1l1632:
  2859  0238' 0809'              	movf	___flmul@grs,w
  2860  0239' 0089'              	movwf	??___flmul
  2861  023A' 080A'              	movf	___flmul@grs+1,w
  2862  023B' 008A'              	movwf	??___flmul+1
  2863  023C' 080B'              	movf	___flmul@grs+2,w
  2864  023D' 008B'              	movwf	??___flmul+2
  2865  023E' 080C'              	movf	___flmul@grs+3,w
  2866  023F' 008C'              	movwf	??___flmul+3
  2867  0240' 3018               	movlw	24
  2868  0241'                    u193_25:
  2869  0241' 1003               	clrc
  2870  0242' 0C8C'              	rrf	??___flmul+3,f
  2871  0243' 0C8B'              	rrf	??___flmul+2,f
  2872  0244' 0C8A'              	rrf	??___flmul+1,f
  2873  0245' 0C89'              	rrf	??___flmul,f
  2874  0246'                    u193_20:
  2875  0246' 3EFF               	addlw	-1
  2876  0247' 1D03               	skipz
  2877  0248' 2800'              	goto	u193_25
  2878  0249' 0809'              	movf	??___flmul,w
  2879  024A' 078F'              	addwf	___flmul@prod,f
  2880  024B' 080A'              	movf	??___flmul+1,w
  2881  024C' 1103               	clrz
  2882  024D' 1803               	skipnc
  2883  024E' 3E01               	addlw	1
  2884  024F' 1903               	skipnz
  2885  0250' 2800'              	goto	u194_21
  2886  0251' 0790'              	addwf	___flmul@prod+1,f
  2887  0252'                    u194_21:
  2888  0252' 080B'              	movf	??___flmul+2,w
  2889  0253' 1103               	clrz
  2890  0254' 1803               	skipnc
  2891  0255' 3E01               	addlw	1
  2892  0256' 1903               	skipnz
  2893  0257' 2800'              	goto	u194_22
  2894  0258' 0791'              	addwf	___flmul@prod+2,f
  2895  0259'                    u194_22:
  2896  0259' 080C'              	movf	??___flmul+3,w
  2897  025A' 1103               	clrz
  2898  025B' 1803               	skipnc
  2899  025C' 3E01               	addlw	1
  2900  025D' 1903               	skipnz
  2901  025E' 2800'              	goto	u194_23
  2902  025F' 0792'              	addwf	___flmul@prod+3,f
  2903  0260'                    u194_23:
  2904  0260'                    i1l1634:
  2905  0260' 3008               	movlw	8
  2906  0261' 0089'              	movwf	??___flmul
  2907  0262'                    u195_25:
  2908  0262' 1003               	clrc
  2909  0263' 0D89'              	rlf	___flmul@grs,f
  2910  0264' 0D8A'              	rlf	___flmul@grs+1,f
  2911  0265' 0D8B'              	rlf	___flmul@grs+2,f
  2912  0266' 0D8C'              	rlf	___flmul@grs+3,f
  2913  0267' 0B89'              	decfsz	??___flmul,f
  2914  0268' 2800'              	goto	u195_25
  2915  0269'                    i1l1636:
  2916  0269' 080E'              	movf	___flmul@bexp,w
  2917  026A' 070D'              	addwf	___flmul@aexp,w
  2918  026B' 0089'              	movwf	??___flmul
  2919  026C' 018A'              	clrf	??___flmul+1
  2920  026D' 0D8A'              	rlf	??___flmul+1,f
  2921  026E' 0809'              	movf	??___flmul,w
  2922  026F' 3E82               	addlw	130
  2923  0270' 0093'              	movwf	___flmul@temp
  2924  0271' 080A'              	movf	??___flmul+1,w
  2925  0272' 1803               	skipnc
  2926  0273' 3E01               	addlw	1
  2927  0274' 3EFF               	addlw	255
  2928  0275' 0094'              	movwf	___flmul@temp+1
  2929  0276' 2800'              	goto	i1l1648
  2930  0277'                    i1l1638:
  2931  0277' 3001               	movlw	1
  2932  0278' 0089'              	movwf	??___flmul
  2933  0279'                    u196_25:
  2934  0279' 1003               	clrc
  2935  027A' 0D8F'              	rlf	___flmul@prod,f
  2936  027B' 0D90'              	rlf	___flmul@prod+1,f
  2937  027C' 0D91'              	rlf	___flmul@prod+2,f
  2938  027D' 0D92'              	rlf	___flmul@prod+3,f
  2939  027E' 0B89'              	decfsz	??___flmul,f
  2940  027F' 2800'              	goto	u196_25
  2941  0280'                    i1l1640:
  2942  0280' 1F8C'              	btfss	___flmul@grs+3,7
  2943  0281' 2800'              	goto	u197_21
  2944  0282' 2800'              	goto	u197_20
  2945  0283'                    u197_21:
  2946  0283' 2800'              	goto	i1l1644
  2947  0284'                    u197_20:
  2948  0284'                    i1l1642:
  2949  0284' 140F'              	bsf	___flmul@prod,0
  2950  0285'                    i1l1644:
  2951  0285' 3001               	movlw	1
  2952  0286' 0089'              	movwf	??___flmul
  2953  0287'                    u198_25:
  2954  0287' 1003               	clrc
  2955  0288' 0D89'              	rlf	___flmul@grs,f
  2956  0289' 0D8A'              	rlf	___flmul@grs+1,f
  2957  028A' 0D8B'              	rlf	___flmul@grs+2,f
  2958  028B' 0D8C'              	rlf	___flmul@grs+3,f
  2959  028C' 0B89'              	decfsz	??___flmul,f
  2960  028D' 2800'              	goto	u198_25
  2961  028E'                    i1l1646:
  2962  028E' 30FF               	movlw	255
  2963  028F' 0793'              	addwf	___flmul@temp,f
  2964  0290' 1803               	skipnc
  2965  0291' 0A94'              	incf	___flmul@temp+1,f
  2966  0292' 30FF               	movlw	255
  2967  0293' 0794'              	addwf	___flmul@temp+1,f
  2968  0294'                    i1l1648:
  2969  0294' 1F91'              	btfss	___flmul@prod+2,7
  2970  0295' 2800'              	goto	u199_21
  2971  0296' 2800'              	goto	u199_20
  2972  0297'                    u199_21:
  2973  0297' 2800'              	goto	i1l1638
  2974  0298'                    u199_20:
  2975  0298'                    i1l1650:
  2976  0298' 018D'              	clrf	___flmul@aexp
  2977  0299'                    i1l1652:
  2978  0299' 1F8C'              	btfss	___flmul@grs+3,7
  2979  029A' 2800'              	goto	u200_21
  2980  029B' 2800'              	goto	u200_20
  2981  029C'                    u200_21:
  2982  029C' 2800'              	goto	i1l1660
  2983  029D'                    u200_20:
  2984  029D'                    i1l1654:
  2985  029D' 30FF               	movlw	255
  2986  029E' 0509'              	andwf	___flmul@grs,w
  2987  029F' 0089'              	movwf	??___flmul
  2988  02A0' 30FF               	movlw	255
  2989  02A1' 050A'              	andwf	___flmul@grs+1,w
  2990  02A2' 008A'              	movwf	??___flmul+1
  2991  02A3' 30FF               	movlw	255
  2992  02A4' 050B'              	andwf	___flmul@grs+2,w
  2993  02A5' 008B'              	movwf	??___flmul+2
  2994  02A6' 307F               	movlw	127
  2995  02A7' 050C'              	andwf	___flmul@grs+3,w
  2996  02A8' 008C'              	movwf	??___flmul+3
  2997  02A9' 080C'              	movf	??___flmul+3,w
  2998  02AA' 040B'              	iorwf	??___flmul+2,w
  2999  02AB' 040A'              	iorwf	??___flmul+1,w
  3000  02AC' 0409'              	iorwf	??___flmul,w
  3001  02AD' 1903               	skipnz
  3002  02AE' 2800'              	goto	u201_21
  3003  02AF' 2800'              	goto	u201_20
  3004  02B0'                    u201_21:
  3005  02B0' 2800'              	goto	i1l585
  3006  02B1'                    u201_20:
  3007  02B1'                    i1l1656:
  3008  02B1' 018D'              	clrf	___flmul@aexp
  3009  02B2' 0A8D'              	incf	___flmul@aexp,f
  3010  02B3' 2800'              	goto	i1l1660
  3011  02B4'                    i1l585:
  3012  02B4' 1C0F'              	btfss	___flmul@prod,0
  3013  02B5' 2800'              	goto	u202_21
  3014  02B6' 2800'              	goto	u202_20
  3015  02B7'                    u202_21:
  3016  02B7' 2800'              	goto	i1l1660
  3017  02B8'                    u202_20:
  3018  02B8' 2800'              	goto	i1l1656
  3019  02B9'                    i1l1660:
  3020  02B9' 080D'              	movf	___flmul@aexp,w
  3021  02BA' 1903               	btfsc	3,2
  3022  02BB' 2800'              	goto	u203_21
  3023  02BC' 2800'              	goto	u203_20
  3024  02BD'                    u203_21:
  3025  02BD' 2800'              	goto	i1l1670
  3026  02BE'                    u203_20:
  3027  02BE'                    i1l1662:
  3028  02BE' 3001               	movlw	1
  3029  02BF' 078F'              	addwf	___flmul@prod,f
  3030  02C0' 3000               	movlw	0
  3031  02C1' 1803               	skipnc
  3032  02C2' 3001               	movlw	1
  3033  02C3' 0790'              	addwf	___flmul@prod+1,f
  3034  02C4' 3000               	movlw	0
  3035  02C5' 1803               	skipnc
  3036  02C6' 3001               	movlw	1
  3037  02C7' 0791'              	addwf	___flmul@prod+2,f
  3038  02C8' 3000               	movlw	0
  3039  02C9' 1803               	skipnc
  3040  02CA' 3001               	movlw	1
  3041  02CB' 0792'              	addwf	___flmul@prod+3,f
  3042  02CC'                    i1l1664:
  3043  02CC' 1C12'              	btfss	___flmul@prod+3,0
  3044  02CD' 2800'              	goto	u204_21
  3045  02CE' 2800'              	goto	u204_20
  3046  02CF'                    u204_21:
  3047  02CF' 2800'              	goto	i1l1670
  3048  02D0'                    u204_20:
  3049  02D0'                    i1l1666:
  3050  02D0' 080F'              	movf	___flmul@prod,w
  3051  02D1' 0089'              	movwf	??___flmul
  3052  02D2' 0810'              	movf	___flmul@prod+1,w
  3053  02D3' 008A'              	movwf	??___flmul+1
  3054  02D4' 0811'              	movf	___flmul@prod+2,w
  3055  02D5' 008B'              	movwf	??___flmul+2
  3056  02D6' 0812'              	movf	___flmul@prod+3,w
  3057  02D7' 008C'              	movwf	??___flmul+3
  3058  02D8' 3001               	movlw	1
  3059  02D9' 008D'              	movwf	??___flmul+4
  3060  02DA'                    u205_25:
  3061  02DA' 0D0C'              	rlf	??___flmul+3,w
  3062  02DB' 0C8C'              	rrf	??___flmul+3,f
  3063  02DC' 0C8B'              	rrf	??___flmul+2,f
  3064  02DD' 0C8A'              	rrf	??___flmul+1,f
  3065  02DE' 0C89'              	rrf	??___flmul,f
  3066  02DF'                    u205_20:
  3067  02DF' 0B8D'              	decfsz	??___flmul+4,f
  3068  02E0' 2800'              	goto	u205_25
  3069  02E1' 080C'              	movf	??___flmul+3,w
  3070  02E2' 0092'              	movwf	___flmul@prod+3
  3071  02E3' 080B'              	movf	??___flmul+2,w
  3072  02E4' 0091'              	movwf	___flmul@prod+2
  3073  02E5' 080A'              	movf	??___flmul+1,w
  3074  02E6' 0090'              	movwf	___flmul@prod+1
  3075  02E7' 0809'              	movf	??___flmul,w
  3076  02E8' 008F'              	movwf	___flmul@prod
  3077  02E9'                    i1l1668:
  3078  02E9' 3001               	movlw	1
  3079  02EA' 0793'              	addwf	___flmul@temp,f
  3080  02EB' 1803               	skipnc
  3081  02EC' 0A94'              	incf	___flmul@temp+1,f
  3082  02ED' 3000               	movlw	0
  3083  02EE' 0794'              	addwf	___flmul@temp+1,f
  3084  02EF'                    i1l1670:
  3085  02EF' 0814'              	movf	___flmul@temp+1,w
  3086  02F0' 3A80               	xorlw	128
  3087  02F1' 00FF               	movwf	btemp+1
  3088  02F2' 3080               	movlw	128
  3089  02F3' 027F               	subwf	btemp+1,w
  3090  02F4' 1D03               	skipz
  3091  02F5' 2800'              	goto	u206_25
  3092  02F6' 30FF               	movlw	255
  3093  02F7' 0213'              	subwf	___flmul@temp,w
  3094  02F8'                    u206_25:
  3095  02F8' 1C03               	skipc
  3096  02F9' 2800'              	goto	u206_21
  3097  02FA' 2800'              	goto	u206_20
  3098  02FB'                    u206_21:
  3099  02FB' 2800'              	goto	i1l1674
  3100  02FC'                    u206_20:
  3101  02FC'                    i1l1672:
  3102  02FC' 307F               	movlw	127
  3103  02FD' 1283               	bcf	3,5	;RP0=0, select bank0
  3104  02FE' 1303               	bcf	3,6	;RP1=0, select bank0
  3105  02FF' 0092'              	movwf	___flmul@prod+3
  3106  0300' 3080               	movlw	128
  3107  0301' 0091'              	movwf	___flmul@prod+2
  3108  0302' 3000               	movlw	0
  3109  0303' 0090'              	movwf	___flmul@prod+1
  3110  0304' 3000               	movlw	0
  3111  0305' 008F'              	movwf	___flmul@prod
  3112  0306' 2800'              	goto	i1l591
  3113  0307'                    i1l1674:
  3114  0307' 1283               	bcf	3,5	;RP0=0, select bank0
  3115  0308' 1303               	bcf	3,6	;RP1=0, select bank0
  3116  0309' 0814'              	movf	___flmul@temp+1,w
  3117  030A' 3A80               	xorlw	128
  3118  030B' 00FF               	movwf	btemp+1
  3119  030C' 3080               	movlw	128
  3120  030D' 027F               	subwf	btemp+1,w
  3121  030E' 1D03               	skipz
  3122  030F' 2800'              	goto	u207_25
  3123  0310' 3001               	movlw	1
  3124  0311' 0213'              	subwf	___flmul@temp,w
  3125  0312'                    u207_25:
  3126  0312' 1803               	skipnc
  3127  0313' 2800'              	goto	u207_21
  3128  0314' 2800'              	goto	u207_20
  3129  0315'                    u207_21:
  3130  0315' 2800'              	goto	i1l1680
  3131  0316'                    u207_20:
  3132  0316'                    i1l1676:
  3133  0316' 3000               	movlw	0
  3134  0317' 1283               	bcf	3,5	;RP0=0, select bank0
  3135  0318' 1303               	bcf	3,6	;RP1=0, select bank0
  3136  0319' 0092'              	movwf	___flmul@prod+3
  3137  031A' 3000               	movlw	0
  3138  031B' 0091'              	movwf	___flmul@prod+2
  3139  031C' 3000               	movlw	0
  3140  031D' 0090'              	movwf	___flmul@prod+1
  3141  031E' 3000               	movlw	0
  3142  031F' 008F'              	movwf	___flmul@prod
  3143  0320'                    i1l1678:
  3144  0320' 0188'              	clrf	___flmul@sign
  3145  0321' 2800'              	goto	i1l591
  3146  0322'                    i1l1680:
  3147  0322' 1283               	bcf	3,5	;RP0=0, select bank0
  3148  0323' 1303               	bcf	3,6	;RP1=0, select bank0
  3149  0324' 0813'              	movf	___flmul@temp,w
  3150  0325' 008E'              	movwf	___flmul@bexp
  3151  0326' 30FF               	movlw	255
  3152  0327' 058F'              	andwf	___flmul@prod,f
  3153  0328' 30FF               	movlw	255
  3154  0329' 0590'              	andwf	___flmul@prod+1,f
  3155  032A' 307F               	movlw	127
  3156  032B' 0591'              	andwf	___flmul@prod+2,f
  3157  032C' 3000               	movlw	0
  3158  032D' 0592'              	andwf	___flmul@prod+3,f
  3159  032E'                    i1l1682:
  3160  032E' 1C0E'              	btfss	___flmul@bexp,0
  3161  032F' 2800'              	goto	u208_21
  3162  0330' 2800'              	goto	u208_20
  3163  0331'                    u208_21:
  3164  0331' 2800'              	goto	i1l1686
  3165  0332'                    u208_20:
  3166  0332'                    i1l1684:
  3167  0332' 1791'              	bsf	___flmul@prod+2,7
  3168  0333'                    i1l1686:
  3169  0333' 080E'              	movf	___flmul@bexp,w
  3170  0334' 0089'              	movwf	??___flmul
  3171  0335' 1003               	clrc
  3172  0336' 0C09'              	rrf	??___flmul,w
  3173  0337' 0092'              	movwf	___flmul@prod+3
  3174  0338'                    i1l591:
  3175  0338' 0808'              	movf	___flmul@sign,w
  3176  0339' 0089'              	movwf	??___flmul
  3177  033A' 0809'              	movf	??___flmul,w
  3178  033B' 0492'              	iorwf	___flmul@prod+3,f
  3179  033C'                    i1l1688:
  3180  033C' 0812'              	movf	___flmul@prod+3,w
  3181  033D' 0083'              	movwf	?___flmul+3
  3182  033E' 0811'              	movf	___flmul@prod+2,w
  3183  033F' 0082'              	movwf	?___flmul+2
  3184  0340' 0810'              	movf	___flmul@prod+1,w
  3185  0341' 0081'              	movwf	?___flmul+1
  3186  0342' 080F'              	movf	___flmul@prod,w
  3187  0343' 0080'              	movwf	?___flmul
  3188  0344'                    i1l579:
  3189  0344' 0008               	return
  3190  0345'                    __end_of___flmul:
  3191                           
  3192                           	psect	text9
  3193  0000'                    __ptext9:	
  3194 ;; *************** function __Umul8_16 *****************
  3195 ;; Defined at:
  3196 ;;		line 4 in file "C:\Program Files\Microchip\xc8\v2.40\pic\sources\c90\common\Umul8_16.c"
  3197 ;; Parameters:    Size  Location     Type
  3198 ;;  multiplier      1    wreg     unsigned char 
  3199 ;;  multiplicand    1    0[COMMON] unsigned char 
  3200 ;; Auto vars:     Size  Location     Type
  3201 ;;  multiplier      1    8[COMMON] unsigned char 
  3202 ;;  word_mpld       2    6[COMMON] unsigned int 
  3203 ;;  product         2    4[COMMON] unsigned int 
  3204 ;; Return value:  Size  Location     Type
  3205 ;;                  2    0[COMMON] unsigned int 
  3206 ;; Registers used:
  3207 ;;		wreg, status,2, status,0
  3208 ;; Tracked objects:
  3209 ;;		On entry : 0/0
  3210 ;;		On exit  : 0/0
  3211 ;;		Unchanged: 0/0
  3212 ;; Data sizes:     COMMON   BANK0   BANK1   BANK3   BANK2
  3213 ;;      Params:         2       0       0       0       0
  3214 ;;      Locals:         5       0       0       0       0
  3215 ;;      Temps:          2       0       0       0       0
  3216 ;;      Totals:         9       0       0       0       0
  3217 ;;Total ram usage:        9 bytes
  3218 ;; Hardware stack levels used: 1
  3219 ;; This function calls:
  3220 ;;		Nothing
  3221 ;; This function is called by:
  3222 ;;		___flmul
  3223 ;; This function uses a non-reentrant model
  3224 ;;
  3225                           
  3226  0000'                    __Umul8_16:	
  3227                           ;psect for function __Umul8_16
  3228                           
  3229                           
  3230                           ;incstack = 0
  3231                           ; Regs used in __Umul8_16: [wreg+status,2+status,0]
  3232                           ;__Umul8_16@multiplier stored from wreg
  3233  0000' 0088'              	movwf	__Umul8_16@multiplier
  3234  0001'                    i1l1272:
  3235  0001' 0184'              	clrf	__Umul8_16@product
  3236  0002' 0185'              	clrf	__Umul8_16@product+1
  3237  0003'                    i1l1274:
  3238  0003' 0800'              	movf	__Umul8_16@multiplicand,w
  3239  0004' 0082'              	movwf	??__Umul8_16
  3240  0005' 0183'              	clrf	??__Umul8_16+1
  3241  0006' 0802'              	movf	??__Umul8_16,w
  3242  0007' 0086'              	movwf	__Umul8_16@word_mpld
  3243  0008' 0803'              	movf	??__Umul8_16+1,w
  3244  0009' 0087'              	movwf	__Umul8_16@word_mpld+1
  3245  000A'                    i1l1276:
  3246  000A' 1C08'              	btfss	__Umul8_16@multiplier,0
  3247  000B' 2800'              	goto	u115_21
  3248  000C' 2800'              	goto	u115_20
  3249  000D'                    u115_21:
  3250  000D' 2800'              	goto	i1l598
  3251  000E'                    u115_20:
  3252  000E'                    i1l1278:
  3253  000E' 0806'              	movf	__Umul8_16@word_mpld,w
  3254  000F' 0784'              	addwf	__Umul8_16@product,f
  3255  0010' 1803               	skipnc
  3256  0011' 0A85'              	incf	__Umul8_16@product+1,f
  3257  0012' 0807'              	movf	__Umul8_16@word_mpld+1,w
  3258  0013' 0785'              	addwf	__Umul8_16@product+1,f
  3259  0014'                    i1l598:
  3260  0014' 3001               	movlw	1
  3261  0015'                    u116_25:
  3262  0015' 1003               	clrc
  3263  0016' 0D86'              	rlf	__Umul8_16@word_mpld,f
  3264  0017' 0D87'              	rlf	__Umul8_16@word_mpld+1,f
  3265  0018' 3EFF               	addlw	-1
  3266  0019' 1D03               	skipz
  3267  001A' 2800'              	goto	u116_25
  3268  001B' 1003               	clrc
  3269  001C' 0C88'              	rrf	__Umul8_16@multiplier,f
  3270  001D'                    i1l1280:
  3271  001D' 0808'              	movf	__Umul8_16@multiplier,w
  3272  001E' 1D03               	btfss	3,2
  3273  001F' 2800'              	goto	u117_21
  3274  0020' 2800'              	goto	u117_20
  3275  0021'                    u117_21:
  3276  0021' 2800'              	goto	i1l1276
  3277  0022'                    u117_20:
  3278  0022'                    i1l1282:
  3279  0022' 0805'              	movf	__Umul8_16@product+1,w
  3280  0023' 0081'              	movwf	?__Umul8_16+1
  3281  0024' 0804'              	movf	__Umul8_16@product,w
  3282  0025' 0080'              	movwf	?__Umul8_16
  3283  0026'                    i1l600:
  3284  0026' 0008               	return
  3285  0027'                    __end_of__Umul8_16:
  3286                           
  3287                           	psect	text10
  3288  0000'                    __ptext10:	
  3289 ;; *************** function ___fldiv *****************
  3290 ;; Defined at:
  3291 ;;		line 8 in file "C:\Program Files\Microchip\xc8\v2.40\pic\sources\c90\common\sprcdiv.c"
  3292 ;; Parameters:    Size  Location     Type
  3293 ;;  a               4    0[COMMON] unsigned int 
  3294 ;;  b               4    4[COMMON] unsigned int 
  3295 ;; Auto vars:     Size  Location     Type
  3296 ;;  grs             4    7[BANK0 ] unsigned long 
  3297 ;;  rem             4    0[BANK0 ] unsigned long 
  3298 ;;  new_exp         2    5[BANK0 ] int 
  3299 ;;  aexp            1   12[BANK0 ] unsigned char 
  3300 ;;  bexp            1   11[BANK0 ] unsigned char 
  3301 ;;  sign            1    4[BANK0 ] unsigned char 
  3302 ;; Return value:  Size  Location     Type
  3303 ;;                  4    0[COMMON] unsigned char 
  3304 ;; Registers used:
  3305 ;;		wreg, status,2, status,0, btemp+1
  3306 ;; Tracked objects:
  3307 ;;		On entry : 0/0
  3308 ;;		On exit  : 0/0
  3309 ;;		Unchanged: 0/0
  3310 ;; Data sizes:     COMMON   BANK0   BANK1   BANK3   BANK2
  3311 ;;      Params:         8       0       0       0       0
  3312 ;;      Locals:         0      13       0       0       0
  3313 ;;      Temps:          5       0       0       0       0
  3314 ;;      Totals:        13      13       0       0       0
  3315 ;;Total ram usage:       26 bytes
  3316 ;; Hardware stack levels used: 1
  3317 ;; This function calls:
  3318 ;;		Nothing
  3319 ;; This function is called by:
  3320 ;;		_Count_Up
  3321 ;; This function uses a non-reentrant model
  3322 ;;
  3323                           
  3324  0000'                    ___fldiv:	
  3325                           ;psect for function ___fldiv
  3326                           
  3327  0000'                    i1l1410:	
  3328                           ;incstack = 0
  3329                           ; Regs used in ___fldiv: [wreg+status,2+status,0+btemp+1]
  3330                           
  3331  0000' 0807'              	movf	___fldiv@b+3,w
  3332  0001' 3980               	andlw	128
  3333  0002' 1283               	bcf	3,5	;RP0=0, select bank0
  3334  0003' 1303               	bcf	3,6	;RP1=0, select bank0
  3335  0004' 0084'              	movwf	___fldiv@sign
  3336  0005'                    i1l1412:
  3337  0005' 0807'              	movf	___fldiv@b+3,w
  3338  0006' 0088'              	movwf	??___fldiv
  3339  0007' 0708'              	addwf	??___fldiv,w
  3340  0008' 008B'              	movwf	___fldiv@bexp
  3341  0009'                    i1l1414:
  3342  0009' 1F86'              	btfss	___fldiv@b+2,7
  3343  000A' 2800'              	goto	u142_21
  3344  000B' 2800'              	goto	u142_20
  3345  000C'                    u142_21:
  3346  000C' 2800'              	goto	i1l1418
  3347  000D'                    u142_20:
  3348  000D'                    i1l1416:
  3349  000D' 140B'              	bsf	___fldiv@bexp,0
  3350  000E'                    i1l1418:
  3351  000E' 080B'              	movf	___fldiv@bexp,w
  3352  000F' 1903               	btfsc	3,2
  3353  0010' 2800'              	goto	u143_21
  3354  0011' 2800'              	goto	u143_20
  3355  0012'                    u143_21:
  3356  0012' 2800'              	goto	i1l1428
  3357  0013'                    u143_20:
  3358  0013'                    i1l1420:
  3359  0013' 0A0B'              	incf	___fldiv@bexp,w
  3360  0014' 1D03               	btfss	3,2
  3361  0015' 2800'              	goto	u144_21
  3362  0016' 2800'              	goto	u144_20
  3363  0017'                    u144_21:
  3364  0017' 2800'              	goto	i1l1424
  3365  0018'                    u144_20:
  3366  0018'                    i1l1422:
  3367  0018' 3000               	movlw	0
  3368  0019' 0087'              	movwf	___fldiv@b+3
  3369  001A' 3000               	movlw	0
  3370  001B' 0086'              	movwf	___fldiv@b+2
  3371  001C' 3000               	movlw	0
  3372  001D' 0085'              	movwf	___fldiv@b+1
  3373  001E' 3000               	movlw	0
  3374  001F' 0084'              	movwf	___fldiv@b
  3375  0020'                    i1l1424:
  3376  0020' 1786'              	bsf	___fldiv@b+2,7
  3377  0021'                    i1l1426:
  3378  0021' 0187'              	clrf	___fldiv@b+3
  3379  0022' 2800'              	goto	i1l1430
  3380  0023'                    i1l1428:
  3381  0023' 3000               	movlw	0
  3382  0024' 0087'              	movwf	___fldiv@b+3
  3383  0025' 3000               	movlw	0
  3384  0026' 0086'              	movwf	___fldiv@b+2
  3385  0027' 3000               	movlw	0
  3386  0028' 0085'              	movwf	___fldiv@b+1
  3387  0029' 3000               	movlw	0
  3388  002A' 0084'              	movwf	___fldiv@b
  3389  002B'                    i1l1430:
  3390  002B' 0803'              	movf	___fldiv@a+3,w
  3391  002C' 3980               	andlw	128
  3392  002D' 0088'              	movwf	??___fldiv
  3393  002E' 0808'              	movf	??___fldiv,w
  3394  002F' 0684'              	xorwf	___fldiv@sign,f
  3395  0030'                    i1l1432:
  3396  0030' 0803'              	movf	___fldiv@a+3,w
  3397  0031' 0088'              	movwf	??___fldiv
  3398  0032' 0708'              	addwf	??___fldiv,w
  3399  0033' 008C'              	movwf	___fldiv@aexp
  3400  0034'                    i1l1434:
  3401  0034' 1F82'              	btfss	___fldiv@a+2,7
  3402  0035' 2800'              	goto	u145_21
  3403  0036' 2800'              	goto	u145_20
  3404  0037'                    u145_21:
  3405  0037' 2800'              	goto	i1l1438
  3406  0038'                    u145_20:
  3407  0038'                    i1l1436:
  3408  0038' 140C'              	bsf	___fldiv@aexp,0
  3409  0039'                    i1l1438:
  3410  0039' 080C'              	movf	___fldiv@aexp,w
  3411  003A' 1903               	btfsc	3,2
  3412  003B' 2800'              	goto	u146_21
  3413  003C' 2800'              	goto	u146_20
  3414  003D'                    u146_21:
  3415  003D' 2800'              	goto	i1l1448
  3416  003E'                    u146_20:
  3417  003E'                    i1l1440:
  3418  003E' 0A0C'              	incf	___fldiv@aexp,w
  3419  003F' 1D03               	btfss	3,2
  3420  0040' 2800'              	goto	u147_21
  3421  0041' 2800'              	goto	u147_20
  3422  0042'                    u147_21:
  3423  0042' 2800'              	goto	i1l1444
  3424  0043'                    u147_20:
  3425  0043'                    i1l1442:
  3426  0043' 3000               	movlw	0
  3427  0044' 0083'              	movwf	___fldiv@a+3
  3428  0045' 3000               	movlw	0
  3429  0046' 0082'              	movwf	___fldiv@a+2
  3430  0047' 3000               	movlw	0
  3431  0048' 0081'              	movwf	___fldiv@a+1
  3432  0049' 3000               	movlw	0
  3433  004A' 0080'              	movwf	___fldiv@a
  3434  004B'                    i1l1444:
  3435  004B' 1782'              	bsf	___fldiv@a+2,7
  3436  004C'                    i1l1446:
  3437  004C' 0183'              	clrf	___fldiv@a+3
  3438  004D' 2800'              	goto	i1l539
  3439  004E'                    i1l1448:
  3440  004E' 3000               	movlw	0
  3441  004F' 0083'              	movwf	___fldiv@a+3
  3442  0050' 3000               	movlw	0
  3443  0051' 0082'              	movwf	___fldiv@a+2
  3444  0052' 3000               	movlw	0
  3445  0053' 0081'              	movwf	___fldiv@a+1
  3446  0054' 3000               	movlw	0
  3447  0055' 0080'              	movwf	___fldiv@a
  3448  0056'                    i1l539:
  3449  0056' 0803'              	movf	___fldiv@a+3,w
  3450  0057' 0402'              	iorwf	___fldiv@a+2,w
  3451  0058' 0401'              	iorwf	___fldiv@a+1,w
  3452  0059' 0400'              	iorwf	___fldiv@a,w
  3453  005A' 1D03               	skipz
  3454  005B' 2800'              	goto	u148_21
  3455  005C' 2800'              	goto	u148_20
  3456  005D'                    u148_21:
  3457  005D' 2800'              	goto	i1l1458
  3458  005E'                    u148_20:
  3459  005E'                    i1l1450:
  3460  005E' 3000               	movlw	0
  3461  005F' 0087'              	movwf	___fldiv@b+3
  3462  0060' 3000               	movlw	0
  3463  0061' 0086'              	movwf	___fldiv@b+2
  3464  0062' 3000               	movlw	0
  3465  0063' 0085'              	movwf	___fldiv@b+1
  3466  0064' 3000               	movlw	0
  3467  0065' 0084'              	movwf	___fldiv@b
  3468  0066' 3080               	movlw	128
  3469  0067' 0486'              	iorwf	___fldiv@b+2,f
  3470  0068' 307F               	movlw	127
  3471  0069' 0487'              	iorwf	___fldiv@b+3,f
  3472  006A'                    i1l1452:
  3473  006A' 0804'              	movf	___fldiv@sign,w
  3474  006B' 0088'              	movwf	??___fldiv
  3475  006C' 0808'              	movf	??___fldiv,w
  3476  006D' 0487'              	iorwf	___fldiv@b+3,f
  3477  006E'                    i1l1454:
  3478  006E' 0807'              	movf	___fldiv@b+3,w
  3479  006F' 0083'              	movwf	?___fldiv+3
  3480  0070' 0806'              	movf	___fldiv@b+2,w
  3481  0071' 0082'              	movwf	?___fldiv+2
  3482  0072' 0805'              	movf	___fldiv@b+1,w
  3483  0073' 0081'              	movwf	?___fldiv+1
  3484  0074' 0804'              	movf	___fldiv@b,w
  3485  0075' 0080'              	movwf	?___fldiv
  3486  0076' 2800'              	goto	i1l541
  3487  0077'                    i1l1458:
  3488  0077' 080B'              	movf	___fldiv@bexp,w
  3489  0078' 1D03               	btfss	3,2
  3490  0079' 2800'              	goto	u149_21
  3491  007A' 2800'              	goto	u149_20
  3492  007B'                    u149_21:
  3493  007B' 2800'              	goto	i1l1464
  3494  007C'                    u149_20:
  3495  007C'                    i1l1460:
  3496  007C' 3000               	movlw	0
  3497  007D' 0083'              	movwf	?___fldiv+3
  3498  007E' 3000               	movlw	0
  3499  007F' 0082'              	movwf	?___fldiv+2
  3500  0080' 3000               	movlw	0
  3501  0081' 0081'              	movwf	?___fldiv+1
  3502  0082' 3000               	movlw	0
  3503  0083' 0080'              	movwf	?___fldiv
  3504  0084' 2800'              	goto	i1l541
  3505  0085'                    i1l1464:
  3506  0085' 080B'              	movf	___fldiv@bexp,w
  3507  0086' 0088'              	movwf	??___fldiv
  3508  0087' 0189'              	clrf	??___fldiv+1
  3509  0088' 0809'              	movf	??___fldiv+1,w
  3510  0089' 008B'              	movwf	??___fldiv+3
  3511  008A' 080C'              	movf	___fldiv@aexp,w
  3512  008B' 0208'              	subwf	??___fldiv,w
  3513  008C' 008A'              	movwf	??___fldiv+2
  3514  008D' 1C03               	skipc
  3515  008E' 038B'              	decf	??___fldiv+3,f
  3516  008F' 080A'              	movf	??___fldiv+2,w
  3517  0090' 3E7F               	addlw	127
  3518  0091' 0085'              	movwf	___fldiv@new_exp
  3519  0092' 080B'              	movf	??___fldiv+3,w
  3520  0093' 1803               	skipnc
  3521  0094' 3E01               	addlw	1
  3522  0095' 3E00               	addlw	0
  3523  0096' 0086'              	movwf	___fldiv@new_exp+1
  3524  0097'                    i1l1466:
  3525  0097' 0807'              	movf	___fldiv@b+3,w
  3526  0098' 0083'              	movwf	___fldiv@rem+3
  3527  0099' 0806'              	movf	___fldiv@b+2,w
  3528  009A' 0082'              	movwf	___fldiv@rem+2
  3529  009B' 0805'              	movf	___fldiv@b+1,w
  3530  009C' 0081'              	movwf	___fldiv@rem+1
  3531  009D' 0804'              	movf	___fldiv@b,w
  3532  009E' 0080'              	movwf	___fldiv@rem
  3533  009F'                    i1l1468:
  3534  009F' 3000               	movlw	0
  3535  00A0' 0087'              	movwf	___fldiv@b+3
  3536  00A1' 3000               	movlw	0
  3537  00A2' 0086'              	movwf	___fldiv@b+2
  3538  00A3' 3000               	movlw	0
  3539  00A4' 0085'              	movwf	___fldiv@b+1
  3540  00A5' 3000               	movlw	0
  3541  00A6' 0084'              	movwf	___fldiv@b
  3542  00A7'                    i1l1470:
  3543  00A7' 3000               	movlw	0
  3544  00A8' 008A'              	movwf	___fldiv@grs+3
  3545  00A9' 3000               	movlw	0
  3546  00AA' 0089'              	movwf	___fldiv@grs+2
  3547  00AB' 3000               	movlw	0
  3548  00AC' 0088'              	movwf	___fldiv@grs+1
  3549  00AD' 3000               	movlw	0
  3550  00AE' 0087'              	movwf	___fldiv@grs
  3551  00AF'                    i1l1472:
  3552  00AF' 018C'              	clrf	___fldiv@aexp
  3553  00B0' 2800'              	goto	i1l1492
  3554  00B1'                    i1l1474:
  3555  00B1' 080C'              	movf	___fldiv@aexp,w
  3556  00B2' 1903               	btfsc	3,2
  3557  00B3' 2800'              	goto	u150_21
  3558  00B4' 2800'              	goto	u150_20
  3559  00B5'                    u150_21:
  3560  00B5' 2800'              	goto	i1l1484
  3561  00B6'                    u150_20:
  3562  00B6'                    i1l1476:
  3563  00B6' 3001               	movlw	1
  3564  00B7' 0088'              	movwf	??___fldiv
  3565  00B8'                    u151_25:
  3566  00B8' 1003               	clrc
  3567  00B9' 0D80'              	rlf	___fldiv@rem,f
  3568  00BA' 0D81'              	rlf	___fldiv@rem+1,f
  3569  00BB' 0D82'              	rlf	___fldiv@rem+2,f
  3570  00BC' 0D83'              	rlf	___fldiv@rem+3,f
  3571  00BD' 0B88'              	decfsz	??___fldiv,f
  3572  00BE' 2800'              	goto	u151_25
  3573  00BF' 3001               	movlw	1
  3574  00C0' 0088'              	movwf	??___fldiv
  3575  00C1'                    u152_25:
  3576  00C1' 1003               	clrc
  3577  00C2' 0D84'              	rlf	___fldiv@b,f
  3578  00C3' 0D85'              	rlf	___fldiv@b+1,f
  3579  00C4' 0D86'              	rlf	___fldiv@b+2,f
  3580  00C5' 0D87'              	rlf	___fldiv@b+3,f
  3581  00C6' 0B88'              	decfsz	??___fldiv,f
  3582  00C7' 2800'              	goto	u152_25
  3583  00C8'                    i1l1478:
  3584  00C8' 1F8A'              	btfss	___fldiv@grs+3,7
  3585  00C9' 2800'              	goto	u153_21
  3586  00CA' 2800'              	goto	u153_20
  3587  00CB'                    u153_21:
  3588  00CB' 2800'              	goto	i1l1482
  3589  00CC'                    u153_20:
  3590  00CC'                    i1l1480:
  3591  00CC' 1404'              	bsf	___fldiv@b,0
  3592  00CD'                    i1l1482:
  3593  00CD' 3001               	movlw	1
  3594  00CE' 0088'              	movwf	??___fldiv
  3595  00CF'                    u154_25:
  3596  00CF' 1003               	clrc
  3597  00D0' 0D87'              	rlf	___fldiv@grs,f
  3598  00D1' 0D88'              	rlf	___fldiv@grs+1,f
  3599  00D2' 0D89'              	rlf	___fldiv@grs+2,f
  3600  00D3' 0D8A'              	rlf	___fldiv@grs+3,f
  3601  00D4' 0B88'              	decfsz	??___fldiv,f
  3602  00D5' 2800'              	goto	u154_25
  3603  00D6'                    i1l1484:
  3604  00D6' 0803'              	movf	___fldiv@a+3,w
  3605  00D7' 0203'              	subwf	___fldiv@rem+3,w
  3606  00D8' 1D03               	skipz
  3607  00D9' 2800'              	goto	u155_25
  3608  00DA' 0802'              	movf	___fldiv@a+2,w
  3609  00DB' 0202'              	subwf	___fldiv@rem+2,w
  3610  00DC' 1D03               	skipz
  3611  00DD' 2800'              	goto	u155_25
  3612  00DE' 0801'              	movf	___fldiv@a+1,w
  3613  00DF' 0201'              	subwf	___fldiv@rem+1,w
  3614  00E0' 1D03               	skipz
  3615  00E1' 2800'              	goto	u155_25
  3616  00E2' 0800'              	movf	___fldiv@a,w
  3617  00E3' 0200'              	subwf	___fldiv@rem,w
  3618  00E4'                    u155_25:
  3619  00E4' 1C03               	skipc
  3620  00E5' 2800'              	goto	u155_21
  3621  00E6' 2800'              	goto	u155_20
  3622  00E7'                    u155_21:
  3623  00E7' 2800'              	goto	i1l1490
  3624  00E8'                    u155_20:
  3625  00E8'                    i1l1486:
  3626  00E8' 170A'              	bsf	___fldiv@grs+3,6
  3627  00E9'                    i1l1488:
  3628  00E9' 0800'              	movf	___fldiv@a,w
  3629  00EA' 0280'              	subwf	___fldiv@rem,f
  3630  00EB' 0801'              	movf	___fldiv@a+1,w
  3631  00EC' 1C03               	skipc
  3632  00ED' 0F01'              	incfsz	___fldiv@a+1,w
  3633  00EE' 2800'              	goto	u156_25
  3634  00EF' 2800'              	goto	u156_26
  3635  00F0'                    u156_25:
  3636  00F0' 0281'              	subwf	___fldiv@rem+1,f
  3637  00F1'                    u156_26:
  3638  00F1' 0802'              	movf	___fldiv@a+2,w
  3639  00F2' 1C03               	skipc
  3640  00F3' 0F02'              	incfsz	___fldiv@a+2,w
  3641  00F4' 2800'              	goto	u156_27
  3642  00F5' 2800'              	goto	u156_28
  3643  00F6'                    u156_27:
  3644  00F6' 0282'              	subwf	___fldiv@rem+2,f
  3645  00F7'                    u156_28:
  3646  00F7' 0803'              	movf	___fldiv@a+3,w
  3647  00F8' 1C03               	skipc
  3648  00F9' 0F03'              	incfsz	___fldiv@a+3,w
  3649  00FA' 2800'              	goto	u156_29
  3650  00FB' 2800'              	goto	u156_20
  3651  00FC'                    u156_29:
  3652  00FC' 0283'              	subwf	___fldiv@rem+3,f
  3653  00FD'                    u156_20:
  3654  00FD'                    i1l1490:
  3655  00FD' 3001               	movlw	1
  3656  00FE' 0088'              	movwf	??___fldiv
  3657  00FF' 0808'              	movf	??___fldiv,w
  3658  0100' 078C'              	addwf	___fldiv@aexp,f
  3659  0101'                    i1l1492:
  3660  0101' 301A               	movlw	26
  3661  0102' 020C'              	subwf	___fldiv@aexp,w
  3662  0103' 1C03               	skipc
  3663  0104' 2800'              	goto	u157_21
  3664  0105' 2800'              	goto	u157_20
  3665  0106'                    u157_21:
  3666  0106' 2800'              	goto	i1l1474
  3667  0107'                    u157_20:
  3668  0107'                    i1l1494:
  3669  0107' 0803'              	movf	___fldiv@rem+3,w
  3670  0108' 0402'              	iorwf	___fldiv@rem+2,w
  3671  0109' 0401'              	iorwf	___fldiv@rem+1,w
  3672  010A' 0400'              	iorwf	___fldiv@rem,w
  3673  010B' 1903               	skipnz
  3674  010C' 2800'              	goto	u158_21
  3675  010D' 2800'              	goto	u158_20
  3676  010E'                    u158_21:
  3677  010E' 2800'              	goto	i1l1508
  3678  010F'                    u158_20:
  3679  010F'                    i1l1496:
  3680  010F' 1407'              	bsf	___fldiv@grs,0
  3681  0110' 2800'              	goto	i1l1508
  3682  0111'                    i1l1498:
  3683  0111' 3001               	movlw	1
  3684  0112' 0088'              	movwf	??___fldiv
  3685  0113'                    u159_25:
  3686  0113' 1003               	clrc
  3687  0114' 0D84'              	rlf	___fldiv@b,f
  3688  0115' 0D85'              	rlf	___fldiv@b+1,f
  3689  0116' 0D86'              	rlf	___fldiv@b+2,f
  3690  0117' 0D87'              	rlf	___fldiv@b+3,f
  3691  0118' 0B88'              	decfsz	??___fldiv,f
  3692  0119' 2800'              	goto	u159_25
  3693  011A'                    i1l1500:
  3694  011A' 1F8A'              	btfss	___fldiv@grs+3,7
  3695  011B' 2800'              	goto	u160_21
  3696  011C' 2800'              	goto	u160_20
  3697  011D'                    u160_21:
  3698  011D' 2800'              	goto	i1l1504
  3699  011E'                    u160_20:
  3700  011E'                    i1l1502:
  3701  011E' 1404'              	bsf	___fldiv@b,0
  3702  011F'                    i1l1504:
  3703  011F' 3001               	movlw	1
  3704  0120' 0088'              	movwf	??___fldiv
  3705  0121'                    u161_25:
  3706  0121' 1003               	clrc
  3707  0122' 0D87'              	rlf	___fldiv@grs,f
  3708  0123' 0D88'              	rlf	___fldiv@grs+1,f
  3709  0124' 0D89'              	rlf	___fldiv@grs+2,f
  3710  0125' 0D8A'              	rlf	___fldiv@grs+3,f
  3711  0126' 0B88'              	decfsz	??___fldiv,f
  3712  0127' 2800'              	goto	u161_25
  3713  0128'                    i1l1506:
  3714  0128' 30FF               	movlw	255
  3715  0129' 0785'              	addwf	___fldiv@new_exp,f
  3716  012A' 1803               	skipnc
  3717  012B' 0A86'              	incf	___fldiv@new_exp+1,f
  3718  012C' 30FF               	movlw	255
  3719  012D' 0786'              	addwf	___fldiv@new_exp+1,f
  3720  012E'                    i1l1508:
  3721  012E' 1F86'              	btfss	___fldiv@b+2,7
  3722  012F' 2800'              	goto	u162_21
  3723  0130' 2800'              	goto	u162_20
  3724  0131'                    u162_21:
  3725  0131' 2800'              	goto	i1l1498
  3726  0132'                    u162_20:
  3727  0132'                    i1l1510:
  3728  0132' 018C'              	clrf	___fldiv@aexp
  3729  0133'                    i1l1512:
  3730  0133' 1F8A'              	btfss	___fldiv@grs+3,7
  3731  0134' 2800'              	goto	u163_21
  3732  0135' 2800'              	goto	u163_20
  3733  0136'                    u163_21:
  3734  0136' 2800'              	goto	i1l1520
  3735  0137'                    u163_20:
  3736  0137'                    i1l1514:
  3737  0137' 30FF               	movlw	255
  3738  0138' 0507'              	andwf	___fldiv@grs,w
  3739  0139' 0088'              	movwf	??___fldiv
  3740  013A' 30FF               	movlw	255
  3741  013B' 0508'              	andwf	___fldiv@grs+1,w
  3742  013C' 0089'              	movwf	??___fldiv+1
  3743  013D' 30FF               	movlw	255
  3744  013E' 0509'              	andwf	___fldiv@grs+2,w
  3745  013F' 008A'              	movwf	??___fldiv+2
  3746  0140' 307F               	movlw	127
  3747  0141' 050A'              	andwf	___fldiv@grs+3,w
  3748  0142' 008B'              	movwf	??___fldiv+3
  3749  0143' 080B'              	movf	??___fldiv+3,w
  3750  0144' 040A'              	iorwf	??___fldiv+2,w
  3751  0145' 0409'              	iorwf	??___fldiv+1,w
  3752  0146' 0408'              	iorwf	??___fldiv,w
  3753  0147' 1903               	skipnz
  3754  0148' 2800'              	goto	u164_21
  3755  0149' 2800'              	goto	u164_20
  3756  014A'                    u164_21:
  3757  014A' 2800'              	goto	i1l555
  3758  014B'                    u164_20:
  3759  014B'                    i1l1516:
  3760  014B' 018C'              	clrf	___fldiv@aexp
  3761  014C' 0A8C'              	incf	___fldiv@aexp,f
  3762  014D' 2800'              	goto	i1l1520
  3763  014E'                    i1l555:
  3764  014E' 1C04'              	btfss	___fldiv@b,0
  3765  014F' 2800'              	goto	u165_21
  3766  0150' 2800'              	goto	u165_20
  3767  0151'                    u165_21:
  3768  0151' 2800'              	goto	i1l1520
  3769  0152'                    u165_20:
  3770  0152' 2800'              	goto	i1l1516
  3771  0153'                    i1l1520:
  3772  0153' 080C'              	movf	___fldiv@aexp,w
  3773  0154' 1903               	btfsc	3,2
  3774  0155' 2800'              	goto	u166_21
  3775  0156' 2800'              	goto	u166_20
  3776  0157'                    u166_21:
  3777  0157' 2800'              	goto	i1l1530
  3778  0158'                    u166_20:
  3779  0158'                    i1l1522:
  3780  0158' 3001               	movlw	1
  3781  0159' 0784'              	addwf	___fldiv@b,f
  3782  015A' 3000               	movlw	0
  3783  015B' 1803               	skipnc
  3784  015C' 3001               	movlw	1
  3785  015D' 0785'              	addwf	___fldiv@b+1,f
  3786  015E' 3000               	movlw	0
  3787  015F' 1803               	skipnc
  3788  0160' 3001               	movlw	1
  3789  0161' 0786'              	addwf	___fldiv@b+2,f
  3790  0162' 3000               	movlw	0
  3791  0163' 1803               	skipnc
  3792  0164' 3001               	movlw	1
  3793  0165' 0787'              	addwf	___fldiv@b+3,f
  3794  0166'                    i1l1524:
  3795  0166' 1C07'              	btfss	___fldiv@b+3,0
  3796  0167' 2800'              	goto	u167_21
  3797  0168' 2800'              	goto	u167_20
  3798  0169'                    u167_21:
  3799  0169' 2800'              	goto	i1l1530
  3800  016A'                    u167_20:
  3801  016A'                    i1l1526:
  3802  016A' 0804'              	movf	___fldiv@b,w
  3803  016B' 0088'              	movwf	??___fldiv
  3804  016C' 0805'              	movf	___fldiv@b+1,w
  3805  016D' 0089'              	movwf	??___fldiv+1
  3806  016E' 0806'              	movf	___fldiv@b+2,w
  3807  016F' 008A'              	movwf	??___fldiv+2
  3808  0170' 0807'              	movf	___fldiv@b+3,w
  3809  0171' 008B'              	movwf	??___fldiv+3
  3810  0172' 3001               	movlw	1
  3811  0173' 008C'              	movwf	??___fldiv+4
  3812  0174'                    u168_25:
  3813  0174' 0D0B'              	rlf	??___fldiv+3,w
  3814  0175' 0C8B'              	rrf	??___fldiv+3,f
  3815  0176' 0C8A'              	rrf	??___fldiv+2,f
  3816  0177' 0C89'              	rrf	??___fldiv+1,f
  3817  0178' 0C88'              	rrf	??___fldiv,f
  3818  0179'                    u168_20:
  3819  0179' 0B8C'              	decfsz	??___fldiv+4,f
  3820  017A' 2800'              	goto	u168_25
  3821  017B' 080B'              	movf	??___fldiv+3,w
  3822  017C' 0087'              	movwf	___fldiv@b+3
  3823  017D' 080A'              	movf	??___fldiv+2,w
  3824  017E' 0086'              	movwf	___fldiv@b+2
  3825  017F' 0809'              	movf	??___fldiv+1,w
  3826  0180' 0085'              	movwf	___fldiv@b+1
  3827  0181' 0808'              	movf	??___fldiv,w
  3828  0182' 0084'              	movwf	___fldiv@b
  3829  0183'                    i1l1528:
  3830  0183' 3001               	movlw	1
  3831  0184' 0785'              	addwf	___fldiv@new_exp,f
  3832  0185' 1803               	skipnc
  3833  0186' 0A86'              	incf	___fldiv@new_exp+1,f
  3834  0187' 3000               	movlw	0
  3835  0188' 0786'              	addwf	___fldiv@new_exp+1,f
  3836  0189'                    i1l1530:
  3837  0189' 0806'              	movf	___fldiv@new_exp+1,w
  3838  018A' 3A80               	xorlw	128
  3839  018B' 00FF               	movwf	btemp+1
  3840  018C' 3080               	movlw	128
  3841  018D' 027F               	subwf	btemp+1,w
  3842  018E' 1D03               	skipz
  3843  018F' 2800'              	goto	u169_25
  3844  0190' 30FF               	movlw	255
  3845  0191' 0205'              	subwf	___fldiv@new_exp,w
  3846  0192'                    u169_25:
  3847  0192' 1C03               	skipc
  3848  0193' 2800'              	goto	u169_21
  3849  0194' 2800'              	goto	u169_20
  3850  0195'                    u169_21:
  3851  0195' 2800'              	goto	i1l1534
  3852  0196'                    u169_20:
  3853  0196'                    i1l1532:
  3854  0196' 30FF               	movlw	255
  3855  0197' 1283               	bcf	3,5	;RP0=0, select bank0
  3856  0198' 1303               	bcf	3,6	;RP1=0, select bank0
  3857  0199' 0085'              	movwf	___fldiv@new_exp
  3858  019A' 3000               	movlw	0
  3859  019B' 0086'              	movwf	___fldiv@new_exp+1
  3860  019C' 3000               	movlw	0
  3861  019D' 0087'              	movwf	___fldiv@b+3
  3862  019E' 3000               	movlw	0
  3863  019F' 0086'              	movwf	___fldiv@b+2
  3864  01A0' 3000               	movlw	0
  3865  01A1' 0085'              	movwf	___fldiv@b+1
  3866  01A2' 3000               	movlw	0
  3867  01A3' 0084'              	movwf	___fldiv@b
  3868  01A4'                    i1l1534:
  3869  01A4' 1283               	bcf	3,5	;RP0=0, select bank0
  3870  01A5' 1303               	bcf	3,6	;RP1=0, select bank0
  3871  01A6' 0806'              	movf	___fldiv@new_exp+1,w
  3872  01A7' 3A80               	xorlw	128
  3873  01A8' 00FF               	movwf	btemp+1
  3874  01A9' 3080               	movlw	128
  3875  01AA' 027F               	subwf	btemp+1,w
  3876  01AB' 1D03               	skipz
  3877  01AC' 2800'              	goto	u170_25
  3878  01AD' 3001               	movlw	1
  3879  01AE' 0205'              	subwf	___fldiv@new_exp,w
  3880  01AF'                    u170_25:
  3881  01AF' 1803               	skipnc
  3882  01B0' 2800'              	goto	u170_21
  3883  01B1' 2800'              	goto	u170_20
  3884  01B2'                    u170_21:
  3885  01B2' 2800'              	goto	i1l561
  3886  01B3'                    u170_20:
  3887  01B3'                    i1l1536:
  3888  01B3' 1283               	bcf	3,5	;RP0=0, select bank0
  3889  01B4' 1303               	bcf	3,6	;RP1=0, select bank0
  3890  01B5' 0185'              	clrf	___fldiv@new_exp
  3891  01B6' 0186'              	clrf	___fldiv@new_exp+1
  3892  01B7'                    i1l1538:
  3893  01B7' 3000               	movlw	0
  3894  01B8' 0087'              	movwf	___fldiv@b+3
  3895  01B9' 3000               	movlw	0
  3896  01BA' 0086'              	movwf	___fldiv@b+2
  3897  01BB' 3000               	movlw	0
  3898  01BC' 0085'              	movwf	___fldiv@b+1
  3899  01BD' 3000               	movlw	0
  3900  01BE' 0084'              	movwf	___fldiv@b
  3901  01BF'                    i1l1540:
  3902  01BF' 0184'              	clrf	___fldiv@sign
  3903  01C0'                    i1l561:
  3904  01C0' 1283               	bcf	3,5	;RP0=0, select bank0
  3905  01C1' 1303               	bcf	3,6	;RP1=0, select bank0
  3906  01C2' 0805'              	movf	___fldiv@new_exp,w
  3907  01C3' 008B'              	movwf	___fldiv@bexp
  3908  01C4'                    i1l1542:
  3909  01C4' 1C0B'              	btfss	___fldiv@bexp,0
  3910  01C5' 2800'              	goto	u171_21
  3911  01C6' 2800'              	goto	u171_20
  3912  01C7'                    u171_21:
  3913  01C7' 2800'              	goto	i1l1546
  3914  01C8'                    u171_20:
  3915  01C8'                    i1l1544:
  3916  01C8' 1786'              	bsf	___fldiv@b+2,7
  3917  01C9' 2800'              	goto	i1l563
  3918  01CA'                    i1l1546:
  3919  01CA' 307F               	movlw	127
  3920  01CB' 0088'              	movwf	??___fldiv
  3921  01CC' 0808'              	movf	??___fldiv,w
  3922  01CD' 0586'              	andwf	___fldiv@b+2,f
  3923  01CE'                    i1l563:
  3924  01CE' 080B'              	movf	___fldiv@bexp,w
  3925  01CF' 0088'              	movwf	??___fldiv
  3926  01D0' 1003               	clrc
  3927  01D1' 0C08'              	rrf	??___fldiv,w
  3928  01D2' 0087'              	movwf	___fldiv@b+3
  3929  01D3' 0804'              	movf	___fldiv@sign,w
  3930  01D4' 0088'              	movwf	??___fldiv
  3931  01D5' 0808'              	movf	??___fldiv,w
  3932  01D6' 0487'              	iorwf	___fldiv@b+3,f
  3933  01D7' 2800'              	goto	i1l1454
  3934  01D8'                    i1l541:
  3935  01D8' 0008               	return
  3936  01D9'                    __end_of___fldiv:
  3937                           
  3938                           	psect	text11
  3939  0000'                    __ptext11:	
  3940 ;; *************** function _ReadAdc *****************
  3941 ;; Defined at:
  3942 ;;		line 43 in file "adc ghep trong.c"
  3943 ;; Parameters:    Size  Location     Type
  3944 ;;  Channel         1    wreg     unsigned char 
  3945 ;; Auto vars:     Size  Location     Type
  3946 ;;  Channel         1    6[COMMON] unsigned char 
  3947 ;;  value           2    4[COMMON] unsigned int 
  3948 ;; Return value:  Size  Location     Type
  3949 ;;                  2    0[COMMON] unsigned int 
  3950 ;; Registers used:
  3951 ;;		wreg, fsr0l, fsr0h, status,2, status,0
  3952 ;; Tracked objects:
  3953 ;;		On entry : 0/0
  3954 ;;		On exit  : 0/0
  3955 ;;		Unchanged: 0/0
  3956 ;; Data sizes:     COMMON   BANK0   BANK1   BANK3   BANK2
  3957 ;;      Params:         2       0       0       0       0
  3958 ;;      Locals:         3       0       0       0       0
  3959 ;;      Temps:          2       0       0       0       0
  3960 ;;      Totals:         7       0       0       0       0
  3961 ;;Total ram usage:        7 bytes
  3962 ;; Hardware stack levels used: 1
  3963 ;; This function calls:
  3964 ;;		Nothing
  3965 ;; This function is called by:
  3966 ;;		_Count_Up
  3967 ;; This function uses a non-reentrant model
  3968 ;;
  3969                           
  3970  0000'                    _ReadAdc:	
  3971                           ;psect for function _ReadAdc
  3972                           
  3973                           
  3974                           ;incstack = 0
  3975                           ; Regs used in _ReadAdc: [wreg-fsr0h+status,2+status,0]
  3976                           ;ReadAdc@Channel stored from wreg
  3977  0000' 0086'              	movwf	ReadAdc@Channel
  3978  0001'                    i1l1288:
  3979                           
  3980                           ;adc ghep trong.c: 43: unsigned int ReadAdc(unsigned char Channel);adc ghep trong.c: 44:
      +                           {;adc ghep trong.c: 45: unsigned int value;;adc ghep trong.c: 46: switch(Channel)
  3981  0001' 2800'              	goto	i1l1290
  3982  0002'                    i1l75:	
  3983                           ;adc ghep trong.c: 47: {;adc ghep trong.c: 48:     case 0: CHS0 = 0; CHS1 = 0; CHS2 = 0;
      +                           break;
  3984                           
  3985  0002' 1283               	bcf	3,5	;RP0=0, select bank0
  3986  0003' 1303               	bcf	3,6	;RP1=0, select bank0
  3987  0004' 119F               	bcf	31,3	;volatile
  3988  0005' 121F               	bcf	31,4	;volatile
  3989  0006' 129F               	bcf	31,5	;volatile
  3990  0007' 2800'              	goto	i1l76
  3991  0008'                    i1l77:	
  3992                           ;adc ghep trong.c: 49:     case 1: CHS0=1; CHS1 = 0; CHS2 = 0;
  3993                           
  3994  0008' 1283               	bcf	3,5	;RP0=0, select bank0
  3995  0009' 1303               	bcf	3,6	;RP1=0, select bank0
  3996  000A' 159F               	bsf	31,3	;volatile
  3997  000B' 121F               	bcf	31,4	;volatile
  3998  000C' 129F               	bcf	31,5	;volatile
  3999                           
  4000                           ;adc ghep trong.c: 50: }
  4001  000D' 2800'              	goto	i1l76
  4002  000E'                    i1l1290:
  4003  000E' 0806'              	movf	ReadAdc@Channel,w
  4004  000F' 0082'              	movwf	??_ReadAdc
  4005  0010' 0183'              	clrf	??_ReadAdc+1
  4006                           
  4007                           ; Switch on 2 bytes has been partitioned into a top level switch of size 1, and 1 sub-sw
      +                          itches
  4008                           ; Switch size 1, requested type "simple"
  4009                           ; Number of cases is 1, Range of values is 0 to 0
  4010                           ; switch strategies available:
  4011                           ; Name         Instructions Cycles
  4012                           ; simple_byte            4     3 (average)
  4013                           ; direct_byte           11     8 (fixed)
  4014                           ; jumptable            260     6 (fixed)
  4015                           ;	Chosen strategy is simple_byte
  4016  0011' 0803'              	movf	??_ReadAdc+1,w
  4017  0012' 3A00               	xorlw	0	; case 0
  4018  0013' 1903               	skipnz
  4019  0014' 2800'              	goto	i1l2038
  4020  0015' 2800'              	goto	i1l76
  4021  0016'                    i1l2038:
  4022                           
  4023                           ; Switch size 1, requested type "simple"
  4024                           ; Number of cases is 2, Range of values is 0 to 1
  4025                           ; switch strategies available:
  4026                           ; Name         Instructions Cycles
  4027                           ; simple_byte            7     4 (average)
  4028                           ; direct_byte           14     8 (fixed)
  4029                           ; jumptable            260     6 (fixed)
  4030                           ;	Chosen strategy is simple_byte
  4031  0016' 0802'              	movf	??_ReadAdc,w
  4032  0017' 3A00               	xorlw	0	; case 0
  4033  0018' 1903               	skipnz
  4034  0019' 2800'              	goto	i1l75
  4035  001A' 3A01               	xorlw	1	; case 1
  4036  001B' 1903               	skipnz
  4037  001C' 2800'              	goto	i1l77
  4038  001D' 2800'              	goto	i1l76
  4039  001E'                    i1l76:
  4040                           
  4041                           ;adc ghep trong.c: 51: ADON=1;
  4042  001E' 1283               	bcf	3,5	;RP0=0, select bank0
  4043  001F' 1303               	bcf	3,6	;RP1=0, select bank0
  4044  0020' 141F               	bsf	31,0	;volatile
  4045  0021'                    i1l1292:
  4046                           
  4047                           ;adc ghep trong.c: 52: _delay((unsigned long)((5)*(16000000/4000000.0)));
  4048  0021' 3006               	movlw	6
  4049  0022' 0082'              	movwf	??_ReadAdc
  4050  0023'                    u254_27:
  4051  0023' 0B82'              	decfsz	??_ReadAdc,f
  4052  0024' 2800'              	goto	u254_27
  4053  0025' 0000               	nop
  4054  0026'                    i1l1294:
  4055                           
  4056                           ;adc ghep trong.c: 53: GO_DONE=1;
  4057  0026' 1283               	bcf	3,5	;RP0=0, select bank0
  4058  0027' 1303               	bcf	3,6	;RP1=0, select bank0
  4059  0028' 151F               	bsf	31,2	;volatile
  4060  0029'                    i1l78:	
  4061                           ;adc ghep trong.c: 54: while(GO_DONE);
  4062                           
  4063  0029' 191F               	btfsc	31,2	;volatile
  4064  002A' 2800'              	goto	u118_21
  4065  002B' 2800'              	goto	u118_20
  4066  002C'                    u118_21:
  4067  002C' 2800'              	goto	i1l78
  4068  002D'                    u118_20:
  4069  002D'                    i1l1296:
  4070                           
  4071                           ;adc ghep trong.c: 55: value=(unsigned int)ADRESH*256+ADRESL;
  4072  002D' 081E               	movf	30,w	;volatile
  4073  002E' 0085'              	movwf	ReadAdc@value+1
  4074  002F' 1683               	bsf	3,5	;RP0=1, select bank1
  4075  0030' 1303               	bcf	3,6	;RP1=0, select bank1
  4076  0031' 081E               	movf	30,w	;volatile
  4077  0032' 0084'              	movwf	ReadAdc@value
  4078  0033'                    i1l1298:
  4079                           
  4080                           ;adc ghep trong.c: 56: ADON=0;
  4081  0033' 1283               	bcf	3,5	;RP0=0, select bank0
  4082  0034' 1303               	bcf	3,6	;RP1=0, select bank0
  4083  0035' 101F               	bcf	31,0	;volatile
  4084                           
  4085                           ;adc ghep trong.c: 57: return value;
  4086  0036' 0805'              	movf	ReadAdc@value+1,w
  4087  0037' 0081'              	movwf	?_ReadAdc+1
  4088  0038' 0804'              	movf	ReadAdc@value,w
  4089  0039' 0080'              	movwf	?_ReadAdc
  4090  003A'                    i1l81:
  4091  003A' 0008               	return
  4092  003B'                    __end_of_ReadAdc:
  4093  007E                     btemp	set	126	;btemp
  4094  007E                     wtemp0	set	126
  4095                           
  4096                           	psect	idloc
  4097                           
  4098                           ;Config register IDLOC0 @ 0x2000
  4099                           ;	unspecified, using default values
  4100  2000                     	org	8192
  4101  2000  3FFF               	dw	16383
  4102                           
  4103                           ;Config register IDLOC1 @ 0x2001
  4104                           ;	unspecified, using default values
  4105  2001                     	org	8193
  4106  2001  3FFF               	dw	16383
  4107                           
  4108                           ;Config register IDLOC2 @ 0x2002
  4109                           ;	unspecified, using default values
  4110  2002                     	org	8194
  4111  2002  3FFF               	dw	16383
  4112                           
  4113                           ;Config register IDLOC3 @ 0x2003
  4114                           ;	unspecified, using default values
  4115  2003                     	org	8195
  4116  2003  3FFF               	dw	16383
  4117                           
  4118                           	psect	config
  4119                           
  4120                           ;Config register CONFIG @ 0x2007
  4121                           ;	unspecified, using default values
  4122                           ;	Oscillator Selection bits
  4123                           ;	FOSC = 0x3, unprogrammed default
  4124                           ;	Watchdog Timer Enable bit
  4125                           ;	WDTE = 0x1, unprogrammed default
  4126                           ;	Power-up Timer Enable bit
  4127                           ;	PWRTE = 0x1, unprogrammed default
  4128                           ;	Brown-out Reset Enable bit
  4129                           ;	BOREN = 0x1, unprogrammed default
  4130                           ;	Low-Voltage (Single-Supply) In-Circuit Serial Programming Enable bit
  4131                           ;	LVP = 0x1, unprogrammed default
  4132                           ;	Data EEPROM Memory Code Protection bit
  4133                           ;	CPD = 0x1, unprogrammed default
  4134                           ;	Flash Program Memory Write Enable bits
  4135                           ;	WRT = 0x3, unprogrammed default
  4136                           ;	In-Circuit Debugger Mode bit
  4137                           ;	DEBUG = 0x1, unprogrammed default
  4138                           ;	Flash Program Memory Code Protection bit
  4139                           ;	CP = 0x1, unprogrammed default
  4140  2007                     	org	8199
  4141  2007  3FFF               	dw	16383

Data Sizes:
    Strings     28
    Constant    0
    Data        0
    BSS         21
    Persistent  0
    Stack       0

Auto Spaces:
    Space          Size  Autos    Used
    COMMON           14     14      14
    BANK0            80     30      51
    BANK1            80     20      20
    BANK3            96      0       0
    BANK2            96      0       0

Pointer List with Targets:

    LCDWriteString$0	PTR const unsigned char  size(1) Largest target is 14
		 -> STR_2(CODE[14]), STR_1(CODE[14]), 


Critical Paths under _main in COMMON

    None.

Critical Paths under _Count_Up in COMMON

    _Count_Up->___flmul
    ___xxtofl->_ReadAdc
    ___flmul->__Umul8_16

Critical Paths under _main in BANK0

    _main->___lwmod
    ___lwdiv->___lwmod

Critical Paths under _Count_Up in BANK0

    _Count_Up->___flmul

Critical Paths under _main in BANK1

    _main->___lwdiv
    ___lwdiv->___lwmod

Critical Paths under _Count_Up in BANK1

    None.

Critical Paths under _main in BANK3

    None.

Critical Paths under _Count_Up in BANK3

    None.

Critical Paths under _main in BANK2

    None.

Critical Paths under _Count_Up in BANK2

    None.

Call Graph Tables:

 ---------------------------------------------------------------------------------
 (Depth) Function   	        Calls       Base Space   Used Autos Params    Refs
 ---------------------------------------------------------------------------------
 (0) _main                                                 7     7      0    3576
                                             13 BANK1      7     7      0
                            _InitAdc
                            _LCDByte
                          _LCDGotoXY
                            _LCDInit
                     _LCDWriteString
                            ___fltol
                            ___lwdiv
                            ___lwmod
                  _timer2_initialize
 ---------------------------------------------------------------------------------
 (1) _timer2_initialize                                    0     0      0       0
 ---------------------------------------------------------------------------------
 (1) ___lwmod                                              6     2      4    1312
                                             29 BANK0      1     1      0
                                              0 BANK1      5     1      4
 ---------------------------------------------------------------------------------
 (1) ___lwdiv                                              8     4      4     961
                                              5 BANK1      8     4      4
                            ___lwmod (ARG)
 ---------------------------------------------------------------------------------
 (1) ___fltol                                             10     6      4     517
                                              0 BANK1     10     6      4
 ---------------------------------------------------------------------------------
 (1) _LCDWriteString                                       0     0      0      36
 ---------------------------------------------------------------------------------
 (1) _LCDInit                                              0     0      0       0
 ---------------------------------------------------------------------------------
 (1) _LCDGotoXY                                            1     0      1      24
 ---------------------------------------------------------------------------------
 (1) _LCDByte                                              1     0      1     108
 ---------------------------------------------------------------------------------
 (1) _InitAdc                                              0     0      0       0
 ---------------------------------------------------------------------------------
 Estimated maximum stack depth 1
 ---------------------------------------------------------------------------------
 (Depth) Function   	        Calls       Base Space   Used Autos Params    Refs
 ---------------------------------------------------------------------------------
 (2) _Count_Up                                             8     8      0    4209
                                             21 BANK0      8     8      0
                            _ReadAdc
                            ___fldiv
                            ___flmul
                           ___xxtofl
 ---------------------------------------------------------------------------------
 (3) ___xxtofl                                            14    10      4     474
                                              7 COMMON     4     0      4
                                              0 BANK0     10    10      0
                            _ReadAdc (ARG)
 ---------------------------------------------------------------------------------
 (3) ___flmul                                             26    18      8    2417
                                              9 COMMON     5     5      0
                                              0 BANK0     21    13      8
                          __Umul8_16
 ---------------------------------------------------------------------------------
 (4) __Umul8_16                                            9     7      2     799
                                              0 COMMON     9     7      2
 ---------------------------------------------------------------------------------
 (3) ___fldiv                                             26    18      8    1273
                                              0 COMMON    13     5      8
                                              0 BANK0     13    13      0
 ---------------------------------------------------------------------------------
 (3) _ReadAdc                                              7     5      2      45
                                              0 COMMON     7     5      2
 ---------------------------------------------------------------------------------
 Estimated maximum stack depth 4
 ---------------------------------------------------------------------------------

 Call Graph Graphs:

 _main (ROOT)
   _InitAdc
   _LCDByte
   _LCDGotoXY
   _LCDInit
   _LCDWriteString
   ___fltol
   ___lwdiv
     ___lwmod (ARG)
   ___lwmod
   _timer2_initialize

 _Count_Up (ROOT)
   _ReadAdc
   ___fldiv
   ___flmul
     __Umul8_16
   ___xxtofl
     _ReadAdc (ARG)

 Address spaces:
Name               Size   Autos  Total    Cost      Usage
BITCOMMON            E      0       0       0        0.0%
EEDATA             100      0       0       0        0.0%
NULL                 0      0       0       0        0.0%
CODE                 0      0       0       0        0.0%
COMMON               E      E       E       1      100.0%
BITSFR0              0      0       0       1        0.0%
SFR0                 0      0       0       1        0.0%
BITSFR1              0      0       0       2        0.0%
SFR1                 0      0       0       2        0.0%
STACK                0      0       0       2        0.0%
ABS                  0      0      55       3        0.0%
BITBANK0            50      0       0       4        0.0%
BITSFR3              0      0       0       4        0.0%
SFR3                 0      0       0       4        0.0%
BANK0               50     1E      33       5       63.7%
BITSFR2              0      0       0       5        0.0%
SFR2                 0      0       0       5        0.0%
BITBANK1            50      0       0       6        0.0%
BANK1               50     14      14       7       25.0%
BITBANK3            60      0       0       8        0.0%
BANK3               60      0       0       9        0.0%
BITBANK2            60      0       0      10        0.0%
BANK2               60      0       0      11        0.0%
DATA                 0      0      55      12        0.0%


Microchip Technology PIC Macro Assembler V2.40 build 20220703182018 
Symbol Table                                                                                   Tue Apr 04 19:35:51 2023

             ___fldiv@aexp 000C               ___fldiv@bexp 000B                          _i 0011  
                        pc 0002               ___fldiv@sign 0004                         l71 0008  
                       l84 0014                         fsr 0004        __Umul8_16@word_mpld 0006  
                      l462 0045                        l383 0062                        l376 0077  
                      l472 003F                        l386 0077                        _GIE 005F  
                      _PR2 0092                        fsr0 0004                        indf 0000  
             ___flmul@aexp 000D               ___flmul@bexp 000E               ___flmul@sign 0008  
             ___flmul@temp 0013               ___flmul@prod 000F               ___fltol@exp1 0009  
                     l2000 0134                       l2010 0175                       l2002 0147  
                     l2012 017F                       l2004 0158                       l2014 018C  
                     l2006 0162                       l2008 0168                       l2016 0199  
                     l1900 0057                       l1902 0067                       l1910 000A  
                     l1904 006C                       l1920 002D                       l1912 000D  
                     l1922 0033                       l1914 0014                       l1906 0000  
                     l1850 0000                       l1924 0034                       l1916 0018  
                     l1908 0004                       l1940 001A                       l1932 0000  
                     l1860 000D                       l1852 0004                       l1870 0000  
                     l1926 003B                       l1918 001C                       l1942 001E  
                     l1934 0008                       l1950 003B                       l1862 000E  
                     l1854 0008                       l1848 0000                       l1880 0028  
                     l1872 000B                       l1928 0041                       l1944 0028  
                     l1936 000B                       l1864 000F                       l1856 000B  
                     l1960 000A                       l1882 0030                       l1946 002E  
                     l1938 0012                       l1866 0012                       l1858 000C  
                     l1970 0028                       l1962 0010                       l1954 0000  
                     l1892 003E                       l1884 0032                       l1876 0014  
                     l1948 0035                       l1868 0013                       l1980 008F  
                     l1972 002A                       l1964 0015                       l1956 0008  
                     l1886 0036                       l1894 0050                       l1878 0027  
                     l1990 00C6                       l1982 00A0                       l1974 004B  
                     l1966 001A                       l1958 0008                       l1992 00D3  
                     l1984 00A9                       l1976 005C                       l1968 0021  
                     l1994 00E0                       l1986 00AF                       l1978 007C  
                     l1996 0103                       l1988 00BC                       l1998 0114  
                     _ADON 00F8                       _CHS0 00FB                       _CHS1 00FC  
                     _CHS2 00FD                       STR_1 0006                       STR_2 0014  
                     u2300 0022                       u2310 0036                       u2311 0035  
                     u2320 003D                       u2321 003C                       u2305 001D  
                     u2410 001C                       u2411 001B                       u2340 004F  
                     u2341 004E                       u2405 000E                       u2350 0056  
                     u2430 002D                       u2510 003B                       u2351 0055  
                     u2335 003F                       u2431 002C                       u2511 003A  
                     u2520 0021                       u2425 001D                       u2505 002F  
                     u2521 0020                       u2370 0067                       u2290 000B  
                     u2450 0041                       u2530 0028                       u2371 0066  
                     u2291 000A                       u2451 0040                       u2435 0029  
                     u2531 0027                       u2380 006C                       u2460 0008  
                     u2381 006B                       u2365 0059                       u2445 0035  
                     u2461 0007                       u2390 000A                       u2391 0009  
                     u2480 001E                       u2481 001D                       u2490 0028  
                     u2491 0027                       u2475 000C                       u2495 0024  
                     _PEIE 005E                       i1l81 003A                       i1l75 0002  
                     i1l76 001E                       i1l77 0008                       i1l93 00B5  
                     i1l78 0029                       _Dong 0004                       _main 0000  
                     btemp 007E                       start 0000*           ___fldiv@new_exp 0005  
          __end_of_InitAdc 0009            __end_of_ReadAdc 003B              ___fltol@sign1 0008  
                    ?_main 0000            __end_of___fldiv 01D9            __end_of___flmul 0345  
          __end_of___fltol 0078            __end_of___lwdiv 0046                      i1l600 0026  
          __end_of___lwmod 0040                      i1l541 01D8                      i1l623 0024  
                    i1l561 01C0                      i1l625 00B9                      i1l563 01CE  
                    i1l555 014E                      i1l539 0056                      i1l636 0083  
                    i1l637 008F                      i1l629 0067                      i1l591 0338  
                    i1l585 02B4                      i1l579 0344                      i1l598 0014  
                    _count 000F                      pclath 000A                      status 0003  
                    wtemp0 007E            __initialization 0000               __end_of_main 01A6  
         __end_of_Count_Up 00C1               ReadAdc@value 0004                     ??_main 001E  
                ??_LCDByte 0000                  ??_LCDInit 0000                     _ADCON0 001F  
                   _ADCON1 009F                     _ADRESH 001E                     _ADRESL 009E  
                   i1l1410 0000                     i1l1500 011A                     i1l1420 0013  
                   i1l1412 0005                     i1l2038 0016                     i1l1510 0132  
                   i1l1502 011E                     i1l1430 002B                     i1l1422 0018  
                   i1l1414 0009                     i1l1520 0153                     i1l1512 0133  
                   i1l1504 011F                     i1l1440 003E                     i1l1432 0030  
                   i1l1424 0020                     i1l1416 000D                     i1l1280 001D  
                   i1l1272 0001                     u200_20 029D                     i1l1600 0082  
                   u200_21 029C                     i1l1290 000E                     i1l1522 0158  
                   i1l1530 0189                     i1l1514 0137                     i1l1506 0128  
                   i1l1450 005E                     i1l1442 0043                     i1l1434 0034  
                   i1l1426 0021                     i1l1418 000E                     i1l1282 0022  
                   i1l1274 0003                     i1l1610 011B                     i1l1602 009D  
                   i1l1292 0021                     i1l1540 01BF                     i1l1532 0196  
                   i1l1524 0166                     i1l1516 014B                     i1l1508 012E  
                   i1l1460 007C                     i1l1452 006A                     i1l1444 004B  
                   i1l1436 0038                     i1l1428 0023                     i1l1276 000A  
                   i1l1620 017A                     i1l1612 0124                     i1l1604 00B9  
                   i1l1700 002C                     i1l1294 0026                     i1l1542 01C4  
                   i1l1534 01A4                     i1l1526 016A                     i1l1470 00A7  
                   i1l1454 006E                     i1l1446 004C                     i1l1438 0039  
                   i1l1278 000E                     i1l1630 0212                     i1l1622 0191  
                   i1l1614 0132                     i1l1606 00E3                     i1l1710 004C  
                   i1l1296 002D                     i1l1288 0001                     i1l1544 01C8  
                   i1l1536 01B3                     i1l1528 0183                     i1l1480 00CC  
                   i1l1472 00AF                     i1l1464 0085                     i1l1448 004E  
                   u201_20 02B1                     i1l1640 0280                     i1l1632 0238  
                   i1l1624 01AE                     i1l1616 014F                     i1l1608 00FF  
                   i1l1560 000E                     i1l1552 0000                     i1l1720 007D  
                   i1l1712 0050                     i1l1704 0035                     u201_21 02B0  
                   i1l1298 0033                     i1l1546 01CA                     i1l1538 01B7  
                   i1l1490 00FD                     i1l1482 00CD                     i1l1474 00B1  
                   i1l1466 0097                     i1l1458 0077                     i1l1650 0298  
                   i1l1642 0284                     i1l1634 0260                     i1l1626 01D9  
                   i1l1618 015D                     i1l1570 002A                     i1l1562 0013  
                   i1l1554 0005                     i1l1730 00B0                     i1l1722 0087  
                   i1l1714 005E                     i1l1706 0038                     i1l1476 00B6  
                   i1l1484 00D6                     i1l1492 0101                     i1l1468 009F  
                   i1l1660 02B9                     i1l1652 0299                     i1l1644 0285  
                   i1l1636 0269                     i1l1628 01E7                     i1l1580 003D  
                   i1l1572 002F                     i1l1564 0018                     i1l1556 0009  
                   i1l1732 00B1                     i1l1724 0091                     i1l1716 006E  
                   i1l1708 0045                     i1l1740 000C                     i1l1494 0107  
                   i1l1486 00E8                     i1l1478 00C8                     i1l1662 02BE  
                   i1l1670 02EF                     i1l1654 029D                     i1l1646 028E  
                   i1l1638 0277                     i1l1590 0059                     i1l1582 0042  
                   i1l1574 0033                     i1l1566 0020                     i1l1558 000D  
                   i1l1726 00A7                     i1l1718 0079                     i1l1750 0022  
                   i1l1742 000D                     i1l1496 010F                     i1l1488 00E9  
                   i1l1680 0322                     i1l1672 02FC                     i1l1664 02CC  
                   u202_20 02B8                     i1l1656 02B1                     i1l1648 0294  
                   i1l1592 005E                     i1l1584 004A                     i1l1576 0037  
                   i1l1568 0022                     i1l1728 00AC                     u210_20 000C  
                   i1l1760 0095                     i1l1752 0027                     i1l1744 0013  
                   i1l1736 0000                     u202_21 02B7                     u210_21 000B  
                   i1l1498 0111                     i1l1682 032E                     i1l1674 0307  
                   i1l1666 02D0                     i1l1586 004C                     i1l1578 0038  
                   i1l1762 00B4                     i1l1754 004D                     i1l1746 001A  
                   i1l1738 0006                     i1l1684 0332                     i1l1676 0316  
                   i1l1668 02E9                     i1l1596 0067                     i1l1588 0054  
                   i1l1692 0003                     i1l1756 006C                     i1l1748 001C  
                   i1l1686 0333                     i1l1678 0320                     i1l1598 0075  
                   i1l1694 0008                     i1l1758 006F                     u115_20 000E  
                   i1l1688 033C                     u203_20 02BE                     u211_20 002C  
                   i1l1696 000C                     u115_21 000D                     u203_21 02BD  
                   u211_21 002B                     i1l1698 001C                     u204_20 02D0  
                   u220_20 009C                     u204_21 02CF                     u116_25 0015  
                   u220_25 0097                     u212_25 003D                     u117_20 0022  
                   u205_20 02DF                     u221_20 00AC                     u213_20 004B  
                   u117_21 0021                     u221_21 00AB                     u213_21 004A  
                   u205_25 02DA                     u118_20 002D                     u150_20 00B6  
                   u142_20 000D                     u206_20 02FC                     u222_20 00B0  
                   u118_21 002C                     u150_21 00B5                     u142_21 000C  
                   u206_21 02FB                     u222_21 00AF                     u206_25 02F8  
                   u214_25 005F                     u143_20 0013                     u207_20 0316  
                   u215_20 006D                     u223_20 0006                     u143_21 0012  
                   u207_21 0315                     u215_21 006C                     u223_21 0005  
                   u151_25 00B8                     u207_25 0312                     u160_20 011E  
                   u144_20 0018                     u208_20 0332                     u224_20 000C  
                   u160_21 011D                     u144_21 0017                     u208_21 0331  
                   u224_21 000B                     u152_25 00C1                     u216_25 0072  
                   u153_20 00CC                     u145_20 0038                     u217_20 007D  
                   u209_20 0008                     u225_20 001A                     u153_21 00CB  
                   u145_21 0037                     u217_21 007C                     u209_21 0007  
                   u225_21 0019                     u161_25 0121                     u170_20 01B3  
                   u162_20 0132                     u146_20 003E                     u218_20 0083  
                   u226_20 0027                     u170_21 01B2                     u162_21 0131  
                   u146_21 003D                     u218_21 0082                     u226_21 0026  
                   u170_25 01AF                     u154_25 00CF                     u171_20 01C8  
                   u163_20 0137                     u155_20 00E8                     u147_20 0043  
                   u219_20 0087                     u171_21 01C7                     u163_21 0136  
                   u155_21 00E7                     u147_21 0042                     u219_21 0086  
                   u155_25 00E4                     u164_20 014B                     u156_20 00FD  
                   u148_20 005E                     u172_20 000D                     u164_21 014A  
                   u148_21 005D                     u180_21 00AB                     u172_21 000C  
                   u180_22 00B2                     u180_23 00B9                     u156_25 00F0  
                   u156_26 00F1                     u156_27 00F6                     u165_20 0152  
                   u157_20 0107                     u156_28 00F7                     u149_20 007C  
                   u173_20 0013                     u165_21 0151                     u157_21 0106  
                   u156_29 00FC                     u149_21 007B                     u181_21 00C7  
                   u173_21 0012                     u181_22 00CE                     u181_23 00D5  
                   u166_20 0158                     u158_20 010F                     u174_20 0018  
                   u166_21 0157                     u158_21 010E                     u190_21 01F6  
                   u182_21 00F1                     u174_21 0017                     u190_22 01FD  
                   u182_22 00F8                     u190_23 0204                     u182_23 00FF  
                   u254_27 0023                     u167_20 016A                     u191_20 021E  
                   u175_20 0037                     u167_21 0169                     u183_21 010D  
                   u175_21 0036                     u183_22 0114                     u183_23 011B  
                   u159_25 0113                     u191_25 0219                     u168_20 0179  
                   u176_20 003D                     u192_21 022A                     u176_21 003C  
                   u192_22 0231                     u192_23 0238                     u168_25 0174  
                   u184_25 011D                     u169_20 0196                     u193_20 0246  
                   u177_20 0042                     u169_21 0195                     u185_21 0141  
                   u177_21 0041                     u185_22 0148                     u185_23 014F  
                   u169_25 0192                     u193_25 0241                     u178_20 0059  
                   u194_21 0252                     u186_21 016C                     u178_21 0058  
                   u194_22 0259                     u186_22 0173                     u194_23 0260  
                   u186_23 017A                     u179_20 005E                     u179_21 005D  
                   u195_25 0262                     u187_25 017C                     u188_21 01A0  
                   u188_22 01A7                     u188_23 01AE                     u196_25 0279  
                   u197_20 0284                     u197_21 0283                     u189_21 01CB  
                   u189_22 01D2                     u189_23 01D9                     u198_25 0287  
                   u199_20 0298                     u199_21 0297                     _TMR2IE 0461  
                   _TMR2IF 0061                     _TMR2ON 0092           __end_of___xxtofl 00BA  
                ??_InitAdc 001D                  ??_ReadAdc 0002                     _Dienap 0000  
           _LCDWriteString 0000*                    _adc_ok 0013                  ??___fldiv 0008  
                ??___flmul 0009                  ??___fltol 0004                  ??___lwdiv 0009  
                ??___lwmod 001D                     _count1 000D                     saved_w 007E  
             ___xxtofl@arg 0006               ___xxtofl@exp 0005               ___xxtofl@val 0007  
  __end_of__initialization 0009                 ___fltol@f1 0000             __pcstackCOMMON 0000  
               __pbssBANK0 0000                  ?_Count_Up 0000            ?_LCDWriteString 0000  
        __end_of__Umul8_16 0027                 __pmaintext 0000                 __pintentry 0000  
                  _T2CKPS0 0090                    _T2CKPS1 0091                    _LCDByte 0000* 
                  _LCDInit 0000*                 ?___xxtofl 0007                    _GO_DONE 00FA  
                  _TOUTPS0 0093                    _TOUTPS1 0094                    _TOUTPS2 0095  
                  _TOUTPS3 0096                 __stringtab 0000                 ??_Count_Up 0015  
                  _InitAdc 0000                    _ReadAdc 0000                    ___fldiv 0000  
                  ___flmul 0000                    ___fltol 0000                    ___lwdiv 0000  
                  ___lwmod 0000          _timer2_initialize 0000                    __ptext1 0000  
                  __ptext2 0000                    __ptext3 0000                    __ptext4 0000  
                  __ptext5 0000                    __ptext6 0000                    __ptext7 0000  
                  __ptext8 0000                    __ptext9 0000         ?_timer2_initialize 0000  
                  _count_s 000B                 ??___xxtofl 0000                  _LCDByte$1 0000  
                _LCDGotoXY 0000*       ??_timer2_initialize 001D                    clrloop0 0001  
     end_of_initialization 0009  __end_of_timer2_initialize 0015              ___xxtofl@sign 0004  
               ?_LCDGotoXY 0000                ___fldiv@grs 0007                ___fldiv@rem 0000  
              ___flmul@grs 0009             ReadAdc@Channel 0006        start_initialization 0000  
         ??_LCDWriteString 0000                  __Umul8_16 0000                   ?_LCDByte 0000  
                 ?_LCDInit 0000                  ___fldiv@a 0000                  ___fldiv@b 0004  
                ___flmul@a 0004                  ___flmul@b 0000                  ___latbits 0002  
            __pcstackBANK0 0000              __pcstackBANK1 0000                ??_LCDGotoXY 0000  
                 ?_InitAdc 0000                   ?_ReadAdc 0000           ___lwdiv@dividend 0007  
                _do_dienap 0014                   ?___fldiv 0000                   ?___flmul 0000  
                 ?___fltol 0000                 ?__Umul8_16 0000                   ?___lwdiv 0005  
                 ?___lwmod 0000                  __pstrings 0000           ___lwdiv@quotient 000B  
        interrupt_function 0000                  clear_ram0 0000                _LCDGotoXY$1 0000  
                main@Digit 000F                __stringbase 0005                   _Count_Up 0000  
         _LCDWriteString$0 0000                ??__Umul8_16 0002         __end_of__stringtab 0006  
                 ___xxtofl 0000                   _main$711 000D            ___lwdiv@divisor 0005  
          ___lwdiv@counter 000A                   __ptext10 0000                   __ptext11 0000  
                 main@F907 0008              main@ADC_Value 0012                   intlevel1 0000* 
         ___lwmod@dividend 0002                  stringcode 0000     __Umul8_16@multiplicand 0000  
          ___lwmod@divisor 0000            ___lwmod@counter 0004                   stringdir 0000  
                 stringtab 0000       __Umul8_16@multiplier 0008          __Umul8_16@product 0004  
